
AVR_SD_CARD.elf:     file format elf32-avr

Sections:
Idx Name          Size      VMA       LMA       File off  Algn
  0 .data         000000fa  00800200  00009e98  00009f2c  2**0
                  CONTENTS, ALLOC, LOAD, DATA
  1 .text         00009e98  00000000  00000000  00000094  2**1
                  CONTENTS, ALLOC, LOAD, READONLY, CODE
  2 .bss          0000066a  008002fa  008002fa  0000a026  2**0
                  ALLOC
  3 .comment      0000005c  00000000  00000000  0000a026  2**0
                  CONTENTS, READONLY
  4 .note.gnu.avr.deviceinfo 00000040  00000000  00000000  0000a084  2**2
                  CONTENTS, READONLY
  5 .debug_aranges 00000398  00000000  00000000  0000a0c4  2**0
                  CONTENTS, READONLY, DEBUGGING
  6 .debug_info   00009efd  00000000  00000000  0000a45c  2**0
                  CONTENTS, READONLY, DEBUGGING
  7 .debug_abbrev 000015cb  00000000  00000000  00014359  2**0
                  CONTENTS, READONLY, DEBUGGING
  8 .debug_line   0000619f  00000000  00000000  00015924  2**0
                  CONTENTS, READONLY, DEBUGGING
  9 .debug_frame  000015f4  00000000  00000000  0001bac4  2**2
                  CONTENTS, READONLY, DEBUGGING
 10 .debug_str    00000fc3  00000000  00000000  0001d0b8  2**0
                  CONTENTS, READONLY, DEBUGGING
 11 .debug_loc    00010b62  00000000  00000000  0001e07b  2**0
                  CONTENTS, READONLY, DEBUGGING
 12 .debug_ranges 00000670  00000000  00000000  0002ebdd  2**0
                  CONTENTS, READONLY, DEBUGGING

Disassembly of section .text:

00000000 <__vectors>:
       0:	0c 94 2c 20 	jmp	0x4058	; 0x4058 <__ctors_end>
       4:	0c 94 4d 20 	jmp	0x409a	; 0x409a <__bad_interrupt>
       8:	0c 94 4d 20 	jmp	0x409a	; 0x409a <__bad_interrupt>
       c:	0c 94 4d 20 	jmp	0x409a	; 0x409a <__bad_interrupt>
      10:	0c 94 4d 20 	jmp	0x409a	; 0x409a <__bad_interrupt>
      14:	0c 94 4d 20 	jmp	0x409a	; 0x409a <__bad_interrupt>
      18:	0c 94 4d 20 	jmp	0x409a	; 0x409a <__bad_interrupt>
      1c:	0c 94 4d 20 	jmp	0x409a	; 0x409a <__bad_interrupt>
      20:	0c 94 4d 20 	jmp	0x409a	; 0x409a <__bad_interrupt>
      24:	0c 94 4d 20 	jmp	0x409a	; 0x409a <__bad_interrupt>
      28:	0c 94 4d 20 	jmp	0x409a	; 0x409a <__bad_interrupt>
      2c:	0c 94 4d 20 	jmp	0x409a	; 0x409a <__bad_interrupt>
      30:	0c 94 4d 20 	jmp	0x409a	; 0x409a <__bad_interrupt>
      34:	0c 94 4d 20 	jmp	0x409a	; 0x409a <__bad_interrupt>
      38:	0c 94 4d 20 	jmp	0x409a	; 0x409a <__bad_interrupt>
      3c:	0c 94 4d 20 	jmp	0x409a	; 0x409a <__bad_interrupt>
      40:	0c 94 4d 20 	jmp	0x409a	; 0x409a <__bad_interrupt>
      44:	0c 94 4d 20 	jmp	0x409a	; 0x409a <__bad_interrupt>
      48:	0c 94 4d 20 	jmp	0x409a	; 0x409a <__bad_interrupt>
      4c:	0c 94 4d 20 	jmp	0x409a	; 0x409a <__bad_interrupt>
      50:	0c 94 4d 20 	jmp	0x409a	; 0x409a <__bad_interrupt>
      54:	0c 94 e2 48 	jmp	0x91c4	; 0x91c4 <__vector_21>
      58:	0c 94 4d 20 	jmp	0x409a	; 0x409a <__bad_interrupt>
      5c:	0c 94 4d 20 	jmp	0x409a	; 0x409a <__bad_interrupt>
      60:	0c 94 4d 20 	jmp	0x409a	; 0x409a <__bad_interrupt>
      64:	0c 94 4d 20 	jmp	0x409a	; 0x409a <__bad_interrupt>
      68:	0c 94 4d 20 	jmp	0x409a	; 0x409a <__bad_interrupt>
      6c:	0c 94 4d 20 	jmp	0x409a	; 0x409a <__bad_interrupt>
      70:	0c 94 4d 20 	jmp	0x409a	; 0x409a <__bad_interrupt>
      74:	0c 94 4d 20 	jmp	0x409a	; 0x409a <__bad_interrupt>
      78:	0c 94 4d 20 	jmp	0x409a	; 0x409a <__bad_interrupt>
      7c:	0c 94 4d 20 	jmp	0x409a	; 0x409a <__bad_interrupt>
      80:	0c 94 4d 20 	jmp	0x409a	; 0x409a <__bad_interrupt>
      84:	0c 94 4d 20 	jmp	0x409a	; 0x409a <__bad_interrupt>
      88:	0c 94 4d 20 	jmp	0x409a	; 0x409a <__bad_interrupt>
      8c:	0c 94 4d 20 	jmp	0x409a	; 0x409a <__bad_interrupt>
      90:	0c 94 4d 20 	jmp	0x409a	; 0x409a <__bad_interrupt>
      94:	0c 94 4d 20 	jmp	0x409a	; 0x409a <__bad_interrupt>
      98:	0c 94 4d 20 	jmp	0x409a	; 0x409a <__bad_interrupt>
      9c:	0c 94 4d 20 	jmp	0x409a	; 0x409a <__bad_interrupt>
      a0:	0c 94 4d 20 	jmp	0x409a	; 0x409a <__bad_interrupt>
      a4:	0c 94 4d 20 	jmp	0x409a	; 0x409a <__bad_interrupt>
      a8:	0c 94 4d 20 	jmp	0x409a	; 0x409a <__bad_interrupt>
      ac:	0c 94 4d 20 	jmp	0x409a	; 0x409a <__bad_interrupt>
      b0:	0c 94 4d 20 	jmp	0x409a	; 0x409a <__bad_interrupt>
      b4:	0c 94 4d 20 	jmp	0x409a	; 0x409a <__bad_interrupt>
      b8:	0c 94 4d 20 	jmp	0x409a	; 0x409a <__bad_interrupt>
      bc:	0c 94 4d 20 	jmp	0x409a	; 0x409a <__bad_interrupt>
      c0:	0c 94 4d 20 	jmp	0x409a	; 0x409a <__bad_interrupt>
      c4:	0c 94 4d 20 	jmp	0x409a	; 0x409a <__bad_interrupt>
      c8:	0c 94 4d 20 	jmp	0x409a	; 0x409a <__bad_interrupt>
      cc:	0c 94 4d 20 	jmp	0x409a	; 0x409a <__bad_interrupt>
      d0:	0c 94 4d 20 	jmp	0x409a	; 0x409a <__bad_interrupt>
      d4:	0c 94 4d 20 	jmp	0x409a	; 0x409a <__bad_interrupt>
      d8:	0c 94 4d 20 	jmp	0x409a	; 0x409a <__bad_interrupt>
      dc:	0c 94 4d 20 	jmp	0x409a	; 0x409a <__bad_interrupt>
      e0:	0c 94 4d 20 	jmp	0x409a	; 0x409a <__bad_interrupt>
      e4:	b9 46       	sbci	r27, 0x69	; 105
      e6:	c3 46       	sbci	r28, 0x63	; 99
      e8:	cb 46       	sbci	r28, 0x6B	; 107
      ea:	ce 46       	sbci	r28, 0x6E	; 110
      ec:	d1 46       	sbci	r29, 0x61	; 97
      ee:	d4 46       	sbci	r29, 0x64	; 100
      f0:	d7 46       	sbci	r29, 0x67	; 103
      f2:	da 46       	sbci	r29, 0x6A	; 106
      f4:	dd 46       	sbci	r29, 0x6D	; 109

000000f6 <__trampolines_end>:
      f6:	7d 1d       	adc	r23, r13
      f8:	01 00       	.word	0x0001	; ????
      fa:	63 2c       	mov	r6, r3
      fc:	00 1e       	adc	r0, r16
      fe:	96 01       	movw	r18, r12
     100:	a0 1e       	adc	r10, r16
     102:	5a 01       	movw	r10, r20
     104:	00 1f       	adc	r16, r16
     106:	08 06       	cpc	r0, r24
     108:	10 1f       	adc	r17, r16
     10a:	06 06       	cpc	r0, r22
     10c:	20 1f       	adc	r18, r16
     10e:	08 06       	cpc	r0, r24
     110:	30 1f       	adc	r19, r16
     112:	08 06       	cpc	r0, r24
     114:	40 1f       	adc	r20, r16
     116:	06 06       	cpc	r0, r22
     118:	51 1f       	adc	r21, r17
     11a:	07 00       	.word	0x0007	; ????
     11c:	59 1f       	adc	r21, r25
     11e:	52 1f       	adc	r21, r18
     120:	5b 1f       	adc	r21, r27
     122:	54 1f       	adc	r21, r20
     124:	5d 1f       	adc	r21, r29
     126:	56 1f       	adc	r21, r22
     128:	5f 1f       	adc	r21, r31
     12a:	60 1f       	adc	r22, r16
     12c:	08 06       	cpc	r0, r24
     12e:	70 1f       	adc	r23, r16
     130:	0e 00       	.word	0x000e	; ????
     132:	ba 1f       	adc	r27, r26
     134:	bb 1f       	adc	r27, r27
     136:	c8 1f       	adc	r28, r24
     138:	c9 1f       	adc	r28, r25
     13a:	ca 1f       	adc	r28, r26
     13c:	cb 1f       	adc	r28, r27
     13e:	da 1f       	adc	r29, r26
     140:	db 1f       	adc	r29, r27
     142:	f8 1f       	adc	r31, r24
     144:	f9 1f       	adc	r31, r25
     146:	ea 1f       	adc	r30, r26
     148:	eb 1f       	adc	r30, r27
     14a:	fa 1f       	adc	r31, r26
     14c:	fb 1f       	adc	r31, r27
     14e:	80 1f       	adc	r24, r16
     150:	08 06       	cpc	r0, r24
     152:	90 1f       	adc	r25, r16
     154:	08 06       	cpc	r0, r24
     156:	a0 1f       	adc	r26, r16
     158:	08 06       	cpc	r0, r24
     15a:	b0 1f       	adc	r27, r16
     15c:	04 00       	.word	0x0004	; ????
     15e:	b8 1f       	adc	r27, r24
     160:	b9 1f       	adc	r27, r25
     162:	b2 1f       	adc	r27, r18
     164:	bc 1f       	adc	r27, r28
     166:	cc 1f       	adc	r28, r28
     168:	01 00       	.word	0x0001	; ????
     16a:	c3 1f       	adc	r28, r19
     16c:	d0 1f       	adc	r29, r16
     16e:	02 06       	cpc	r0, r18
     170:	e0 1f       	adc	r30, r16
     172:	02 06       	cpc	r0, r18
     174:	e5 1f       	adc	r30, r21
     176:	01 00       	.word	0x0001	; ????
     178:	ec 1f       	adc	r30, r28
     17a:	f2 1f       	adc	r31, r18
     17c:	01 00       	.word	0x0001	; ????
     17e:	fc 1f       	adc	r31, r28
     180:	4e 21       	and	r20, r14
     182:	01 00       	.word	0x0001	; ????
     184:	32 21       	and	r19, r2
     186:	70 21       	and	r23, r0
     188:	10 02       	muls	r17, r16
     18a:	84 21       	and	r24, r4
     18c:	01 00       	.word	0x0001	; ????
     18e:	83 21       	and	r24, r3
     190:	d0 24       	eor	r13, r0
     192:	1a 05       	cpc	r17, r10
     194:	30 2c       	mov	r3, r0
     196:	2f 04       	cpc	r2, r15
     198:	60 2c       	mov	r6, r0
     19a:	02 01       	movw	r0, r4
     19c:	67 2c       	mov	r6, r7
     19e:	06 01       	movw	r0, r12
     1a0:	75 2c       	mov	r7, r5
     1a2:	02 01       	movw	r0, r4
     1a4:	80 2c       	mov	r8, r0
     1a6:	64 01       	movw	r12, r8
     1a8:	00 2d       	mov	r16, r0
     1aa:	26 08       	sbc	r2, r6
     1ac:	41 ff       	sbrs	r20, 1
     1ae:	1a 03       	fmul	r17, r18
	...

000001b2 <cvt1.2018>:
     1b2:	61 00 1a 03 e0 00 17 03 f8 00 07 03 ff 00 01 00     a...............
     1c2:	78 01 00 01 30 01 32 01 06 01 39 01 10 01 4a 01     x...0.2...9...J.
     1d2:	2e 01 79 01 06 01 80 01 4d 00 43 02 81 01 82 01     ..y.....M.C.....
     1e2:	82 01 84 01 84 01 86 01 87 01 87 01 89 01 8a 01     ................
     1f2:	8b 01 8b 01 8d 01 8e 01 8f 01 90 01 91 01 91 01     ................
     202:	93 01 94 01 f6 01 96 01 97 01 98 01 98 01 3d 02     ..............=.
     212:	9b 01 9c 01 9d 01 20 02 9f 01 a0 01 a0 01 a2 01     ...... .........
     222:	a2 01 a4 01 a4 01 a6 01 a7 01 a7 01 a9 01 aa 01     ................
     232:	ab 01 ac 01 ac 01 ae 01 af 01 af 01 b1 01 b2 01     ................
     242:	b3 01 b3 01 b5 01 b5 01 b7 01 b8 01 b8 01 ba 01     ................
     252:	bb 01 bc 01 bc 01 be 01 f7 01 c0 01 c1 01 c2 01     ................
     262:	c3 01 c4 01 c5 01 c4 01 c7 01 c8 01 c7 01 ca 01     ................
     272:	cb 01 ca 01 cd 01 10 01 dd 01 01 00 8e 01 de 01     ................
     282:	12 01 f3 01 03 00 f1 01 f4 01 f4 01 f8 01 28 01     ..............(.
     292:	22 02 12 01 3a 02 09 00 65 2c 3b 02 3b 02 3d 02     "...:...e,;.;.=.
     2a2:	66 2c 3f 02 40 02 41 02 41 02 46 02 0a 01 53 02     f,?.@.A.A.F...S.
     2b2:	40 00 81 01 86 01 55 02 89 01 8a 01 58 02 8f 01     @.....U.....X...
     2c2:	5a 02 90 01 5c 02 5d 02 5e 02 5f 02 93 01 61 02     Z...\.].^._...a.
     2d2:	62 02 94 01 64 02 65 02 66 02 67 02 97 01 96 01     b...d.e.f.g.....
     2e2:	6a 02 62 2c 6c 02 6d 02 6e 02 9c 01 70 02 71 02     j.b,l.m.n...p.q.
     2f2:	9d 01 73 02 74 02 9f 01 76 02 77 02 78 02 79 02     ..s.t...v.w.x.y.
     302:	7a 02 7b 02 7c 02 64 2c 7e 02 7f 02 a6 01 81 02     z.{.|.d,~.......
     312:	82 02 a9 01 84 02 85 02 86 02 87 02 ae 01 44 02     ..............D.
     322:	b1 01 b2 01 45 02 8d 02 8e 02 8f 02 90 02 91 02     ....E...........
     332:	b7 01 7b 03 03 00 fd 03 fe 03 ff 03 ac 03 04 00     ..{.............
     342:	86 03 88 03 89 03 8a 03 b1 03 11 03 c2 03 02 00     ................
     352:	a3 03 a3 03 c4 03 08 03 cc 03 03 00 8c 03 8e 03     ................
     362:	8f 03 d8 03 18 01 f2 03 0a 00 f9 03 f3 03 f4 03     ................
     372:	f5 03 f6 03 f7 03 f7 03 f9 03 fa 03 fa 03 30 04     ..............0.
     382:	20 03 50 04 10 07 60 04 22 01 8a 04 36 01 c1 04      .P...`."...6...
     392:	0e 01 cf 04 01 00 c0 04 d0 04 44 01 61 05 26 04     ..........D.a.&.
	...

000003a4 <uni2sjis>:
     3a4:	a7 00 98 81 a8 00 4e 81 b0 00 8b 81 b1 00 7d 81     ......N.......}.
     3b4:	b4 00 4c 81 b6 00 f7 81 d7 00 7e 81 f7 00 80 81     ..L.......~.....
     3c4:	91 03 9f 83 92 03 a0 83 93 03 a1 83 94 03 a2 83     ................
     3d4:	95 03 a3 83 96 03 a4 83 97 03 a5 83 98 03 a6 83     ................
     3e4:	99 03 a7 83 9a 03 a8 83 9b 03 a9 83 9c 03 aa 83     ................
     3f4:	9d 03 ab 83 9e 03 ac 83 9f 03 ad 83 a0 03 ae 83     ................
     404:	a1 03 af 83 a3 03 b0 83 a4 03 b1 83 a5 03 b2 83     ................
     414:	a6 03 b3 83 a7 03 b4 83 a8 03 b5 83 a9 03 b6 83     ................
     424:	b1 03 bf 83 b2 03 c0 83 b3 03 c1 83 b4 03 c2 83     ................
     434:	b5 03 c3 83 b6 03 c4 83 b7 03 c5 83 b8 03 c6 83     ................
     444:	b9 03 c7 83 ba 03 c8 83 bb 03 c9 83 bc 03 ca 83     ................
     454:	bd 03 cb 83 be 03 cc 83 bf 03 cd 83 c0 03 ce 83     ................
     464:	c1 03 cf 83 c3 03 d0 83 c4 03 d1 83 c5 03 d2 83     ................
     474:	c6 03 d3 83 c7 03 d4 83 c8 03 d5 83 c9 03 d6 83     ................
     484:	01 04 46 84 10 04 40 84 11 04 41 84 12 04 42 84     ..F...@...A...B.
     494:	13 04 43 84 14 04 44 84 15 04 45 84 16 04 47 84     ..C...D...E...G.
     4a4:	17 04 48 84 18 04 49 84 19 04 4a 84 1a 04 4b 84     ..H...I...J...K.
     4b4:	1b 04 4c 84 1c 04 4d 84 1d 04 4e 84 1e 04 4f 84     ..L...M...N...O.
     4c4:	1f 04 50 84 20 04 51 84 21 04 52 84 22 04 53 84     ..P. .Q.!.R.".S.
     4d4:	23 04 54 84 24 04 55 84 25 04 56 84 26 04 57 84     #.T.$.U.%.V.&.W.
     4e4:	27 04 58 84 28 04 59 84 29 04 5a 84 2a 04 5b 84     '.X.(.Y.).Z.*.[.
     4f4:	2b 04 5c 84 2c 04 5d 84 2d 04 5e 84 2e 04 5f 84     +.\.,.].-.^..._.
     504:	2f 04 60 84 30 04 70 84 31 04 71 84 32 04 72 84     /.`.0.p.1.q.2.r.
     514:	33 04 73 84 34 04 74 84 35 04 75 84 36 04 77 84     3.s.4.t.5.u.6.w.
     524:	37 04 78 84 38 04 79 84 39 04 7a 84 3a 04 7b 84     7.x.8.y.9.z.:.{.
     534:	3b 04 7c 84 3c 04 7d 84 3d 04 7e 84 3e 04 80 84     ;.|.<.}.=.~.>...
     544:	3f 04 81 84 40 04 82 84 41 04 83 84 42 04 84 84     ?...@...A...B...
     554:	43 04 85 84 44 04 86 84 45 04 87 84 46 04 88 84     C...D...E...F...
     564:	47 04 89 84 48 04 8a 84 49 04 8b 84 4a 04 8c 84     G...H...I...J...
     574:	4b 04 8d 84 4c 04 8e 84 4d 04 8f 84 4e 04 90 84     K...L...M...N...
     584:	4f 04 91 84 51 04 76 84 10 20 5d 81 15 20 5c 81     O...Q.v.. ].. \.
     594:	18 20 65 81 19 20 66 81 1c 20 67 81 1d 20 68 81     . e.. f.. g.. h.
     5a4:	20 20 f5 81 21 20 f6 81 25 20 64 81 26 20 63 81       ..! ..% d.& c.
     5b4:	30 20 f1 81 32 20 8c 81 33 20 8d 81 3b 20 a6 81     0 ..2 ..3 ..; ..
     5c4:	03 21 8e 81 16 21 82 87 21 21 84 87 2b 21 f0 81     .!...!..!!..+!..
     5d4:	60 21 54 87 61 21 55 87 62 21 56 87 63 21 57 87     `!T.a!U.b!V.c!W.
     5e4:	64 21 58 87 65 21 59 87 66 21 5a 87 67 21 5b 87     d!X.e!Y.f!Z.g![.
     5f4:	68 21 5c 87 69 21 5d 87 90 21 a9 81 91 21 aa 81     h!\.i!]..!...!..
     604:	92 21 a8 81 93 21 ab 81 d2 21 cb 81 d4 21 cc 81     .!...!...!...!..
     614:	00 22 cd 81 02 22 dd 81 03 22 ce 81 07 22 de 81     ."..."..."..."..
     624:	08 22 b8 81 0b 22 b9 81 11 22 94 87 1a 22 e3 81     ."..."..."..."..
     634:	1d 22 e5 81 1e 22 87 81 1f 22 98 87 20 22 da 81     ."..."...".. "..
     644:	25 22 61 81 27 22 c8 81 28 22 c9 81 29 22 bf 81     %"a.'"..("..)"..
     654:	2a 22 be 81 2b 22 e7 81 2c 22 e8 81 2e 22 93 87     *"..+"..,"..."..
     664:	34 22 88 81 35 22 e6 81 3d 22 e4 81 52 22 e0 81     4"..5"..="..R"..
     674:	60 22 82 81 61 22 df 81 66 22 85 81 67 22 86 81     `"..a"..f"..g"..
     684:	6a 22 e1 81 6b 22 e2 81 82 22 bc 81 83 22 bd 81     j"..k"..."..."..
     694:	86 22 ba 81 87 22 bb 81 a5 22 db 81 bf 22 99 87     ."..."..."..."..
     6a4:	12 23 dc 81 60 24 40 87 61 24 41 87 62 24 42 87     .#..`$@.a$A.b$B.
     6b4:	63 24 43 87 64 24 44 87 65 24 45 87 66 24 46 87     c$C.d$D.e$E.f$F.
     6c4:	67 24 47 87 68 24 48 87 69 24 49 87 6a 24 4a 87     g$G.h$H.i$I.j$J.
     6d4:	6b 24 4b 87 6c 24 4c 87 6d 24 4d 87 6e 24 4e 87     k$K.l$L.m$M.n$N.
     6e4:	6f 24 4f 87 70 24 50 87 71 24 51 87 72 24 52 87     o$O.p$P.q$Q.r$R.
     6f4:	73 24 53 87 00 25 9f 84 01 25 aa 84 02 25 a0 84     s$S..%...%...%..
     704:	03 25 ab 84 0c 25 a1 84 0f 25 ac 84 10 25 a2 84     .%...%...%...%..
     714:	13 25 ad 84 14 25 a4 84 17 25 af 84 18 25 a3 84     .%...%...%...%..
     724:	1b 25 ae 84 1c 25 a5 84 1d 25 ba 84 20 25 b5 84     .%...%...%.. %..
     734:	23 25 b0 84 24 25 a7 84 25 25 bc 84 28 25 b7 84     #%..$%..%%..(%..
     744:	2b 25 b2 84 2c 25 a6 84 2f 25 b6 84 30 25 bb 84     +%..,%../%..0%..
     754:	33 25 b1 84 34 25 a8 84 37 25 b8 84 38 25 bd 84     3%..4%..7%..8%..
     764:	3b 25 b3 84 3c 25 a9 84 3f 25 b9 84 42 25 be 84     ;%..<%..?%..B%..
     774:	4b 25 b4 84 a0 25 a1 81 a1 25 a0 81 b2 25 a3 81     K%...%...%...%..
     784:	b3 25 a2 81 bc 25 a5 81 bd 25 a4 81 c6 25 9f 81     .%...%...%...%..
     794:	c7 25 9e 81 cb 25 9b 81 ce 25 9d 81 cf 25 9c 81     .%...%...%...%..
     7a4:	ef 25 fc 81 05 26 9a 81 06 26 99 81 40 26 8a 81     .%...&...&..@&..
     7b4:	42 26 89 81 6a 26 f4 81 6d 26 f3 81 6f 26 f2 81     B&..j&..m&..o&..
     7c4:	00 30 40 81 01 30 41 81 02 30 42 81 03 30 56 81     .0@..0A..0B..0V.
     7d4:	05 30 58 81 06 30 59 81 07 30 5a 81 08 30 71 81     .0X..0Y..0Z..0q.
     7e4:	09 30 72 81 0a 30 73 81 0b 30 74 81 0c 30 75 81     .0r..0s..0t..0u.
     7f4:	0d 30 76 81 0e 30 77 81 0f 30 78 81 10 30 79 81     .0v..0w..0x..0y.
     804:	11 30 7a 81 12 30 a7 81 13 30 ac 81 14 30 6b 81     .0z..0...0...0k.
     814:	15 30 6c 81 1d 30 80 87 1f 30 81 87 41 30 9f 82     .0l..0...0..A0..
     824:	42 30 a0 82 43 30 a1 82 44 30 a2 82 45 30 a3 82     B0..C0..D0..E0..
     834:	46 30 a4 82 47 30 a5 82 48 30 a6 82 49 30 a7 82     F0..G0..H0..I0..
     844:	4a 30 a8 82 4b 30 a9 82 4c 30 aa 82 4d 30 ab 82     J0..K0..L0..M0..
     854:	4e 30 ac 82 4f 30 ad 82 50 30 ae 82 51 30 af 82     N0..O0..P0..Q0..
     864:	52 30 b0 82 53 30 b1 82 54 30 b2 82 55 30 b3 82     R0..S0..T0..U0..
     874:	56 30 b4 82 57 30 b5 82 58 30 b6 82 59 30 b7 82     V0..W0..X0..Y0..
     884:	5a 30 b8 82 5b 30 b9 82 5c 30 ba 82 5d 30 bb 82     Z0..[0..\0..]0..
     894:	5e 30 bc 82 5f 30 bd 82 60 30 be 82 61 30 bf 82     ^0.._0..`0..a0..
     8a4:	62 30 c0 82 63 30 c1 82 64 30 c2 82 65 30 c3 82     b0..c0..d0..e0..
     8b4:	66 30 c4 82 67 30 c5 82 68 30 c6 82 69 30 c7 82     f0..g0..h0..i0..
     8c4:	6a 30 c8 82 6b 30 c9 82 6c 30 ca 82 6d 30 cb 82     j0..k0..l0..m0..
     8d4:	6e 30 cc 82 6f 30 cd 82 70 30 ce 82 71 30 cf 82     n0..o0..p0..q0..
     8e4:	72 30 d0 82 73 30 d1 82 74 30 d2 82 75 30 d3 82     r0..s0..t0..u0..
     8f4:	76 30 d4 82 77 30 d5 82 78 30 d6 82 79 30 d7 82     v0..w0..x0..y0..
     904:	7a 30 d8 82 7b 30 d9 82 7c 30 da 82 7d 30 db 82     z0..{0..|0..}0..
     914:	7e 30 dc 82 7f 30 dd 82 80 30 de 82 81 30 df 82     ~0...0...0...0..
     924:	82 30 e0 82 83 30 e1 82 84 30 e2 82 85 30 e3 82     .0...0...0...0..
     934:	86 30 e4 82 87 30 e5 82 88 30 e6 82 89 30 e7 82     .0...0...0...0..
     944:	8a 30 e8 82 8b 30 e9 82 8c 30 ea 82 8d 30 eb 82     .0...0...0...0..
     954:	8e 30 ec 82 8f 30 ed 82 90 30 ee 82 91 30 ef 82     .0...0...0...0..
     964:	92 30 f0 82 93 30 f1 82 9b 30 4a 81 9c 30 4b 81     .0...0...0J..0K.
     974:	9d 30 54 81 9e 30 55 81 a1 30 40 83 a2 30 41 83     .0T..0U..0@..0A.
     984:	a3 30 42 83 a4 30 43 83 a5 30 44 83 a6 30 45 83     .0B..0C..0D..0E.
     994:	a7 30 46 83 a8 30 47 83 a9 30 48 83 aa 30 49 83     .0F..0G..0H..0I.
     9a4:	ab 30 4a 83 ac 30 4b 83 ad 30 4c 83 ae 30 4d 83     .0J..0K..0L..0M.
     9b4:	af 30 4e 83 b0 30 4f 83 b1 30 50 83 b2 30 51 83     .0N..0O..0P..0Q.
     9c4:	b3 30 52 83 b4 30 53 83 b5 30 54 83 b6 30 55 83     .0R..0S..0T..0U.
     9d4:	b7 30 56 83 b8 30 57 83 b9 30 58 83 ba 30 59 83     .0V..0W..0X..0Y.
     9e4:	bb 30 5a 83 bc 30 5b 83 bd 30 5c 83 be 30 5d 83     .0Z..0[..0\..0].
     9f4:	bf 30 5e 83 c0 30 5f 83 c1 30 60 83 c2 30 61 83     .0^..0_..0`..0a.
     a04:	c3 30 62 83 c4 30 63 83 c5 30 64 83 c6 30 65 83     .0b..0c..0d..0e.
     a14:	c7 30 66 83 c8 30 67 83 c9 30 68 83 ca 30 69 83     .0f..0g..0h..0i.
     a24:	cb 30 6a 83 cc 30 6b 83 cd 30 6c 83 ce 30 6d 83     .0j..0k..0l..0m.
     a34:	cf 30 6e 83 d0 30 6f 83 d1 30 70 83 d2 30 71 83     .0n..0o..0p..0q.
     a44:	d3 30 72 83 d4 30 73 83 d5 30 74 83 d6 30 75 83     .0r..0s..0t..0u.
     a54:	d7 30 76 83 d8 30 77 83 d9 30 78 83 da 30 79 83     .0v..0w..0x..0y.
     a64:	db 30 7a 83 dc 30 7b 83 dd 30 7c 83 de 30 7d 83     .0z..0{..0|..0}.
     a74:	df 30 7e 83 e0 30 80 83 e1 30 81 83 e2 30 82 83     .0~..0...0...0..
     a84:	e3 30 83 83 e4 30 84 83 e5 30 85 83 e6 30 86 83     .0...0...0...0..
     a94:	e7 30 87 83 e8 30 88 83 e9 30 89 83 ea 30 8a 83     .0...0...0...0..
     aa4:	eb 30 8b 83 ec 30 8c 83 ed 30 8d 83 ee 30 8e 83     .0...0...0...0..
     ab4:	ef 30 8f 83 f0 30 90 83 f1 30 91 83 f2 30 92 83     .0...0...0...0..
     ac4:	f3 30 93 83 f4 30 94 83 f5 30 95 83 f6 30 96 83     .0...0...0...0..
     ad4:	fb 30 45 81 fc 30 5b 81 fd 30 52 81 fe 30 53 81     .0E..0[..0R..0S.
     ae4:	31 32 8a 87 32 32 8b 87 39 32 8c 87 a4 32 85 87     12..22..92...2..
     af4:	a5 32 86 87 a6 32 87 87 a7 32 88 87 a8 32 89 87     .2...2...2...2..
     b04:	03 33 65 87 0d 33 69 87 14 33 60 87 18 33 63 87     .3e..3i..3`..3c.
     b14:	22 33 61 87 23 33 6b 87 26 33 6a 87 27 33 64 87     "3a.#3k.&3j.'3d.
     b24:	2b 33 6c 87 36 33 66 87 3b 33 6e 87 49 33 5f 87     +3l.63f.;3n.I3_.
     b34:	4a 33 6d 87 4d 33 62 87 51 33 67 87 57 33 68 87     J3m.M3b.Q3g.W3h.
     b44:	7b 33 7e 87 7c 33 8f 87 7d 33 8e 87 7e 33 8d 87     {3~.|3..}3..~3..
     b54:	8e 33 72 87 8f 33 73 87 9c 33 6f 87 9d 33 70 87     .3r..3s..3o..3p.
     b64:	9e 33 71 87 a1 33 75 87 c4 33 74 87 cd 33 83 87     .3q..3u..3t..3..
     b74:	00 4e ea 88 01 4e 9a 92 03 4e b5 8e 07 4e 9c 96     .N...N...N...N..
     b84:	08 4e e4 8f 09 4e 4f 8e 0a 4e e3 8f 0b 4e ba 89     .N...NO..N...N..
     b94:	0d 4e 73 95 0e 4e 5e 97 11 4e 4e 89 14 4e 8e 8a     .Ns..N^..NN..N..
     ba4:	15 4e a1 98 16 4e a2 90 18 4e 75 8b 19 4e b8 95     .N...N...Nu..N..
     bb4:	1e 4e e5 8f 21 4e bc 97 26 4e c0 95 2a 4e a2 98     .N..!N..&N..*N..
     bc4:	2d 4e 86 92 32 4e f8 8b 38 4e db 8a 39 4e 4f 92     -N..2N..8N..9NO.
     bd4:	3b 4e e5 8e 3c 4e a5 98 43 4e 54 94 45 4e 76 8b     ;N..<N..CNT.ENv.
     be4:	4b 4e 56 94 4d 4e e1 93 4e 4e c1 8c 4f 4e 52 96     KNV.MN..NN..ONR.
     bf4:	56 4e a8 98 57 4e e6 8f 59 4e b3 89 5d 4e e3 8b     VN..WN..YN..]N..
     c04:	5e 4e ee 8c 5f 4e e7 96 71 4e 90 97 73 4e fb 93     ^N.._N..qN..sN..
     c14:	7e 4e a3 8a 80 4e 54 8b 86 4e b9 97 88 4e 5c 97     ~N...NT..N...N\.
     c24:	89 4e 88 91 8b 4e 96 8e 8c 4e f1 93 8e 4e b0 98     .N...N...N...N..
     c34:	91 4e 5d 89 92 4e dd 8c 94 4e dc 8c 95 4e e4 88     .N]..N...N...N..
     c44:	98 4e 6a 98 99 4e 69 98 9b 4e b1 8d 9c 4e 9f 88     .Nj..Ni..N...N..
     c54:	9e 4e b1 98 a1 4e 53 96 a4 4e f0 8c a5 4e e5 88     .N...NS..N...N..
     c64:	a6 4e 92 96 a8 4e 9c 8b ab 4e 9d 8b ac 4e 9e 8b     .N...N...N...N..
     c74:	ad 4e e0 92 ae 4e ba 97 ba 4e 6c 90 c0 4e 59 8f     .N...N...Nl..NY.
     c84:	c1 4e 6d 90 c7 4e 77 8b ca 4e a1 8d cb 4e ee 89     .Nm..Nw..N...N..
     c94:	cf 4e a7 95 d4 4e 65 8e d5 4e 64 8e d6 4e bc 91     .N...Ne..Nd..N..
     ca4:	d8 4e 74 95 d9 4e e5 90 dd 4e 57 81 e3 4e e3 91     .Nt..N...NW..N..
     cb4:	e4 4e df 97 e5 4e c8 88 ee 4e bc 89 f0 4e c2 8b     .N...N...N...N..
     cc4:	f2 4e 87 92 f6 4e 8f 8c fb 4e 43 94 01 4f e9 8a     .N...N...NC..O..
     cd4:	0a 4f c9 88 0d 4f de 8c 0e 4f ea 8a 0f 4f 9a 95     .O...O...O...O..
     ce4:	10 4f b0 94 11 4f 78 8b 1a 4f ef 89 1d 4f 60 93     .O...Ox..O...O`.
     cf4:	2f 4f 8c 94 34 4f ba 94 36 4f e0 97 38 4f 4c 90     /O..4O..6O..8OL.
     d04:	3a 4f 66 8e 3c 4f 97 8e 3d 4f be 89 43 4f cf 92     :Of.<O..=O..CO..
     d14:	46 4f 41 92 47 4f c8 98 4d 4f ca 88 4e 4f e1 92     FOA.GO..MO..NO..
     d24:	4f 4f 5a 8f 50 4f b2 8d 51 4f 43 97 53 4f cc 91     OOZ.PO..QOC.SO..
     d34:	55 4f bd 89 57 4f c7 98 59 4f 5d 97 5b 4f c5 98     UO..WO..YO].[O..
     d44:	5c 4f ec 8d 73 4f c0 89 75 4f b9 95 7c 4f f1 8c     \O..sO..uO..|O..
     d54:	7f 4f 67 8e 83 4f a4 8a 86 4f d2 98 8b 4f e1 97     .Og..O...O...O..
     d64:	8d 4f 98 8e 9b 4f 9f 8b 9d 4f cb 88 a0 4f a0 8b     .O...O...O...O..
     d74:	a1 4f bf 89 ad 4f 99 96 ae 4f 8e 95 af 4f f2 8c     .O...O...O...O..
     d84:	b5 4f 4e 90 b6 4f b5 97 bf 4f d6 95 c2 4f 57 8c     .ON..O...O...OW.
     d94:	c3 4f a3 91 c4 4f e2 89 ca 4f 72 8f d7 4f ad 91     .O...O...Or..O..
     da4:	dd 4f db 95 e1 4f 4d 90 e3 4f 93 96 ee 4f 43 8f     .O...OM..O...OC.
     db4:	f3 4f 6f 94 f5 4f 55 95 f8 4f ee 95 fa 4f b4 89     .Oo..OU..O...O..
     dc4:	09 50 71 91 0b 50 c2 8c 0d 50 7b 94 12 50 7c 93     .Pq..P...P{..P|.
     dd4:	16 50 f4 8c 19 50 f3 8c 1f 50 d8 8e 23 50 ed 95     .P...P...P..#P..
     de4:	24 50 6c 92 26 50 91 8c 2b 50 cf 97 2d 50 60 98     $Pl.&P..+P..-P`.
     df4:	36 50 e4 8b 39 50 90 8c 49 50 cc 88 4f 50 ce 95     6P..9P..IP..OP..
     e04:	55 50 f1 98 5c 50 e2 92 65 50 92 8c 72 50 c3 8e     UP..\P..eP..rP..
     e14:	74 50 a4 91 75 50 e3 92 76 50 f4 8b 7d 50 55 8b     tP..uP..vP..}PU.
     e24:	8d 50 54 96 91 50 86 8c 98 50 50 8e 99 50 f5 94     .PT..P...PP..P..
     e34:	ac 50 c3 8d ad 50 62 97 b5 50 c2 8d b7 50 9d 8f     .P...Pb..P...P..
     e44:	be 50 58 8c c5 50 cd 8b cd 50 ad 93 cf 50 9c 91     .PX..P...P...P..
     e54:	d1 50 a1 8b d5 50 6c 96 da 50 bb 97 e7 50 6d 91     .P...Pl..P...Pm.
     e64:	fb 50 c6 95 00 51 56 8b 04 51 ad 89 12 51 f2 8e     .P...QV..Q...Q..
     e74:	1a 51 52 99 1f 51 9e 8f 2a 51 44 97 32 51 d7 96     .QR..Q..*QD.2Q..
     e84:	41 51 f2 88 43 51 b3 8c 44 51 5a 8c 45 51 5b 8f     AQ..CQ..DQZ.EQ[.
     e94:	46 51 9b 92 47 51 a2 8b 48 51 e6 90 49 51 f5 8c     FQ..GQ..HQ..IQ..
     ea4:	4b 51 8e 8d 4c 51 5b 99 4d 51 c6 96 4e 51 65 93     KQ..LQ[.MQ..NQe.
     eb4:	50 51 99 8e 52 51 5a 99 54 51 5c 99 5a 51 7d 93     PQ..RQZ.TQ\.ZQ}.
     ec4:	5c 51 95 8a 65 51 fc 93 68 51 53 91 6b 51 aa 94     \Q..eQ..hQS.kQ..
     ed4:	6c 51 f6 8c 6d 51 5a 98 71 51 a4 8b 75 51 ba 95     lQ..mQZ.qQ..uQ..
     ee4:	76 51 b4 91 77 51 ef 8b 78 51 54 93 7c 51 93 8c     vQ..wQ..xQT.|Q..
     ef4:	85 51 e0 93 86 51 7e 89 8a 51 fb 8d 8d 51 c4 8d     .Q...Q~..Q...Q..
     f04:	91 51 68 99 92 51 60 96 97 51 e7 8f 99 51 ca 8e     .Qh..Q`..Q...Q..
     f14:	a0 51 a5 8a a4 51 6c 99 a5 51 bb 96 a8 51 79 95     .Q...Ql..Q...Qy.
     f24:	ac 51 7e 93 b4 51 e1 8d b6 51 e8 96 b7 51 e2 97     .Q~..Q...Q...Q..
     f34:	c4 51 a6 90 c6 51 79 8f cb 51 9c 92 cc 51 bd 97     .Q...Qy..Q...Q..
     f44:	cd 51 80 93 dc 51 a3 ea dd 51 c3 8b e0 51 7b 99     .Q...Q...Q...Q{.
     f54:	e1 51 7d 96 e6 51 88 8f e7 51 fa 91 ea 51 e2 93     .Q}..Q...Q...Q..
     f64:	f1 51 4d 8a f6 51 a5 8b f8 51 ca 93 f9 51 9a 89     .QM..Q...Q...Q..
     f74:	fa 51 6f 8f fd 51 9f 94 00 52 81 93 03 52 6e 90     .Qo..Q...R...Rn.
     f84:	06 52 aa 95 07 52 d8 90 08 52 a0 8a 0a 52 a7 8a     .R...R...R...R..
     f94:	11 52 59 8c 17 52 f1 97 1d 52 89 8f 24 52 bb 94     .RY..R...R..$R..
     fa4:	25 52 ca 95 29 52 98 97 30 52 9e 93 36 52 a7 90     %R..)R..0R..6R..
     fb4:	37 52 fc 8d 38 52 94 8c 39 52 8b 99 3a 52 68 8e     7R..8R..9R..:Rh.
     fc4:	3b 52 8f 8d 43 52 e4 92 47 52 a5 91 4a 52 ed 8d     ;R..CR..GR..JR..
     fd4:	4d 52 4f 91 56 52 55 96 5b 52 84 8d 63 52 95 8c     MRO.VRU.[R..cR..
     fe4:	64 52 dc 8d 65 52 8d 94 6a 52 92 99 6f 52 9b 95     dR..eR..jR..oR..
     ff4:	70 52 e8 8f 72 52 84 8a 74 52 93 99 75 52 6e 91     pR..rR..tR..uRn.
    1004:	83 52 63 8a 87 52 80 8c 88 52 9c 99 89 52 ab 97     .Rc..R...R...R..
    1014:	9b 52 cd 97 9f 52 f7 8c a0 52 c1 89 a3 52 f2 97     .R...R...R...R..
    1024:	a9 52 95 8f aa 52 77 93 ab 52 85 8d b1 52 e3 97     .R...Rw..R...R..
    1034:	b4 52 4a 98 b9 52 f8 8c be 52 4e 8a c3 52 75 96     .RJ..R...RN..Ru.
    1044:	c5 52 ba 92 c7 52 45 97 c9 52 d7 95 d5 52 ae 93     .R...RE..R...R..
    1054:	d8 52 a8 8a d9 52 b1 96 dd 52 9f 8f df 52 e5 95     .R...R...R...R..
    1064:	e2 52 a8 90 e4 52 ce 8b e7 52 a9 8a f2 52 4d 8c     .R...R...R...RM.
    1074:	fa 52 d9 8e fe 52 f9 8c ff 52 dc 96 01 53 e6 96     .R...R...R...S..
    1084:	02 53 f5 93 05 53 ef 95 16 53 bb 89 17 53 6b 96     .S...S...S...Sk.
    1094:	19 53 fa 8d 1d 53 78 91 20 53 a0 8f 21 53 a7 8b     .S...Sx. S..!S..
    10a4:	2a 53 d9 94 39 53 43 95 3a 53 e6 8b 3b 53 e3 88     *S..9SC.:S..;S..
    10b4:	3f 53 bd 93 40 53 bd 99 41 53 5c 8f 43 53 e7 90     ?S..@S..AS\.CS..
    10c4:	47 53 a1 8f 48 53 df 8c 4a 53 bc 94 4d 53 c2 99     GS..HS..JS..MS..
    10d4:	51 53 da 94 52 53 b2 91 53 53 ec 91 54 53 a6 8b     QS..RS..SS..TS..
    10e4:	57 53 ec 93 58 53 50 92 5a 53 8e 94 5c 53 6d 96     WS..XSP.ZS..\Sm.
    10f4:	60 53 e8 90 66 53 54 8c 6f 53 4b 89 70 53 f3 88     `S..fST.oSK.pS..
    1104:	71 53 eb 8a 73 53 a6 91 74 53 70 8b 75 53 91 97     qS..sS..tSp.uS..
    1114:	78 53 b5 89 7f 53 a8 8b 82 53 ca 99 84 53 ef 96     xS...S...S...S..
    1124:	98 53 d0 97 9a 53 fa 8c 9f 53 b4 8c a0 53 cc 99     .S...S...S...S..
    1134:	a8 53 7e 90 a9 53 58 89 ad 53 7d 89 b3 53 b5 8c     .S~..SX..S}..S..
    1144:	bb 53 8e 8b c2 53 51 8e c8 53 94 96 c9 53 b3 8d     .S...SQ..S...S..
    1154:	ca 53 79 8b cb 53 46 97 cc 53 6f 91 cd 53 bd 94     .Sy..SF..So..S..
    1164:	ce 53 fb 8e d4 53 66 8f d6 53 e6 8e d7 53 f3 8e     .S...Sf..S...S..
    1174:	d9 53 96 8f db 53 be 94 e1 53 62 89 e2 53 70 91     .S...S...Sb..Sp.
    1184:	e3 53 fb 8c e4 53 c3 8c e5 53 e5 8b e9 53 40 92     .S...S...S...S@.
    1194:	ea 53 fc 91 eb 53 a9 8b ec 53 a2 8f ef 53 c2 89     .S...S...S...S..
    11a4:	f0 53 e4 91 f1 53 b6 8e f2 53 6a 8e f3 53 45 89     .S...S...Sj..SE.
    11b4:	f6 53 90 8a f7 53 86 8d f8 53 69 8e 03 54 68 8b     .S...S...Si..Th.
    11c4:	04 54 65 8a 08 54 87 8d 09 54 67 8b 0a 54 dd 92     .Te..T...Tg..T..
    11d4:	0b 54 44 89 0c 54 af 93 0d 54 bc 96 0e 54 40 8d     .TD..T...T...T@.
    11e4:	0f 54 99 97 10 54 66 93 11 54 fc 8c 1b 54 4e 8c     .T...Tf..T...TN.
    11f4:	1f 54 e1 8b 20 54 69 96 26 54 db 94 2b 54 dc 8a     .T.. Ti.&T..+T..
    1204:	38 54 7a 8b 39 54 81 90 3b 54 ab 95 3e 54 e1 8c     8Tz.9T..;T..>T..
    1214:	42 54 43 98 46 54 f0 95 48 54 e6 92 49 54 e0 8c     BTC.FT..HT..IT..
    1224:	4a 54 90 8d 51 54 db 93 68 54 fc 8e 6a 54 f4 8e     JT..QT..hT..jT..
    1234:	73 54 a1 96 7b 54 ef 99 7c 54 c4 8c 7d 54 bd 96     sT..{T..|T..}T..
    1244:	80 54 f0 99 8b 54 ee 8d 8c 54 61 98 8e 54 e9 99     .T...T...Ta..T..
    1254:	ac 54 f9 99 b2 54 e7 8d b3 54 50 8a bd 54 f4 88     .T...T...TP..T..
    1264:	c0 54 a3 88 c1 54 69 95 c9 54 c6 8d e1 54 f5 88     .T...Ti..T...T..
    1274:	e8 54 a3 8f e9 54 89 96 f2 54 4e 93 04 55 53 89     .T...T...TN..US.
    1284:	06 55 b4 8d 07 55 4f 90 10 55 82 93 16 55 a0 88     .U...UO..U...U..
    1294:	2f 55 42 97 31 55 a5 8f 3e 55 c1 91 44 55 ed 91     /UB.1U..>U..DU..
    12a4:	46 55 a4 8f 4f 55 e2 96 53 55 5b 8c 84 55 50 91     FU..OU..SU[..UP.
    12b4:	89 55 41 8d 8b 55 9d 92 98 55 62 9a 9a 55 ab 8a     .UA..U...Ub..U..
    12c4:	9c 55 ec 8a 9d 55 85 8a a7 55 96 8c aa 55 72 91     .U...U...U...Ur.
    12d4:	ab 55 69 8b ac 55 aa 8b ae 55 64 9a b0 55 f2 8b     .Ui..U...Ud..U..
    12e4:	b6 55 63 89 e3 55 6b 8e 06 56 51 92 09 56 c3 89     .Uc..Uk..VQ..V..
    12f4:	14 56 71 9a 17 56 a6 8f 18 56 52 89 29 56 dc 89     .Vq..V...VR.)V..
    1304:	31 56 fa 8f 42 56 5c 89 4c 56 58 91 5b 56 9a 8a     1V..BV\.LVX.[V..
    1314:	68 56 ed 8a 74 56 ac 95 78 56 d3 93 7a 56 b6 94     hV..tV..xV..zV..
    1324:	87 56 64 8a a2 56 58 94 c0 56 93 9a c1 56 91 9a     .Vd..VX..V...V..
    1334:	c3 56 92 9a d3 56 97 9a da 56 fa 8e db 56 6c 8e     .V...V...V...Vl.
    1344:	de 56 f1 89 e0 56 f6 88 e3 56 63 92 ee 56 99 9a     .V...V...Vc..V..
    1354:	f0 56 a2 8d f2 56 cd 88 f3 56 7d 90 fa 56 c5 8c     .V...V...V}..V..
    1364:	fd 56 91 8d 03 57 de 95 0b 57 a0 9a 0f 57 97 8c     .V...W...W...W..
    1374:	12 57 80 89 13 57 a2 9a 1f 57 79 93 27 57 b3 88     .W...W...Wy.'W..
    1384:	28 57 dd 8d 2d 57 5c 8c 30 57 6e 92 42 57 e2 8d     (W..-W\.0Wn.BW..
    1394:	47 57 cf 8b 4a 57 56 96 50 57 bf 8d 51 57 42 8d     GW..JWV.PW..QWB.
    13a4:	64 57 a3 8d 66 57 52 92 6a 57 d8 92 82 57 82 90     dW..fWR.jW...W..
    13b4:	8b 57 5e 8c a2 57 43 8d a3 57 5f 8a c3 57 ba 9a     .W^..WC..W_..W..
    13c4:	cb 57 84 96 ce 57 e9 8f dc 57 57 94 df 57 e6 88     .W...W...WW..W..
    13d4:	e0 57 75 95 f4 57 fb 8f f7 57 b7 8e f9 57 7c 94     .Wu..W...W...W|.
    13e4:	fa 57 ee 8a fc 57 e9 8d 00 58 78 96 02 58 b0 93     .W...W...Xx..X..
    13f4:	05 58 98 8c 06 58 cd 91 15 58 c2 91 21 58 c6 9a     .X...X...X..!X..
    1404:	24 58 e7 92 2a 58 ac 8a 30 58 81 89 31 58 f1 95     $X..*X..0X..1X..
    1414:	34 58 ea 8f 35 58 67 93 3a 58 e4 8d 40 58 bb 95     4X..5Xg.:X..@X..
    1424:	41 58 db 97 4a 58 f2 89 51 58 59 91 54 58 83 93     AX..JX..QXY.TX..
    1434:	57 58 68 93 58 58 84 93 59 58 b7 94 5a 58 cb 92     WXh.XX..YX..ZX..
    1444:	5e 58 c7 8d 69 58 96 89 6b 58 55 93 75 58 6f 90     ^X..iX..kXU.uXo.
    1454:	79 58 cd 9a 7e 58 6d 8f 83 58 ab 8b 93 58 e6 95     yX..~Xm..X...X..
    1464:	97 58 9d 91 9c 58 c4 92 9f 58 d0 9a a8 58 6e 96     .X...X...X...Xn.
    1474:	b3 58 ad 95 be 58 a4 8d c1 58 c7 95 c7 58 64 92     .X...X...X...Xd.
    1484:	ca 58 f3 89 cc 58 eb 8f d5 58 88 8d eb 58 6d 8e     .X...X...X...Xm.
    1494:	ec 58 70 90 ee 58 73 91 f0 58 ba 90 f1 58 eb 88     .Xp..Xs..X...X..
    14a4:	f2 58 84 94 f7 58 d9 92 09 59 cf 95 0f 59 c4 89     .X...X...Y...Y..
    14b4:	15 59 5b 97 16 59 4f 8a 19 59 67 8f 1a 59 bd 91     .Y[..YO..Yg..Y..
    14c4:	1c 59 e9 96 22 59 b2 96 27 59 e5 91 29 59 56 93     .Y.."Y..'Y..)YV.
    14d4:	2a 59 be 91 2b 59 76 95 2e 59 9b 89 31 59 b8 8e     *Y..+Yv..Y..1Y..
    14e4:	37 59 ce 88 44 59 82 89 47 59 ef 8a 48 59 de 93     7Y..DY..GY..HY..
    14f4:	49 59 f2 95 4f 59 74 91 51 59 5f 8c 54 59 7a 96     IY..OYt.QY_.TYz.
    1504:	57 59 85 93 65 59 9c 89 68 59 a7 8f 6a 59 44 92     WY..eY..hY..jYD.
    1514:	6e 59 b1 95 73 59 97 8f 74 59 7a 93 7d 59 44 8d     nY..sY..tYz.}YD.
    1524:	82 59 40 94 83 59 dc 94 84 59 cf 96 8a 59 44 94     .Y@..Y...Y...YD.
    1534:	93 59 57 8b 96 59 64 97 99 59 ad 96 a5 59 c3 91     .YW..Yd..Y...Y..
    1544:	a8 59 57 96 ac 59 69 93 b9 59 85 96 bb 59 c8 8d     .YW..Yi..Y...Y..
    1554:	be 59 a8 8f c9 59 6f 8e cb 59 6e 8e d0 59 b7 88     .Y...Yo..Yn..Y..
    1564:	d1 59 c6 8c d3 59 a9 90 d4 59 cf 88 e5 59 57 89     .Y...Y...Y...YW.
    1574:	e6 59 ad 8a ea 59 c3 96 eb 59 50 95 f6 59 a6 88     .Y...Y...YP..Y..
    1584:	fb 59 f7 88 ff 59 70 8e 01 5a d0 88 03 5a a1 88     .Y...Yp..Z...Z..
    1594:	18 5a ba 96 20 5a 50 90 29 5a d8 95 2f 5a e2 8c     .Z.. ZP.)Z../Z..
    15a4:	3c 5a a9 8f 41 5a 4b 98 46 5a 6b 94 5a 5a a5 8d     <Z..AZK.FZk.ZZ..
    15b4:	66 5a 77 95 7f 5a b9 96 92 5a 7d 94 9b 5a 51 95     fZw..Z...Z}..ZQ.
    15c4:	c1 5a c5 89 c9 5a b9 8e cc 5a 99 8c e1 5a 84 92     .Z...Z...Z...Z..
    15d4:	09 5b f0 8a 22 5b ec 8f 2c 5b da 92 30 5b 64 89     .[.."[..,[..0[d.
    15e4:	50 5b 71 8e 54 5b 45 8d 57 5b 9a 8e 58 5b b6 91     P[q.T[E.W[..X[..
    15f4:	5c 5b 79 8e 5d 5b 46 8d 5f 5b d0 96 63 5b 47 8b     \[y.][F._[..c[G.
    1604:	64 5b c7 8c 66 5b 77 8a 6b 5b b7 91 78 5b 7b 9b     d[..f[w.k[..x[{.
    1614:	85 5b ee 91 87 5b 46 89 88 5b e7 8e 89 5b c0 88     .[...[F..[...[..
    1624:	8b 5b 76 91 8c 5b ae 8a 8d 5b b3 8e 8f 5b 47 8d     .[v..[...[...[G.
    1634:	95 5b 86 93 97 5b 40 8f 98 5b af 8a 99 5b 88 92     .[...[@..[...[..
    1644:	9a 5b e8 92 9b 5b b6 88 9c 5b 58 8b 9d 5b f3 95     .[...[...[X..[..
    1654:	9f 5b c0 8e a2 5b 71 8b a3 5b e9 90 a4 5b ba 8e     .[...[q..[...[..
    1664:	a5 5b 47 97 ae 5b 7b 8b b0 5b c9 8d b3 5b 51 8a     .[G..[{..[...[Q.
    1674:	b4 5b 83 89 b5 5b aa 8f b6 5b c6 89 b9 5b 65 97     .[...[...[...[e.
    1684:	bf 5b 68 8f c2 5b e2 8e c4 5b f1 8a c5 5b d0 93     .[h..[...[...[..
    1694:	c6 5b a7 96 cc 5b 78 95 d2 5b a6 8a d3 5b f5 8b     .[...[x..[...[..
    16a4:	db 5b b0 8a dd 5b 51 90 df 5b 40 8e e1 5b c7 89     .[...[Q..[@..[..
    16b4:	e7 5b 4a 94 e9 5b 52 90 ee 5b be 97 f5 5b 9e 92     .[J..[R..[...[..
    16c4:	f8 5b a1 90 fa 5b 9b 8e fe 5b ce 91 ff 5b f5 8e     .[...[...[...[..
    16d4:	01 5c 95 95 02 5c ea 90 04 5c cb 8e 06 5c ab 8f     .\...\...\...\..
    16e4:	09 5c d1 88 0a 5c b8 91 0b 5c 71 90 0e 5c b1 93     .\...\...\q..\..
    16f4:	0f 5c ac 8f 11 5c ad 8f 16 5c eb 90 1a 5c ae 8f     .\...\...\...\..
    1704:	24 5c de 96 2d 5c c4 8b 31 5c 41 8f 3a 5c da 8e     $\..-\..1\A.:\..
    1714:	3b 5c 4b 90 3c 5c f2 93 3d 5c 73 90 3e 5c f6 94     ;\K.<\..=\s.>\..
    1724:	3f 5c 41 94 40 5c c7 8b 41 5c 9b 9b 45 5c 8f 8b     ?\A.@\..A\..E\..
    1734:	48 5c fc 8b 4a 5c cd 93 4b 5c ae 89 4d 5c 72 8e     H\..J\..K\..M\r.
    1744:	51 5c fb 8b 55 5c 57 93 5e 5c ae 91 60 5c 6a 93     Q\..U\W.^\..`\j.
    1754:	61 5c c6 8e 64 5c 77 91 65 5c 9a 97 6f 5c d4 93     a\..d\w.e\..o\..
    1764:	71 5c 52 8e 79 5c a6 9b 90 5c f2 8a a1 5c aa 89     q\R.y\...\...\..
    1774:	a8 5c 5a 91 a9 5c e2 8a ac 5c a6 96 b1 5c d0 91     .\Z..\...\...\..
    1784:	b3 5c 78 8a b8 5c dd 8a e0 5c bb 93 e1 5c ac 8b     .\x..\...\...\..
    1794:	e8 5c e3 89 ef 5c f5 95 f0 5c f4 95 f6 5c 87 93     .\...\...\...\..
    17a4:	fb 5c 73 8f 07 5d 92 90 0e 5d e8 8d 16 5d 52 8a     .\s..]...]...]R.
    17b4:	29 5d f6 95 50 5d 92 97 69 5d 93 90 6f 5d b5 8d     )]..P]..i]..o]..
    17c4:	8b 5d 88 93 ba 5d e4 97 cc 5d de 8a dd 5d ec 90     .]...]...]...]..
    17d4:	de 5d 42 8f e1 5d 84 8f e3 5d 83 91 e5 5d 48 8d     .]B..]...]...]H.
    17e4:	e6 5d b6 8d e7 5d 49 8d e8 5d 90 8b eb 5d de 9b     .]...]I..]...]..
    17f4:	ee 5d b7 8d f1 5d c8 8c f3 5d a4 96 f4 5d 62 94     .]...]...]...]b.
    1804:	f7 5d 4a 8d fb 5d aa 8a fd 5d 46 92 fe 5d d0 8b     .]J..]...]F..]..
    1814:	02 5e 73 8e 03 5e 7a 95 06 5e bf 94 0c 5e f3 8a     .^s..^z..^...^..
    1824:	16 5e 9f 92 1d 5e e9 92 25 5e 83 90 2b 5e 74 8e     .^...^..%^..+^t.
    1834:	2d 5e c8 90 2f 5e d1 91 30 5e 41 8b 33 5e a0 92     -^../^..0^A.3^..
    1844:	38 5e ed 8f 3d 5e 58 96 45 5e 9d 95 4c 5e 79 96     8^..=^X.E^..L^y.
    1854:	55 5e 8b 96 61 5e a6 94 63 5e bc 95 72 5e b1 8a     U^..a^..c^..r^..
    1864:	73 5e bd 95 74 5e 4e 94 78 5e 4b 8d 79 5e b2 8a     s^..t^N.x^K.y^..
    1874:	7b 5e b6 8c 7c 5e 63 97 7d 5e 48 97 7e 5e f4 8a     {^..|^c.}^H.~^..
    1884:	81 5e a1 92 83 5e 4c 8d 84 5e af 8f 87 5e dd 94     .^...^L..^...^..
    1894:	8a 5e b0 8f 8f 5e 98 8f 95 5e ea 92 96 5e f7 95     .^...^...^...^..
    18a4:	97 5e 58 93 9a 5e 4d 8d 9c 5e 7b 95 a6 5e 78 93     .^X..^M..^{..^x.
    18b4:	a7 5e c0 8d ab 5e c9 8c ad 5e eb 92 b5 5e c1 88     .^...^...^...^..
    18c4:	b6 5e 8e 8f b7 5e 4e 8d b8 5e 66 97 c3 5e 70 94     .^...^N..^f..^p.
    18d4:	c9 5e f5 97 ca 5e 4c 98 d3 5e 66 8a df 5e 5f 95     .^...^L..^f..^_.
    18e4:	e0 5e b1 8f e2 5e 45 9c e3 5e 41 9c f6 5e 84 89     .^...^E..^A..^..
    18f4:	f7 5e ec 92 fa 5e 9a 8c fb 5e f4 89 fc 5e 55 94     .^...^...^...^U.
    1904:	ff 5e f9 93 01 5f d9 95 04 5f 4d 98 0a 5f be 95     .^..._..._M.._..
    1914:	0d 5f af 98 0f 5f ae 8e 10 5f f3 93 13 5f 7c 8b     ._..._..._..._|.
    1924:	14 5f a2 92 15 5f f8 88 17 5f a4 95 18 5f 4f 8d     ._..._..._..._O.
    1934:	1b 5f 6f 92 1f 5f ed 92 25 5f ed 96 26 5f b7 8c     ._o.._..%_..&_..
    1944:	27 5f ca 8c 31 5f e3 8e 35 5f a3 92 37 5f ad 8b     '_..1_..5_..7_..
    1954:	3c 5f 4a 95 3e 5f 65 92 4a 5f ae 8b 53 5f 96 93     <_J.>_e.J_..S_..
    1964:	57 5f 61 9c 59 5f 62 9c 61 5f 63 9c 62 5f 60 8c     W_a.Y_b.a_c.b_`.
    1974:	66 5f 46 95 69 5f ca 8d 6a 5f 56 95 6b 5f a4 92     f_F.i_..j_V.k_..
    1984:	6c 5f 6a 95 70 5f b2 8f 71 5f 65 89 77 5f 66 9c     l_j.p_..q_e.w_f.
    1994:	79 5f f0 96 7c 5f de 94 80 5f 9d 89 81 5f aa 90     y_..|_..._..._..
    19a4:	84 5f 61 8c 85 5f d2 91 8a 5f 6a 9c 8b 5f a5 97     ._a.._..._j.._..
    19b4:	8c 5f e3 8c 90 5f 99 8f 92 5f 6b 93 93 5f 5d 8f     ._..._..._k.._].
    19c4:	97 5f be 93 98 5f 70 9c a1 5f e4 8c a9 5f 9c 95     ._..._p.._..._..
    19d4:	aa 5f 7a 8f ae 5f f7 94 b3 5f bf 93 b4 5f a5 92     ._z.._..._..._..
    19e4:	b9 5f 4f 93 bd 5f 4a 8b c3 5f 53 90 c5 5f 4b 95     ._O.._J.._S.._K.
    19f4:	cc 5f f5 8a cd 5f 45 94 d7 5f 75 8e d8 5f 59 96     ._..._E.._u.._Y.
    1a04:	d9 5f 5a 96 dc 5f 9e 89 e0 5f 89 92 eb 5f f5 89     ._Z.._..._..._..
    1a14:	f5 5f 4f 94 fd 5f 9a 8d 12 60 7b 93 16 60 7c 95     ._O.._...`{..`|.
    1a24:	1c 60 e5 97 1d 60 76 8e 20 60 d3 91 25 60 7d 8b     .`...`v. `..%`}.
    1a34:	27 60 ab 90 28 60 85 89 2a 60 f6 89 2f 60 af 8b     '`..(`..*`../`..
    1a44:	4b 60 f6 97 4d 60 92 9c 50 60 b0 8b 52 60 50 8d     K`..M`..P`..R`P.
    1a54:	55 60 9a 8f 62 60 f8 89 65 60 70 92 68 60 a6 8d     U`..b`..e`p.h`..
    1a64:	69 60 b6 89 6b 60 98 9c 6d 60 b1 8b 6f 60 a7 91     i`..k`..m`..o`..
    1a74:	70 60 86 8a 75 60 62 8c 89 60 bb 8e 8c 60 ee 92     p`..u`b..`...`..
    1a84:	94 60 f7 89 9f 60 e5 8c a0 60 49 97 a3 60 b3 8a     .`...`...`I..`..
    1a94:	a6 60 78 89 a9 60 59 94 aa 60 ab 88 b2 60 df 94     .`x..`Y..`...`..
    1aa4:	b6 60 e3 96 bc 60 89 93 c5 60 ee 8f c7 60 d5 93     .`...`...`...`..
    1ab4:	d1 60 66 98 da 60 9b 8d dc 60 c9 90 df 60 d2 88     .`f..`...`...`..
    1ac4:	e3 60 79 91 e8 60 53 8e f0 60 c4 91 f3 60 7a 91     .`y..`S..`...`z.
    1ad4:	f9 60 e4 8e 01 61 44 8f 08 61 fa 96 09 61 f9 96     .`...aD..a...a..
    1ae4:	0f 61 d3 88 1a 61 f0 8b 1b 61 a4 88 1f 61 b4 8a     .a...a...a...a..
    1af4:	48 61 9c 8e 4b 61 d4 91 4c 61 51 8d 4e 61 54 90     Ha..Ka..LaQ.NaT.
    1b04:	55 61 e7 95 62 61 9d 96 63 61 b5 8a 67 61 64 8c     Ua..ba..ca..gad.
    1b14:	68 61 53 8a 6e 61 b6 97 70 61 d4 88 76 61 63 8c     haS.na..pa..vac.
    1b24:	7e 61 7c 97 82 61 4a 97 8e 61 9e 91 90 61 f7 97     ~a|..aJ..a...a..
    1b34:	91 61 df 9c 94 61 dc 9c a4 61 ae 95 a7 61 b2 93     .a...a...a...a..
    1b44:	a9 61 65 8c b2 61 9b 8c b6 61 af 89 be 61 b6 8a     .ae..a...a...a..
    1b54:	c7 61 a7 8d d0 61 f9 89 f2 61 a6 92 f8 61 9c 8c     .a...a...a...a..
    1b64:	0a 62 e8 95 0e 62 5e 8f 10 62 ac 90 11 62 e4 89     .b...b^..b...b..
    1b74:	12 62 fa 89 16 62 bd 88 1a 62 ca 90 1f 62 81 8c     .b...b...b...b..
    1b84:	26 62 ed 90 2e 62 43 9d 2f 62 59 8b 30 62 44 9d     &b...bC./bY.0bD.
    1b94:	34 62 d5 91 38 62 cb 8c 3b 62 df 96 3f 62 5b 96     4b..8b..;b..?b[.
    1ba4:	40 62 8a 8f 47 62 ee 90 49 62 e0 94 4b 62 e8 8e     @b..Gb..Ib..Kb..
    1bb4:	4d 62 cb 8d 53 62 c5 91 55 62 a5 95 58 62 ef 91     Mb..Sb..Ub..Xb..
    1bc4:	6e 62 af 95 71 62 b5 88 76 62 7d 95 79 62 e1 94     nb..qb..vb}.yb..
    1bd4:	7f 62 b3 8f 80 62 5a 8b 84 62 b4 8f 8a 62 63 94     .b...bZ..b...bc.
    1be4:	91 62 7d 97 95 62 8a 93 97 62 52 8d 98 62 dc 90     .b}..b...bR..b..
    1bf4:	9c 62 b2 94 9e 62 f0 91 ab 62 e2 94 b1 62 f8 95     .b...b...b...b..
    1c04:	b5 62 ef 92 b9 62 95 96 bc 62 9f 89 bd 62 8a 92     .b...b...b...b..
    1c14:	c5 62 53 92 c9 62 66 9d cd 62 8f 94 d0 62 fb 89     .bS..bf..b...b..
    1c24:	d2 62 91 8b d3 62 f1 91 d8 62 53 8d d9 62 d9 90     .b...b...bS..b..
    1c34:	db 62 b5 8f dd 62 71 94 e0 62 92 8b e1 62 67 8a     .b...bq..b...bg.
    1c44:	ec 62 87 8a ed 62 40 90 f3 62 9d 8c f6 62 41 8e     .b...b@..b...bA.
    1c54:	f7 62 89 8d fe 62 45 8f 01 63 9d 8e 07 63 77 8e     .b...bE..c...cw.
    1c64:	09 63 c2 88 11 63 a7 92 19 63 93 8b 1f 63 b2 8b     .c...c...c...c..
    1c74:	28 63 a5 88 2b 63 c1 8d 2f 63 55 90 3a 63 f0 92     (c..+c../cU.:c..
    1c84:	3d 63 d2 94 3f 63 7d 91 49 63 a8 91 4c 63 4a 8e     =c..?c}.Ic..LcJ.
    1c94:	55 63 df 95 57 63 bb 92 5c 63 7b 91 67 63 f9 95     Uc..Wc..\c{.gc..
    1ca4:	68 63 cc 8e 6e 63 98 90 72 63 9e 8c 77 63 b7 8f     hc..nc..rc..wc..
    1cb4:	7a 63 e6 93 7b 63 50 94 83 63 7c 91 88 63 f6 8e     zc..{cP..c|..c..
    1cc4:	8c 63 b6 8f 92 63 72 94 98 63 40 8c 9b 63 7c 8a     .c...cr..c@..c|.
    1cd4:	a0 63 a9 97 a1 63 cc 8d a2 63 54 92 a5 63 da 90     .c...c...cT..c..
    1ce4:	a7 63 54 8d a8 63 84 90 a9 63 86 89 aa 63 5b 91     .cT..c...c...c[.
    1cf4:	ac 63 64 8b b2 63 66 8c b4 63 cd 92 bb 63 7e 91     .cd..cf..c...c~.
    1d04:	c3 63 b5 91 c4 63 89 9d c9 63 86 9d cf 63 60 95     .c...c...c...c`.
    1d14:	d0 63 f1 92 d6 63 4b 97 da 63 67 97 db 63 b7 8a     .c...cK..cg..c..
    1d24:	e1 63 ac 88 ee 63 f6 8a f4 63 87 89 f6 63 88 9d     .c...c...c...c..
    1d34:	fa 63 68 97 0d 64 b9 91 16 64 8a 9d 2c 64 c0 94     .ch..d...d..,d..
    1d44:	2d 64 8b 93 3a 64 67 8c 3e 64 ef 8d 42 64 db 90     -d..:dg.>d..Bd..
    1d54:	58 64 45 93 69 64 80 96 78 64 cc 96 7a 64 a0 90     XdE.id..xd..zd..
    1d64:	83 64 82 8c 92 64 54 8e 9a 64 51 94 9e 64 b3 93     .d...dT..dQ..d..
    1d74:	a4 64 50 93 a5 64 9b 9d ab 64 8f 95 ad 64 64 94     .dP..d...d...dd.
    1d84:	ae 64 42 8e b0 64 ef 90 b2 64 6f 96 b9 64 68 8a     .dB..d...do..dh.
    1d94:	c1 64 69 97 cd 64 80 91 e2 64 46 93 e6 64 43 8e     .di..d...dF..dC.
    1da4:	ec 64 5b 8b fe 64 ef 8f 2a 65 98 9d 2f 65 78 8e     .d[..d..*e../ex.
    1db4:	39 65 fc 89 3b 65 55 8d 3e 65 fa 95 3f 65 ad 90     9e..;eU.>e..?e..
    1dc4:	45 65 cc 8c 4f 65 71 95 51 65 7e 8b 57 65 73 94     Ee..Oeq.Qe~.Wes.
    1dd4:	59 65 b3 8b 62 65 b8 8a 63 65 55 8e 66 65 d6 93     Ye..be..ceU.fe..
    1de4:	6c 65 68 8c 70 65 94 90 74 65 ae 90 75 65 47 93     leh.pe..te..ueG.
    1df4:	77 65 7e 95 87 65 b6 95 89 65 c4 90 8c 65 6b 95     we~..e...e...ek.
    1e04:	8e 65 d6 8d 90 65 e3 94 91 65 c1 94 97 65 6c 93     .e...e...e...el.
    1e14:	99 65 bf 97 9c 65 ce 8e a1 65 b4 88 a4 65 d2 8b     .e...e...e...e..
    1e24:	a5 65 cb 90 a7 65 80 95 ac 65 61 8e ad 65 66 92     .e...e...ea..ef.
    1e34:	af 65 7a 8e b0 65 56 90 b9 65 fb 95 bc 65 97 89     .ez..eV..e...e..
    1e44:	bd 65 7b 8e c5 65 b7 97 cb 65 f9 90 cf 65 b0 91     .e{..e...e...e..
    1e54:	d7 65 f8 8a e2 65 f9 8a e5 65 fa 93 e6 65 55 92     .e...e...e...eU.
    1e64:	e7 65 8c 8b e8 65 7c 8e e9 65 81 91 ec 65 7b 8f     .e...e|..e...e{.
    1e74:	ed 65 ae 88 fa 65 a0 89 02 66 56 8d 06 66 a9 8d     .e...e...fV..f..
    1e84:	07 66 b8 8f 0c 66 b9 8f 0e 66 be 96 0f 66 a8 8d     .f...f...f...f..
    1e94:	13 66 d5 88 14 66 cc 90 1f 66 af 90 20 66 66 89     .f...f...f.. ff.
    1ea4:	25 66 74 8f 27 66 86 96 28 66 f0 8d 2d 66 ba 8f     %ft.'f..(f..-f..
    1eb4:	2f 66 a5 90 34 66 e3 9d 3c 66 8b 92 42 66 9e 8e     /f..4f..<f..Bf..
    1ec4:	43 66 57 8d 4b 66 57 90 52 66 4e 8e 66 66 41 8a     CfW.KfW.RfN.ffA.
    1ed4:	69 66 d3 94 6e 66 81 95 6f 66 69 8c 74 66 b0 90     if..nf..ofi.tf..
    1ee4:	76 66 bb 8f 7a 66 71 92 81 66 c5 8b 87 66 c9 89     vf..zfq..f...f..
    1ef4:	91 66 8b 8f 96 66 67 92 97 66 c3 88 a2 66 a8 92     .f...fg..f...f..
    1f04:	a6 66 ef 97 ab 66 62 8e ae 66 e9 95 b4 66 5c 96     .f...fb..f...f\.
    1f14:	c7 66 dc 93 d9 66 8c 8f dc 66 6a 97 dd 66 98 94     .f...f...fj..f..
    1f24:	f2 66 c8 8b f3 66 67 89 f4 66 58 8d f8 66 91 8f     .f...fg..fX..f..
    1f34:	f9 66 82 91 fd 66 5d 91 fe 66 5c 91 ff 66 d6 91     .f...f]..f\..f..
    1f44:	00 67 c5 8d 03 67 f0 98 08 67 8e 8c 09 67 4c 97     .g...g...g...gL.
    1f54:	0b 67 fc 95 0d 67 9e 95 14 67 f1 8d 15 67 bd 92     .g...g...g...g..
    1f64:	17 67 4e 98 1b 67 5d 96 1d 67 a9 92 1f 67 fa 8a     .gN..g]..g...g..
    1f74:	28 67 d8 96 2a 67 a2 96 2b 67 96 96 2c 67 7b 96     (g..*g..+g..,g{.
    1f84:	2d 67 44 8e 31 67 e9 8e 34 67 70 96 3a 67 f7 8a     -gD.1g..4gp.:g..
    1f94:	3d 67 80 8b 46 67 57 9e 49 67 99 90 4e 67 9b 97     =g..FgW.Ig..Ng..
    1fa4:	4f 67 c7 88 50 67 de 8d 51 67 ba 91 53 67 db 8e     Og..Pg..Qg..Sg..
    1fb4:	56 67 f1 8f 5c 67 6d 93 5e 67 58 9e 5f 67 a9 91     Vg..\gm.^gX._g..
    1fc4:	61 67 f0 8f 62 67 db 96 65 67 88 97 6d 67 59 8d     ag..bg..eg..mgY.
    1fd4:	6f 67 74 94 71 67 8c 93 75 67 6e 8b 77 67 66 94     ogt.qg..ugn.wgf.
    1fe4:	7e 67 bc 8f 7f 67 c2 94 87 67 f8 94 90 67 cd 90     ~g...g...g...g..
    1ff4:	95 67 8d 96 97 67 d1 97 9a 67 87 96 9c 67 ca 89     .g...g...g...g..
    2004:	9d 67 7d 8e a0 67 67 98 a2 67 95 90 af 67 cd 8c     .g}..gg..g...g..
    2014:	b6 67 cb 89 c1 67 c6 91 c4 67 bf 95 ca 67 41 95     .g...g...g...gA.
    2024:	cf 67 90 94 d0 67 5e 96 d1 67 b9 8a d3 67 f5 90     .g...g^..g...g..
    2034:	d4 67 5f 8f d8 67 d1 92 da 67 4d 97 f1 67 8c 92     .g_..g...gM..g..
    2044:	f3 67 f6 96 f4 67 c4 8e f5 67 f2 8d fb 67 b8 8d     .g...g...g...g..
    2054:	fe 67 8f 96 ff 67 60 8a 02 68 cc 92 03 68 c8 93     .g...g`..h...h..
    2064:	04 68 68 89 13 68 f0 90 16 68 b2 90 17 68 49 8c     .hh..h...h...hI.
    2074:	21 68 5a 8d 22 68 9c 8a 2a 68 94 8a 34 68 f1 90     !hZ."h..*h..4h..
    2084:	38 68 6a 8a 39 68 aa 8d 3c 68 69 8a 3d 68 cd 8d     8hj.9h..<hi.=h..
    2094:	41 68 85 8c 42 68 6a 8c 43 68 8d 93 48 68 c4 88     Ah..Bhj.Ch..Hh..
    20a4:	50 68 cb 8b 51 68 4b 8c 53 68 ba 8a 54 68 6a 8b     Ph..QhK.Sh..Thj.
    20b4:	5c 68 f7 8d 5d 68 91 96 5f 68 56 8e 67 68 4f 95     \h..]h.._hV.ghO.
    20c4:	76 68 b1 89 81 68 c0 97 85 68 7e 94 93 68 b2 88     vh...h...h~..h..
    20d4:	97 68 5b 8d a2 68 bd 8f a7 68 e6 8c a8 68 9c 97     .h[..h...h...h..
    20e4:	af 68 f2 92 b0 68 42 8a b1 68 ab 8d b5 68 90 9e     .h...hB..h...h..
    20f4:	b6 68 81 8a bc 68 8e 93 c4 68 fc 8a c9 68 c7 96     .h...h...h...h..
    2104:	cb 68 fb 8a cd 68 9e 9e d2 68 5f 96 da 68 49 92     .h...h...h_..hI.
    2114:	df 68 8f 93 ee 68 58 90 f2 68 b1 90 fa 68 bb 8a     .h...hX..h...h..
    2124:	00 69 6f 98 05 69 d6 88 0b 69 b8 96 0d 69 41 90     .io..i...i...iA.
    2134:	0e 69 c5 92 19 69 9a 90 1b 69 91 8a 1c 69 9f 8c     .i...i...i...i..
    2144:	34 69 cc 93 3f 69 d6 92 4a 69 6b 97 53 69 96 95     4i..?i..Jik.Si..
    2154:	55 69 c8 91 5a 69 5e 91 60 69 ed 93 62 69 e8 93     Ui..Zi^.`i..bi..
    2164:	6d 69 c6 8b 6f 69 7c 8f 73 69 80 94 75 69 c9 8b     mi..oi|.si..ui..
    2174:	7c 69 4f 98 7d 69 79 8a 82 69 54 8a 8a 69 e5 8d     |iO.}iy..iT..i..
    2184:	8e 69 7c 89 94 69 50 98 9b 69 59 90 ae 69 c4 9e     .i|..iP..iY..i..
    2194:	c7 69 a0 ea cb 69 5c 8d cc 69 c6 92 cd 69 84 91     .i...i\..i...i..
    21a4:	d8 69 6c 97 d9 69 8a 96 fb 69 ce 92 fd 69 85 91     .il..i...i...i..
    21b4:	0b 6a f3 94 17 6a 94 92 19 6a 57 95 1f 6a be 8f     .j...j...jW..j..
    21c4:	21 6a cd 96 29 6a a0 8c 2a 6a a1 89 2b 6a 7e 8a     !j..)j..*j..+j~.
    21d4:	35 6a bf 8f 39 6a f7 8e 3a 6a 92 8a 3d 6a 4d 92     5j..9j..:j..=jM.
    21e4:	4b 6a b4 8b 58 6a 6b 8b 59 6a f2 9e 5f 6a 40 8b     Kj..Xjk.Yj.._j@.
    21f4:	61 6a c9 93 7f 6a 80 8a 80 6a 68 92 8e 6a e7 8c     aj...j...jh..j..
    2204:	ac 6a 47 9f b8 6a 45 9f bb 6a 42 9f c2 6a 44 9f     .jG..jE..jB..jD.
    2214:	d3 6a 45 98 db 6a f9 8b e8 6a a5 94 04 6b 93 97     .jE..j...j...k..
    2224:	05 6b 4f 9f 1d 6b 54 89 20 6b 87 8c 21 6b 9f 8e     .kO..kT. k..!k..
    2234:	23 6b d3 8b 27 6b a2 89 32 6b 7e 97 3a 6b 5c 8b     #k..'k..2k~.:k\.
    2244:	3d 6b d4 8b 3e 6b bc 8a 4c 6b cc 89 4e 6b 56 92     =k..>k..Lk..NkV.
    2254:	53 6b bd 8a 62 6b 7e 8e 63 6b b3 90 64 6b 9f 8d     Sk..bk~.ck..dk..
    2264:	66 6b 90 95 69 6b e0 95 6a 6b 63 98 6f 6b 95 8e     fk..ik..jkc.ok..
    2274:	73 6b ce 8d 74 6b f0 97 7b 6b 80 8e 86 6b 77 96     sk..tk..{k...kw.
    2284:	89 6b 7d 8f 8a 6b ea 8e 8b 6b 63 8e 96 6b 42 90     .k}..k...kc..kB.
    2294:	b2 6b 72 9f b4 6b a3 89 b5 6b 69 92 ba 6b 45 8e     .kr..k...ki..kE.
    22a4:	bb 6b 6b 8a bf 6b 61 93 c5 6b 42 8b cd 6b ea 95     .kk..ka..kB..k..
    22b4:	ce 6b 88 96 d2 6b c5 93 d4 6b e4 94 d8 6b f9 94     .k...k...k...k..
    22c4:	db 6b d1 96 ec 6b 7b 9f ef 6b 7e 9f 0f 6c 81 8e     .k...k{..k~..l..
    22d4:	11 6c af 96 17 6c 43 8b 23 6c 86 9f 34 6c 85 90     .l...lC.#l..4l..
    22e4:	37 6c 58 95 38 6c 69 89 3e 6c c3 94 40 6c f3 92     7lX.8li.>l..@l..
    22f4:	41 6c 60 8f 42 6c 81 8b 4e 6c c4 94 50 6c ac 8e     Al`.Bl..Nl..Pl..
    2304:	57 6c be 8a 5a 6c 98 89 5d 6c f0 93 5f 6c 5d 8d     Wl..Zl..]l.._l].
    2314:	60 6c 72 92 70 6c bf 91 72 6c 82 8b 7a 6c 88 8c     `lr.pl..rl..zl..
    2324:	7d 6c 44 8b 83 6c 80 97 88 6c be 92 8c 6c d7 93     }lD..l...l...l..
    2334:	93 6c 42 8c 96 6c ab 89 99 6c b9 8d a1 6c 76 96     .lB..l...l...lv.
    2344:	a2 6c f2 91 ab 6c 97 96 b3 6c cd 89 b8 6c a6 95     .l...l...l...l..
    2354:	b9 6c fb 96 bb 6c a1 8e bc 6c c0 8f bf 6c 88 89     .l...l...l...l..
    2364:	c1 6c b5 8b c9 6c f2 90 ca 6c 91 94 cc 6c e5 94     .l...l...l...l..
    2374:	d5 6c 40 96 e1 6c 41 96 e2 6c 67 94 e3 6c 83 8b     .l@..lA..lg..l..
    2384:	e5 6c 44 93 e8 6c 8d 92 f0 6c d7 91 f3 6c 6a 89     .lD..l...l...lj.
    2394:	0b 6d 6d 97 17 6d f4 90 1b 6d 8c 97 1e 6d b4 93     .mm..m...m...m..
    23a4:	25 6d c3 92 29 6d 6b 89 2a 6d 5e 8d 32 6d 46 8f     %m..)mk.*m^.2mF.
    23b4:	3b 6d 88 8a 3e 6d 68 94 41 6d ac 97 44 6d f2 8f     ;m..>mh.Am..Dm..
    23c4:	45 6d f3 90 5c 6d 6c 95 66 6d 59 89 69 6d 5f 8d     Em..\ml.fmY.im_.
    23d4:	6a 6d 51 98 6c 6d 5c 8a 6e 6d 82 95 74 6d 81 97     jmQ.lm\.nm..tm..
    23e4:	77 6d 43 8a 78 6d 5a 90 88 6d c1 8f 8c 6d 4f 97     wmC.xmZ..m...mO.
    23f4:	99 6d dc 97 9b 6d 93 93 9c 6d c0 93 af 6d 55 8a     .m...m...m...mU.
    2404:	b2 6d 74 89 bc 6d c1 97 c0 6d 84 97 cb 6d d2 97     .mt..m...m...m..
    2414:	d1 6d 69 8f d8 6d 91 93 e1 6d 57 92 eb 6d fa 88     .mi..m...mW..m..
    2424:	f1 6d 5b 90 f3 6d 7e 8f f5 6d a3 95 f7 6d ac 8d     .m[..m~..m...m..
    2434:	fb 6d 59 93 05 6e b4 90 07 6e 89 8a 08 6e cf 8d     .mY..n...n...n..
    2444:	09 6e c2 8f 0b 6e 61 8f 13 6e 6b 8c 1a 6e 8d 8f     .n...na..nk..n..
    2454:	1b 6e b8 8c 20 6e 94 8b 21 6e 6e 93 25 6e ad 88     .n.. n..!nn.%n..
    2464:	26 6e 51 89 29 6e b7 89 2c 6e aa 91 2f 6e 60 8d     &nQ.)n..,n../n`.
    2474:	4a 6e a9 96 56 6e ce 8c 58 6e c3 8f 5b 6e 58 92     Jn..Vn..Xn..[nX.
    2484:	67 6e 4e 97 6f 6e 92 93 7e 6e 70 98 7f 6e bc 8e     gnN.on..~np..n..
    2494:	80 6e 9e 96 8c 6e ac 94 90 6e b9 8c 96 6e 80 8f     .n...n...n...n..
    24a4:	9c 6e ad 97 9d 6e 61 8d a2 6e ec 88 b6 6e 6e 97     .n...na..n...nn.
    24b4:	ba 6e 4d 93 c5 6e c5 96 cb 6e a0 8e cc 6e fc 9f     .nM..n...n...n..
    24c4:	d1 6e 8a 8a d3 6e e6 9f dd 6e ea 91 de 6e d8 91     .n...n...n...n..
    24d4:	f2 6e f8 9f f4 6e 48 93 01 6f 99 8b 02 6f 59 95     .n...nH..o...oY.
    24e4:	06 6f bd 8e 09 6f 97 8d 0f 6f 52 98 11 6f f2 9f     .o...o...oR..o..
    24f4:	14 6f 89 89 15 6f 86 91 20 6f 99 94 22 6f bf 8a     .o...o.. o.."o..
    2504:	23 6f f8 97 2b 6f 9f 96 2c 6f d0 92 31 6f f9 9f     #o..+o..,o..1o..
    2514:	38 6f 51 91 45 6f c1 8a 54 6f 89 8c 5c 6f f6 90     8oQ.Eo..To..\o..
    2524:	5f 6f 83 8a 64 6f 81 8f 6e 6f aa 92 70 6f d7 92     _o..do..no..po..
    2534:	84 6f 9f 90 97 6f c0 8a a4 6f 56 e0 b1 6f 62 93     .o...o...oV..ob.
    2544:	c0 6f 83 8c c1 6f f7 91 c3 6f 5a 94 e0 6f 8a 8d     .o...o...oZ..o..
    2554:	e1 6f 47 94 eb 6f 94 97 ef 6f f3 91 15 70 6d 95     .oG..o...o...pm.
    2564:	1e 70 d2 93 26 70 95 92 27 70 eb 91 2c 70 a3 90     .p..&p..'p..,p..
    2574:	4c 70 f3 9f 58 70 e5 93 6b 70 ce 89 6f 70 94 93     Lp..Xp..kp..op..
    2584:	70 70 44 8a 78 70 84 8b 7c 70 dc 8e 7d 70 d0 8d     ppD.xp..|p..}p..
    2594:	89 70 46 98 8a 70 86 90 8e 70 8a 89 92 70 75 e0     .pF..p...p...pu.
    25a4:	99 70 74 e0 ac 70 78 e0 ad 70 59 92 b8 70 79 e0     .pt..px..pY..py.
    25b4:	b9 70 5f 93 ba 70 d7 88 c8 70 f3 97 cf 70 47 89     .p_..p...p...pG.
    25c4:	d9 70 80 e0 dd 70 7e e0 f9 70 42 96 09 71 81 e0     .p...p~..pB..q..
    25d4:	14 71 8b 89 19 71 84 e0 1a 71 b0 95 1c 71 83 e0     .q...q...q...q..
    25e4:	21 71 b3 96 26 71 c5 8f 36 71 52 91 3c 71 c4 8f     !q..&q..6qR.<q..
    25f4:	49 71 f9 97 4c 71 8a e0 4e 71 f7 90 59 71 8c 89     Iq..Lq..Nq..Yq..
    2604:	64 71 81 94 67 71 c6 8f 69 71 cf 94 6e 71 cf 8e     dq..gq..iq..nq..
    2614:	7d 71 f8 90 8a 71 46 8c 8f 71 8d e0 94 71 6f 97     }q...qF..q...qo.
    2624:	9f 71 6e 8f a8 71 91 e0 b1 71 4d 94 c3 71 52 94     .qn..q...qM..qR.
    2634:	c8 71 95 93 c9 71 97 e0 ce 71 99 e0 d0 71 d3 97     .q...q...q...q..
    2644:	d2 71 96 e0 d5 71 8d 89 d7 71 93 e0 e5 71 87 91     .q...q...q...q..
    2654:	e6 71 57 8e ed 71 43 90 fb 71 8e e0 06 72 9a 94     .qW..qC..q...r..
    2664:	2a 72 dc 92 2c 72 a6 e0 2d 72 a5 e0 32 72 a8 e0     *r..,r..-r..2r..
    2674:	35 72 dd 8e 36 72 83 95 3a 72 ea 96 3d 72 75 91     5r..6r..:r..=ru.
    2684:	3e 72 a2 8e 47 72 d0 95 48 72 c5 94 4c 72 76 94     >r..Gr..Hr..Lrv.
    2694:	52 72 ab 92 59 72 e5 89 5b 72 8d 8b 5d 72 c4 96     Rr..Yr..[r..]r..
    26a4:	5f 72 b4 96 61 72 b2 89 62 72 53 98 67 72 71 96     _r..ar..brS.grq.
    26b4:	69 72 a8 95 72 72 b5 90 79 72 c1 93 7d 72 a1 8c     ir..rr..yr..}r..
    26c4:	80 72 d2 8d a0 72 5d 8b ac 72 a2 8c af 72 c6 94     .r...r]..r...r..
    26d4:	b6 72 f3 8f c2 72 b6 8b d0 72 cf 8c d7 72 e7 8b     .r...r...r...r..
    26e4:	d9 72 5f 91 db 72 9d 8d e1 72 c2 e0 e2 72 c0 e0     .r_..r...r...r..
    26f4:	e9 72 eb 8e ec 72 c6 93 ed 72 b7 8b f8 72 4b 92     .r...r...r...rK.
    2704:	f9 72 c3 e0 fc 72 54 98 fd 72 82 94 1b 73 d2 96     .r...rT..r...s..
    2714:	1f 73 c2 97 25 73 ce e0 2a 73 96 92 2b 73 4c 94     .s..%s..*s..+sL.
    2724:	2e 73 a3 8c 36 73 50 97 37 73 51 97 3e 73 cf e0     .s..6sP.7sQ.>s..
    2734:	3f 73 8e 89 44 73 96 8d 45 73 82 8e 63 73 62 8f     ?s..Ds..Es..csb.
    2744:	68 73 d5 e0 70 73 d6 e0 72 73 6c 8a 84 73 ba 8c     hs..ps..rsl..s..
    2754:	87 73 a6 97 89 73 ca 8b 8b 73 a4 89 96 73 e8 8b     .s...s...s...s..
    2764:	a9 73 df 8a b2 73 e6 97 c0 73 df e0 c2 73 cf 89     .s...s...s...s..
    2774:	ca 73 58 8e cd 73 bf 92 e0 73 ec 8e ea 73 5d 8c     .sX..s...s...s].
    2784:	ed 73 c7 94 fe 73 bb 8c 03 74 85 8b 06 74 9d 97     .s...s...t...t..
    2794:	09 74 ae 97 22 74 f4 91 33 74 d4 97 34 74 d5 8b     .t.."t..3t..4t..
    27a4:	35 74 fa 94 36 74 69 94 5a 74 e8 8c 5b 74 6c 89     5t..6ti.Zt..[tl.
    27b4:	5e 74 90 90 60 74 da 97 6a 74 f3 e0 73 74 ba 8d     ^t..`t..jt..st..
    27c4:	83 74 9e 97 b0 74 c2 8a bd 74 a3 8e dc 74 5a 89     .t...t...t...tZ.
    27d4:	e2 74 5a 95 e6 74 a2 8a f6 74 72 95 11 75 99 8d     .tZ..t...tr..u..
    27e4:	18 75 c3 8a 1a 75 72 90 1c 75 5b 93 1f 75 b6 90     .u...ur..u[..u..
    27f4:	23 75 59 8e 25 75 99 89 26 75 53 e1 28 75 70 97     #uY.%u..&uS.(up.
    2804:	2b 75 e1 95 30 75 63 93 31 75 52 97 32 75 62 8d     +u..0uc.1uR.2ub.
    2814:	33 75 5c 90 37 75 6a 92 3a 75 ac 92 3b 75 e6 89     3u\.7uj.:u..;u..
    2824:	46 75 5b e1 4c 75 45 8a 4f 75 d8 88 51 75 a8 94     Fu[.LuE.Ou..Qu..
    2834:	54 75 c8 94 59 75 af 97 5c 75 7b 92 5d 75 a4 90     Tu..Yu..\u{.]u..
    2844:	60 75 a9 94 62 75 4c 95 65 75 aa 97 66 75 6c 8c     `u..buL.eu..ful.
    2854:	6a 75 d4 94 70 75 d9 88 73 75 f4 8f 77 75 eb 93     ju..pu..su..wu..
    2864:	7f 75 45 8b 8b 75 44 95 8e 75 61 91 8f 75 60 91     .uE..uD..ua..u`.
    2874:	91 75 5e 8b ab 75 75 89 b2 75 e6 94 b5 75 72 e1     .u^..uu..u...ur.
    2884:	b9 75 5d 90 bd 75 73 e1 be 75 be 8e c5 75 61 95     .u]..us..u...ua.
    2894:	c7 75 c7 8f d2 75 79 e1 d4 75 a4 8e d5 75 ad 8d     .u...uy..u...u..
    28a4:	d8 75 97 93 db 75 c9 92 e2 75 9f 97 e9 75 89 91     .u...u...u...u..
    28b4:	f4 75 73 92 42 76 c3 97 4c 76 e0 8a 52 76 fc 96     .us.Bv..Lv..Rv..
    28c4:	56 76 c8 95 7a 76 ad 94 7b 76 6f 93 7d 76 92 94     Vv..zv..{vo.}v..
    28d4:	7e 76 53 95 84 76 49 93 86 76 46 8a 87 76 63 8d     ~vS..vI..vF..vc.
    28e4:	90 76 48 8e ae 76 e7 94 bf 76 4d 8e c3 76 75 94     .vH..v...vM..vu.
    28f4:	c6 76 7e 96 c8 76 6d 89 ca 76 76 89 d7 76 90 93     .v~..vm..vv..v..
    2904:	db 76 b7 90 df 76 bf 96 e3 76 c4 8a e4 76 d5 94     .v...v...v...v..
    2914:	ee 76 da 96 f2 76 d3 96 f4 76 bc 92 f8 76 8a 91     .v...v...v...v..
    2924:	fe 76 82 8f 01 77 c8 8f 09 77 fb 94 0b 77 c5 8a     .v...w...w...w..
    2934:	0c 77 a7 8c 1f 77 5e 90 20 77 b0 96 37 77 c5 e1     .w...w^. w..7w..
    2944:	3a 77 ad 92 3c 77 e1 8a 40 77 85 92 61 77 87 90     :w..<w..@w..aw..
    2954:	63 77 c2 93 66 77 72 96 68 77 c9 e1 6b 77 ca e1     cw..fwr.hw..kw..
    2964:	7e 77 ce e1 91 77 d2 e1 a5 77 cb 95 ac 77 75 8f     ~w...w...w...wu.
    2974:	ad 77 c4 97 b3 77 b5 93 bc 77 d9 e1 db 77 b5 96     .w...w...w...w..
    2984:	e2 77 ee 96 e5 77 6d 92 e7 77 8a 94 e9 77 e9 8b     .w...wm..w...w..
    2994:	ed 77 5a 92 ee 77 e2 e1 ef 77 b8 8b f3 77 ce 90     .wZ..w...w...w..
    29a4:	02 78 bb 8d 12 78 e5 e1 14 78 a4 8c 15 78 d3 8d     .x...x...x...x..
    29b4:	25 78 75 93 26 78 d4 8d 27 78 6d 8b 32 78 43 96     %xu.&x..'xm.2xC.
    29c4:	34 78 6a 94 3a 78 76 93 3f 78 7b 8d 45 78 e9 e1     4xj.:xv.?x{.Ex..
    29d4:	5d 78 c9 8f 6b 78 b0 97 6c 78 64 8d 6f 78 a5 8c     ]x..kx..lxd.ox..
    29e4:	72 78 a1 94 7c 78 ed e1 81 78 e9 8c 87 78 f4 92     rx..|x...x...x..
    29f4:	8d 78 56 8a 91 78 e8 94 93 78 4f 89 95 78 ea 8d     .xV..x...xO..x..
    2a04:	97 78 71 98 a7 78 c9 95 a9 78 d7 90 af 78 f3 e1     .xq..x...x...x..
    2a14:	ba 78 6d 8a c1 78 a5 8e d0 78 d6 94 e8 78 81 96     .xm..x...x...x..
    2a24:	ef 78 e9 88 01 79 ca 8f 0e 79 62 91 2b 79 49 e2     .x...y...yb.+yI.
    2a34:	3a 79 a6 8e 3c 79 e7 97 3e 79 d0 8e 40 79 4a e2     :y..<y..>y..@yJ.
    2a44:	41 79 56 8c 47 79 5f 8b 48 79 46 8b 49 79 83 8e     AyV.Gy_.HyF.Iy..
    2a54:	50 79 53 97 53 79 50 e2 56 79 63 91 57 79 4c e2     PyS.SyP.Vyc.WyL.
    2a64:	5d 79 6a 8f 5e 79 5f 90 5f 79 4d e2 60 79 4b e2     ]yj.^y_._yM.`yK.
    2a74:	62 79 49 94 65 79 cb 8f 68 79 5b 95 6d 79 d5 8d     byI.ey..hy[.my..
    2a84:	77 79 98 93 81 79 d6 8b 84 79 5c 98 85 79 54 91     wy...y...y\..yT.
    2a94:	8a 79 53 e2 8d 79 d0 89 8e 79 f5 92 8f 79 9f 95     .yS..y...y...y..
    2aa4:	a6 79 9a 8b b0 79 48 94 bd 79 d7 8b be 79 d1 89     .y...yH..y...y..
    2ab4:	bf 79 c3 93 c0 79 47 8f c1 79 84 8e cb 79 48 8f     .y...yG..y...yH.
    2ac4:	d1 79 c8 89 d2 79 62 95 d8 79 e9 94 df 79 64 91     .y...yb..y...yd.
    2ad4:	e4 79 89 94 e6 79 60 90 e9 79 81 92 f0 79 cc 8f     .y...y`..y...y..
    2ae4:	fb 79 da 88 00 7a 48 8b 0b 7a f6 92 0e 7a c5 90     .y...zH..z...z..
    2af4:	14 7a ab 96 17 7a 42 95 1a 7a 74 92 1c 7a c5 97     .z...zB..zt..z..
    2b04:	1f 7a 67 e2 2e 7a ed 8e 32 7a ee 88 3c 7a d2 89     .zg..z..2z..<z..
    2b14:	3d 7a 6d 8c 3f 7a 65 8d 40 7a 92 8d 42 7a e4 95     =zm.?ze.@z..Bz..
    2b24:	46 7a 73 96 4d 7a cf 90 4e 7a 6e 89 4f 7a b8 89     Fzs.Mz..Nzn.Oz..
    2b34:	50 7a aa 88 57 7a 6e e2 63 7a f5 8f 6b 7a 6e 8a     Pz..Wzn.cz..kzn.
    2b44:	74 7a 8a 8c 76 7a 86 8b 7a 7a f3 8b 7f 7a fa 90     tz..vz..zz...z..
    2b54:	81 7a cb 93 83 7a de 90 84 7a f3 8d 92 7a 82 92     .z...z...z...z..
    2b64:	93 7a 8b 91 9f 7a 41 8c aa 7a 45 8c ae 7a 87 8b     .z...zA..zE..z..
    2b74:	af 7a 71 97 ba 7a 4d 89 c3 7a 96 8a cb 7a a7 97     .zq..zM..z...z..
    2b84:	dc 7a b3 97 e0 7a cd 8f e3 7a 76 8f e5 7a b6 93     .z...z...zv..z..
    2b94:	ea 7a 47 92 ef 7a 5b 92 f6 7a a3 8b f9 7a 7c 92     .zG..z[..z...z|.
    2ba4:	fa 7a b1 8e ff 7a c6 8a 08 7b 88 8b 11 7b ce 8f     .z...z...{...{..
    2bb4:	1b 7b 4a 93 20 7b 7d 8a 25 7b 79 90 26 7b 84 95     .{J. {}.%{y.&{..
    2bc4:	2c 7b e6 91 39 7b f9 8d 46 7b 4d 95 48 7b a4 94     ,{..9{..F{M.H{..
    2bd4:	49 7b 99 93 4b 7b d8 8b 4d 7b a1 e2 4f 7b b3 94     I{..K{..M{..O{..
    2be4:	50 7b 9e e2 51 7b 7d 92 52 7b 9b 93 54 7b 9a 93     P{..Q{}.R{..T{..
    2bf4:	56 7b f4 8d 86 7b cd 95 87 7b d3 89 8b 7b b3 e2     V{...{...{...{..
    2c04:	92 7b b4 e2 94 7b 93 94 95 7b a5 96 97 7b 5a 8e     .{...{...{...{Z.
    2c14:	a1 7b c7 8a aa 7b 5c 92 ad 7b fb 90 b1 7b a0 94     .{...{\..{...{..
    2c24:	b8 7b a2 94 c0 7b df 90 c4 7b cd 94 c7 7b d1 95     .{...{...{...{..
    2c34:	c9 7b 7a 92 e0 7b c2 8e e4 7b c4 93 ed 7b 55 98     .{z..{...{...{U.
    2c44:	21 7c c8 8a 38 7c f4 94 3e 7c fa 97 3f 7c eb 95     !|..8|..>|..?|..
    2c54:	4d 7c d0 90 73 7c c4 95 7e 7c e0 96 81 7c cc 8b     M|..s|..~|...|..
    2c64:	82 7c 48 8c 89 7c b2 95 8b 7c 88 90 8d 7c ae 96     .|H..|...|...|..
    2c74:	92 7c b1 97 95 7c 94 94 97 7c 65 91 98 7c 53 94     .|...|...|e..|S.
    2c84:	9b 7c 6c 8f 9f 7c be 88 a5 7c 9f 8a a7 7c cf 8f     .|l..|...|...|..
    2c94:	bd 7c ee e2 be 7c b8 90 c0 7c ef e2 ca 7c d0 8c     .|...|...|...|..
    2ca4:	ce 7c 57 91 d6 7c 9c 93 de 7c b3 95 df 7c 8c 91     .|W..|...|...|..
    2cb4:	e0 7c 66 8d e7 7c c6 97 f8 7c 85 8e fb 7c 6e 8c     .|f..|...|...|n.
    2cc4:	fe 7c 8a 8b 00 7d 49 8b 04 7d f1 96 05 7d 67 8d     .|...}I..}...}g.
    2cd4:	0b 7d e4 96 0d 7d 5b 94 10 7d 52 95 14 7d 83 8f     .}...}[..}R..}..
    2ce4:	17 7d d1 8e 18 7d 68 8d 19 7d 86 8e 1a 7d 89 8b     .}...}h..}...}..
    2cf4:	1b 7d b4 95 20 7d 66 91 21 7d 61 96 22 7d f5 8d     .}.. }f.!}a."}..
    2d04:	2b 7d 87 8e 2c 7d db 92 2f 7d dd 97 30 7d d7 8d     +}..,}../}..0}..
    2d14:	33 7d 61 90 39 7d d0 8f 3a 7d ae 8d 42 7d 49 8f     3}a.9}..:}..B}I.
    2d24:	43 7d bc 8c 44 7d 67 91 46 7d 4a e3 4c 7d 6f 8c     C}..D}g.F}J.L}o.
    2d34:	50 7d 8b 8c 5e 7d 69 8d 61 7d 8d 97 62 7d ba 88     P}..^}i.a}..b}..
    2d44:	66 7d 8b 8b 68 7d 4f e3 71 7d 9d 93 75 7d 47 8a     f}..h}O.q}..u}G.
    2d54:	76 7d e2 90 79 7d a6 8c 99 7d 70 8c 9a 7d b1 91     v}..y}...}p..}..
    2d64:	9c 7d 8e 91 ac 7d f8 8e ad 7d db 88 b1 7d 6a 8d     .}...}...}...}j.
    2d74:	b2 7d d4 96 b4 7d d4 92 bb 7d 5d 92 be 7d bb 88     .}...}...}]..}..
    2d84:	bf 7d c8 96 ca 7d d9 8b cb 7d ea 94 cf 7d 8d 91     .}...}...}...}..
    2d94:	d1 7d ce 97 d2 7d 8f 8f da 7d fc 90 e0 7d f7 92     .}...}...}...}..
    2da4:	e8 7d d2 95 e9 7d c9 8a ec 7d c9 96 ef 7d dc 88     .}...}...}...}..
    2db4:	f4 7d fb 97 fb 7d 6b e3 01 7e 8f 89 04 7e ea 93     .}...}k..~...~..
    2dc4:	0a 7e 6f e3 1b 7e 9b 94 1e 7e c8 8e 23 7e 70 e3     .~o..~...~..#~p.
    2dd4:	26 7e 63 8f 2b 7e 44 96 2e 7e 6b 8f 3e 7e d1 90     &~c.+~D..~k.>~..
    2de4:	41 7e c9 94 4a 7e 40 91 4b 7e 71 8c 4d 7e 4a 8f     A~..J~@.K~q.M~J.
    2df4:	54 7e 44 90 55 7e 55 91 6d 7e 9a 96 70 7e 4a 8c     T~D.U~U.m~..p~J.
    2e04:	82 7e 5b 8e 8f 7e 5a 93 36 7f ca 8a 6a 7f df 8d     .~[..~Z.6...j...
    2e14:	6b 7f 72 8c 6e 7f 75 92 70 7f b1 94 72 7f 90 8f     k.r.n.u.p...r...
    2e24:	75 7f 6c 94 77 7f eb 94 85 7f 85 97 8a 7f 72 97     u.l.w.........r.
    2e34:	8e 7f fc 94 a4 7f 51 8c a8 7f 41 91 a9 7f 60 8b     ......Q...A...`.
    2e44:	bd 7f 48 89 c1 7f a5 89 c5 7f c0 e3 c6 7f c1 e3     ..H.............
    2e54:	cc 7f 82 97 d2 7f 4b 8f d4 7f c4 e3 e0 7f 89 90     ......K.........
    2e64:	e6 7f c6 e3 eb 7f e3 8a f0 7f cb 8a fb 7f 7c 96     ..............|.
    2e74:	fc 7f 83 97 00 80 73 97 01 80 56 98 03 80 6c 8d     ......s...V...l.
    2e84:	05 80 d2 8e 0c 80 a7 8e 10 80 cf 91 12 80 ce e3     ................
    2e94:	15 80 6b 8d 17 80 d5 96 33 80 a8 8e 36 80 eb 96     ..k.....3...6...
    2ea4:	3d 80 5e 92 4a 80 d6 e3 56 80 b9 90 5a 80 da e3     =.^.J...V...Z...
    2eb4:	5e 80 b7 95 61 80 8f 91 6f 80 fc 97 73 80 de e3     ^...a...o...s...
    2ec4:	74 80 ae 92 76 80 e1 e3 77 80 45 90 7e 80 57 98     t...v...w.E.~.W.
    2ed4:	87 80 a3 94 89 80 f7 93 8b 80 5d 98 8c 80 a7 94     ..........].....
    2ee4:	96 80 d1 8f 98 80 49 95 9b 80 e8 e3 9d 80 cc 8a     ......I.........
    2ef4:	a1 80 d2 8c a2 80 88 8e a5 80 ec 94 a9 80 a8 8c     ................
    2f04:	aa 80 62 96 af 80 6d 8d b1 80 6e 8d b2 80 e7 88     ..b...m...n.....
    2f14:	b4 80 e6 8d ba 80 78 94 c3 80 dd 88 c6 80 5f 92     ......x......._.
    2f24:	cc 80 77 94 ce 80 d9 91 da 80 f3 e3 de 80 45 96     ..w...........E.
    2f34:	e1 80 d3 8c e4 80 fb 88 f1 80 f7 e3 f4 80 b7 93     ................
    2f44:	f8 80 b9 8b fd 80 5c 94 02 81 89 8e 05 81 ba 8b     ......\.........
    2f54:	06 81 c6 90 07 81 65 98 08 81 ac 96 0a 81 d2 90     ......e.........
    2f64:	1a 81 72 8b 31 81 45 92 33 81 5d 94 39 81 af 92     ..r.1.E.3.].9...
    2f74:	4b 81 fc e3 4e 81 74 90 50 81 85 95 54 81 6f 8d     K...N.t.P...T.o.
    2f84:	55 81 72 98 5f 81 54 e4 6b 81 ee 8e 70 81 98 8d     U.r._.T.k...p...
    2f94:	78 81 b0 92 79 81 a0 95 7a 81 42 91 7f 81 da 91     x...y...z.B.....
    2fa4:	8f 81 70 8d 9a 81 86 95 9c 81 8c 96 9d 81 47 95     ..p...........G.
    2fb4:	a0 81 50 e4 a8 81 63 96 b3 81 56 91 b5 81 58 e4     ..P...c...V...X.
    2fc4:	bf 81 5e 94 c6 81 b0 89 d3 81 9f 91 e3 81 62 90     ..^...........b.
    2fd4:	e5 81 e7 89 e8 81 d5 97 ea 81 a9 8e ed 81 4c 8f     ..............L.
    2fe4:	f3 81 8a 8e f4 81 76 92 fc 81 50 89 08 82 bb 8b     ......v...P.....
    2ff4:	0c 82 e3 90 0e 82 c9 8e 10 82 72 e4 17 82 dc 95     ..........r.....
    3004:	18 82 da 8a 1b 82 43 91 1c 82 77 8f 1e 82 91 95     ......C...w.....
    3014:	1f 82 4d 8f 2a 82 71 8d 2c 82 ca 94 35 82 c7 91     ..M.*.q.,...5...
    3024:	36 82 95 94 37 82 bd 8c 39 82 44 91 47 82 f8 92     6...7...9.D.G...
    3034:	5a 82 7c e4 64 82 7e e4 66 82 cd 8a 6e 82 af 8d     Z.|.d.~.f...n...
    3044:	6f 82 c7 97 72 82 46 90 76 82 90 89 8b 82 f0 88     o...r.F.v.......
    3054:	99 82 87 95 9d 82 c5 8e a5 82 48 8a a6 82 b0 88     ..........H.....
    3064:	ad 82 6d 94 af 82 63 90 b1 82 d4 89 b3 82 46 96     ..m...c.......F.
    3074:	b8 82 7c 8c b9 82 da 8b bd 82 e8 89 c5 82 a1 8a     ..|.............
    3084:	d1 82 91 89 d3 82 e8 97 d4 82 db 91 d7 82 63 95     ..............c.
    3094:	db 82 d5 89 e5 82 e1 8e e6 82 ea 8b e7 82 97 92     ................
    30a4:	eb 82 cf 93 f1 82 70 89 fa 82 95 e4 02 83 ce 96     ......p.........
    30b4:	04 83 d6 89 05 83 9d 8a 0e 83 73 8c 1c 83 a9 88     ..........s.....
    30c4:	28 83 ef 88 2b 83 a9 e4 34 83 a0 e4 36 83 83 92     (...+...4...6...
    30d4:	38 83 f9 91 39 83 a5 e4 40 83 a4 e4 49 83 90 91     8...9...@...I...
    30e4:	4a 83 74 8c 4f 83 60 89 52 83 72 8d 58 83 91 91     J.t.O.`.R.r.X...
    30f4:	77 83 d7 89 7b 83 ac 89 9e 83 ce 8a a2 83 b0 e4     w...{...........
    3104:	ab 83 9c 94 b1 83 89 97 c5 83 9b 90 ca 83 65 8b     ..............e.
    3114:	cc 83 db 8b d3 83 d9 89 d6 83 d2 8f dc 83 d8 8d     ................
    3124:	df 83 70 93 e9 83 ec 95 ef 83 d8 89 f0 83 d4 8c     ..p.............
    3134:	f1 83 48 95 04 84 b8 93 0c 84 47 96 0e 84 de 88     ..H.......G.....
    3144:	29 84 8b 94 31 84 9e 8a 3d 84 8e 97 49 84 74 97     )...1...=...I.t.
    3154:	4e 84 a8 97 57 84 98 92 5b 84 8b 8a 61 84 92 95     N...W...[...a...
    3164:	63 84 9f 93 66 84 af 88 6c 84 92 91 71 84 4b 94     c...f...l...q.K.
    3174:	75 84 a8 88 7a 84 98 95 8b 84 d3 8f 90 84 4e 8f     u...z.........N.
    3184:	94 84 aa 8e 99 84 d6 96 9c 84 66 95 9f 84 e5 e4     ..........f.....
    3194:	b2 84 97 8a b8 84 f6 8f bb 84 e8 e4 bc 84 93 91     ................
    31a4:	c4 84 7e 92 c9 84 75 97 cb 84 57 8a d1 84 aa 96     ..~...u...W.....
    31b4:	ec 84 48 96 ee 84 40 98 00 85 c1 8e 11 85 cc 95     ..H...@.........
    31c4:	13 85 a0 96 1a 85 55 89 26 85 d3 92 2d 85 fc 88     ......U.&...-...
    31d4:	35 85 a0 91 3d 85 c1 95 43 85 d7 94 49 85 d4 8f     5...=...C...I...
    31e4:	4a 85 c7 8e 4e 85 bc 8b 57 85 99 95 68 85 6e 98     J...N...W...h.n.
    31f4:	69 85 a0 93 6a 85 93 95 7e 85 51 e5 84 85 96 94     i...j...~.Q.....
    3204:	97 85 92 89 99 85 e3 93 a6 85 45 91 a9 85 46 8e     ..........E...F.
    3214:	aa 85 64 90 ab 85 4f 8c ac 85 f2 96 ae 85 f7 96     ..d...O.........
    3224:	af 85 92 8f c1 85 6d 98 cd 85 95 97 e4 85 a1 93     ......m.........
    3234:	e9 85 cb 94 f7 85 93 8f fb 85 94 91 07 86 68 91     ..............h.
    3244:	2d 86 96 97 4e 86 d5 8c 50 86 73 8b 5a 86 95 8b     -...N...P.s.Z...
    3254:	5c 86 b8 97 5e 86 f1 8b 6b 86 8e 92 79 86 f8 93     \...^...k...y...
    3264:	7b 86 b8 88 8a 86 e1 89 95 86 5c 8e a4 86 61 94     {.........\...a.
    3274:	c7 86 d6 8e cb 86 60 92 cd 86 75 8c ce 86 61 8a     ......`...u...a.
    3284:	d9 86 5e 8a db 86 81 e5 e4 86 b8 94 ed 86 67 95     ..^...........g.
    3294:	ee 86 d8 94 f8 86 fb 91 f9 86 8c e5 fe 86 e9 89     ................
    32a4:	02 87 49 96 18 87 77 92 1c 87 a8 96 49 87 e4 90     ..I...w.....I...
    32b4:	4b 87 58 98 55 87 49 90 66 87 da 89 76 87 b1 92     K.X.U.I.f...v...
    32c4:	7f 87 88 94 82 87 a5 e5 8d 87 5a 97 a2 87 a3 e5     ..........Z.....
    32d4:	ba 87 86 97 f2 87 b3 e5 f9 87 49 8a fb 87 61 8b     ..........I...a.
    32e4:	05 88 a2 e5 22 88 bf e5 40 88 8c 8c 46 88 4f 8f     ...."...@...F.O.
    32f4:	4c 88 73 8d 53 88 70 8f 57 88 58 8a 5b 88 71 89     L.s.S.p.W.X.[.q.
    3304:	5d 88 d5 8f 61 88 74 8d 63 88 df 88 68 88 5c 95     ]...a.t.c...h.\.
    3314:	70 88 8a 90 77 88 8f 92 7f 88 dc 8b 88 88 55 8c     p...w.........U.
    3324:	8b 88 dc 91 96 88 b3 91 a2 88 d9 e5 ab 88 ed 94     ................
    3334:	b4 88 d1 8c b7 88 bf 88 c1 88 d9 8d c2 88 f4 97     ................
    3344:	c5 88 95 91 cf 88 a0 97 d4 88 e1 e5 d5 88 54 97     ..............T.
    3354:	dc 88 e2 95 df 88 be 8d e1 88 a1 97 f3 88 d6 8f     ................
    3364:	f8 88 87 97 fd 88 bb 90 fe 88 9e 90 07 89 a1 95     ................
    3374:	10 89 8c 8a 12 89 4a 96 1d 89 fa e5 56 89 a6 89     ......J.....V...
    3384:	5e 89 fc e5 5f 89 dd 8b 66 89 40 e6 72 89 50 8f     ^..._...f.@.r.P.
    3394:	77 89 46 e6 7f 89 bc 90 81 89 76 97 86 89 a2 95     w.F.......v.....
    33a4:	87 89 65 94 8b 89 a9 8c 8f 89 4b 8b 96 89 8b 8e     ..e.......K.....
    33b4:	97 89 60 94 9a 89 6f 8a a7 89 97 97 aa 89 65 90     ..`...o.......e.
    33c4:	b3 89 cf 8a d2 89 70 8a e3 89 f0 89 e6 89 47 90     ......p.......G.
    33d4:	00 8a be 8c 02 8a f9 92 08 8a 76 8c 0a 8a 75 90     ..........v...u.
    33e4:	0e 8a a2 93 13 8a 50 8c 17 8a f5 91 18 8a 4c 8b     ......P.......L.
    33f4:	1b 8a 61 e6 1d 8a 62 e6 1f 8a d7 8f 23 8a 8d 8c     ..a...b.....#...
    3404:	2a 8a 4b 96 2d 8a dd 90 31 8a 96 8b 33 8a f3 96     *.K.-...1...3...
    3414:	34 8a 69 91 36 8a 64 e6 3a 8a 66 90 3b 8a 90 92     4.i.6.d.:.f.;...
    3424:	3c 8a d8 8f 50 8a bc 8d 51 8a c0 91 54 8a d9 8f     <...P...Q...T...
    3434:	55 8a 5d 95 5e 8a 8c 8e 60 8a 72 89 63 8a 77 8c     U.].^...`.r.c.w.
    3444:	66 8a 8e 8e 69 8a 8d 8e 6b 8a 6c 98 6e 8a 46 91     f...i...k.l.n.F.
    3454:	70 8a 6c 8b 71 8a 62 98 72 8a 59 8a 73 8a da 8f     p.l.q.b.r.Y.s...
    3464:	87 8a d6 8c 89 8a 5f 97 8c 8a 8f 8e 8d 8a 46 94     ......_.......F.
    3474:	93 8a be 90 95 8a 61 92 98 8a 55 97 9e 8a ea 8c     ......a...U.....
    3484:	a0 8a bd 90 a4 8a eb 8c ac 8a e0 90 ad 8a c7 93     ................
    3494:	b0 8a 4e 92 b2 8a db 89 b9 8a ee 94 bc 8a 62 8b     ..N...........b.
    34a4:	bf 8a b2 92 c7 8a 6b 92 cb 8a bf 90 cc 8a d0 8a     ......k.........
    34b4:	cd 8a 79 e6 cf 8a 7a 90 d2 8a c8 97 d6 8a 5f 98     ..y...z......._.
    34c4:	dc 8a b3 92 e6 8a fa 92 e7 8a 7e e6 eb 8a 7c e6     ..........~...|.
    34d4:	ed 8a 40 97 ee 8a 90 8e f8 8a 94 8f fa 8a bf 8c     ..@.............
    34e4:	fe 8a f8 91 00 8b 64 96 01 8b 79 89 02 8b e0 88     ......d...y.....
    34f4:	04 8b a3 93 0e 8b e4 93 19 8b aa 8c 1b 8b 75 8d     ..............u.
    3504:	1d 8b d3 8e 21 8b 77 97 2c 8b 54 95 33 8b 90 e6     ....!.w.,.T.3...
    3514:	39 8b de 8b 49 8b 9a e6 58 8b af 8e 5c 8b 88 95     9...I...X...\...
    3524:	66 8b 78 8c 70 8b 63 8b 72 8b f7 8f 77 8b ec 8c     f.x.p.c.r...w...
    3534:	83 8b 5d 8e 90 8b 51 8f 37 8c 4a 92 46 8c a4 93     ..]...Q.7.J.F...
    3544:	4a 8c 4c 96 5a 8c d8 93 61 8c db 8f 6a 8c 8b 8d     J.L.Z...a...j...
    3554:	79 8c 5e 95 8c 8c 65 96 9d 8c 4c 8a 9e 8c e5 92     y.^...e...L.....
    3564:	a0 8c 89 95 a1 8c e0 8d a2 8c 76 8d a7 8c 6e 95     ..........v...n.
    3574:	a8 8c dd 89 a9 8c cc 94 ab 8c d1 8a ac 8c d3 90     ................
    3584:	af 8c 99 92 b0 8c e1 96 b4 8c 4d 8b b6 8c c8 e6     ..........M.....
    3594:	b7 8c 83 94 b8 8c dd 91 bb 8c ef 94 bc 8c 5c 93     ..............\.
    35a4:	bf 8c 66 96 c0 8c ea 89 c2 8c 47 98 c3 8c c0 92     ..f.......G.....
    35b4:	c4 8c 64 98 c7 8c 91 8e ca 8c af 91 ce 8c 47 91     ..d...........G.
    35c4:	d1 8c f6 93 d3 8c 6f 95 db 8c 5e 8e dc 8c 92 8e     ......o...^.....
    35d4:	de 8c dc 8f e0 8c 85 94 e2 8c ab 8c e6 8c 8a 95     ................
    35e4:	ea 8c bf 8e ed 8c 71 93 fc 8c 77 8d 04 8d d1 e6     ......q...w.....
    35f4:	05 8d d2 e6 08 8d a1 91 0b 8d e4 8a 14 8d db e6     ................
    3604:	64 8d d4 90 66 8d cd 8e 6b 8d 71 8a 70 8d 96 91     d...f...k.q.p...
    3614:	74 8d 8b 95 77 8d 4e 8b 85 8d b4 92 8a 8d 7a 89     t...w.N.......z.
    3624:	a3 8d ef 8e a8 8d 96 90 b3 8d ab 91 be 8d e4 e6     ................
    3634:	cb 8d eb e6 dd 8d 97 8b e1 8d d5 90 e8 8d d7 8c     ................
    3644:	ea 8d ec e6 ef 8d 48 98 f3 8d b5 92 f5 8d 48 91     ......H.......H.
    3654:	0a 8e 78 97 0f 8e a5 93 35 8e f9 e6 42 8e f8 e6     ..x.....5...B...
    3664:	44 8e fb 92 5f 8e d6 90 74 8e 52 8f 8d 8e f4 96     D..._...t.R.....
    3674:	ab 8e 67 90 af 8e eb 8b be 8e 5e e7 ca 8e d4 8e     ..g.......^.....
    3684:	cb 8e 61 e7 cc 8e 4f 8b cd 8e 52 8c d2 8e ac 8c     ..a...O...R.....
    3694:	df 8e ee 93 e2 8e 5d 93 f8 8e b2 8e fd 8e 79 8c     ......].......y.
    36a4:	03 8f 72 8a 09 8f da 8d 0c 8f 71 e7 14 8f e3 95     ..r.......q.....
    36b4:	1d 8f 50 8b 29 8f 79 94 2a 8f d6 97 2f 8f 53 8f     ..P.).y.*.../.S.
    36c4:	33 8f 73 e7 38 8f 41 97 3b 8f 74 e7 3f 8f 60 97     3.s.8.A.;.t.?.`.
    36d4:	44 8f 8d 8a 4d 8f 51 93 5f 8f 8c 8d 61 8f 44 8c     D...M.Q._...a.D.
    36e4:	62 8f 80 e7 9b 8f 68 90 9e 8f ab 8e a3 8f 85 e7     b.....h.........
    36f4:	b0 8f 43 92 b1 8f 4a 90 b2 8f 5f 94 ba 8f d3 95     ..C...J..._.....
    3704:	bb 8f d2 92 bc 8f 9e 8d bf 8f 48 92 c2 8f 49 89     ..........H...I.
    3714:	c4 8f 98 96 c5 8f 76 90 ce 8f 7d 8c d1 8f df 8b     ......v...}.....
    3724:	d4 8f d4 95 e6 8f de 89 e9 8f f4 93 eb 8f 97 94     ................
    3734:	ed 8f 52 93 f0 8f 71 8f f7 8f c0 96 fd 8f c7 92     ..R...q.........
    3744:	00 90 de 91 01 90 97 91 03 90 a6 93 06 90 74 8b     ..............t.
    3754:	0f 90 a7 93 10 90 80 92 13 90 fc 92 14 90 72 93     ..............r.
    3764:	17 90 80 90 19 90 87 94 1a 90 ca 92 1d 90 c0 90     ................
    3774:	1f 90 ac 91 20 90 a2 91 22 90 a7 88 23 90 41 98     .... ..."...#.A.
    3784:	2e 90 df 91 31 90 54 8f 32 90 69 90 38 90 ed 88     ....1.T.2.i.8...
    3794:	3c 90 4e 95 41 90 d9 93 42 90 8b 90 45 90 78 92     <.N.A...B...E.x.
    37a4:	47 90 f6 8b 4a 90 56 97 4b 90 5e 89 4d 90 d5 95     G...J.V.K.^.M...
    37b4:	4e 90 df 89 53 90 b9 93 54 90 42 92 55 90 e1 88     N...S...T.B.U...
    37c4:	59 90 a1 ea 5c 90 bb 91 60 90 93 89 61 90 6b 91     Y...\...`...a.k.
    37d4:	63 90 ad 8c 65 90 79 97 69 90 4b 93 6d 90 98 91     c...e.y.i.K.m...
    37e4:	6e 90 d5 8e 75 90 85 8f 77 90 4a 91 78 90 49 91     n...u...w.J.x.I.
    37f4:	7a 90 e2 88 7c 90 c9 97 7f 90 f0 94 84 90 d2 8a     z...|...........
    3804:	91 90 57 97 a3 90 df 93 a6 90 4d 96 aa 90 d7 8e     ..W.......M.....
    3814:	b8 90 40 93 c1 90 e8 88 ca 90 78 8d ce 90 59 98     ..@.......x...Y.
    3824:	e1 90 53 8c e8 90 94 95 ed 90 73 8a f5 90 58 97     ..S.......s...X.
    3834:	f7 90 bd 8b fd 90 73 93 2d 91 41 93 49 91 d1 93     ......s.-.A.I...
    3844:	4b 91 55 8f 4c 91 de 8e 4d 91 7a 94 4e 91 91 92     K.U.L...M.z.N...
    3854:	52 91 f0 8e 54 91 8c 90 62 91 7c 90 6a 91 8f 97     R...T...b.|.j...
    3864:	6c 91 56 8f 75 91 79 8d 77 91 93 8d 78 91 5f 8e     l.V.u.y.w...x._.
    3874:	87 91 86 8f 8d 91 e7 91 90 91 ed 8c 92 91 c1 90     ................
    3884:	97 91 ae 94 9c 91 58 8f a4 91 dd 8f b8 91 f8 8f     ......X.........
    3894:	c6 91 ce 94 c7 91 d1 8d c8 91 df 8e cc 91 a2 97     ................
    38a4:	cd 91 64 8f ce 91 ec 96 cf 91 ca 97 d1 91 e0 8b     ..d.............
    38b4:	d8 91 42 93 dc 91 98 8a dd 91 6a 90 e3 91 de 92     ..B.......j.....
    38c4:	e6 91 74 96 e7 91 fa 8b 0d 92 dd 93 0e 92 62 8a     ..t...........b.
    38d4:	34 92 e9 97 37 92 d8 8c 44 92 53 93 5b 92 94 89     4...7...D.S.[...
    38e4:	62 92 ab 94 66 92 de 8f 71 92 7a 8d 7e 92 67 96     b...f...q.z.~.g.
    38f4:	80 92 e2 8b 83 92 65 8f 85 92 ba 93 91 92 4c 91     ......e.......L.
    3904:	98 92 c1 96 9a 92 b6 92 9b 92 f3 e7 ad 92 4b 91     ..............K.
    3914:	cf 92 f5 e7 d2 92 4e 96 e4 92 9b 8f ea 92 dd 95     ......N.........
    3924:	ed 92 73 89 f2 92 65 95 f3 92 92 92 f8 92 98 8b     ..s...e.........
    3934:	fc 92 7c 8d 06 93 4b 8e 10 93 8d 90 18 93 8e 90     ..|...K.........
    3944:	20 93 f9 8f 26 93 d1 8b 28 93 64 95 2b 93 e0 8e      ...&...(.d.+...
    3954:	2c 93 42 98 2f 93 f6 8d 32 93 5e 98 4b 93 e7 93     ,.B./...2.^.K...
    3964:	4d 93 74 93 54 93 d5 92 5b 93 62 92 6c 93 4c 8c     M.t.T...[.b.l.L.
    3974:	75 93 ae 8c 7e 93 df 8f 8c 93 99 8a 96 93 bd 8d     u...~...........
    3984:	97 93 99 91 9a 93 c8 92 a7 93 5a 8a ae 93 c1 92     ..........Z.....
    3994:	b9 93 50 e8 c3 93 56 e8 d1 93 4c 93 dd 93 57 e8     ..P...V...L...W.
    39a4:	e1 93 be 8b e8 93 53 e8 18 94 e0 8f 19 94 a8 93     ......S.........
    39b4:	38 94 f6 91 51 94 d3 8a 53 94 f8 96 77 95 b7 92     8...Q...S...w...
    39c4:	80 95 e5 96 83 95 4d 91 89 95 c2 95 8b 95 4a 8a     ......M.......J.
    39d4:	8f 95 5b 89 91 95 d5 8a 93 95 d4 8a a2 95 d6 8a     ..[.............
    39e4:	a3 95 74 8a a4 95 7d 8d a5 95 b4 94 b2 95 7b 89     ..t...}.......{.
    39f4:	c7 95 c5 88 d8 95 ac 93 1c 96 8c 95 2a 96 e3 8d     ............*...
    3a04:	32 96 68 96 3b 96 6a 91 3f 96 a2 88 40 96 c9 91     2.h.;.j.?...@...
    3a14:	44 96 8d 95 4d 96 7e 8d 50 96 c0 8c 5b 96 c3 95     D...M.~.P...[...
    3a24:	62 96 40 89 63 96 77 90 64 96 9c 8f 65 96 d7 8a     b.@.c.w.d...e...
    3a34:	6a 96 86 94 70 96 41 89 73 96 c2 92 75 96 cb 97     j...p.A.s...u...
    3a44:	76 96 a9 93 78 96 a4 97 7a 96 af 8c 7d 96 7a 97     v...x...z...}.z.
    3a54:	85 96 f7 8b 86 96 b2 97 88 96 47 8c 8a 96 e0 91     ..........G.....
    3a64:	8b 96 40 e4 8e 96 4b 8a 8f 96 8f 90 94 96 75 8a     ..@...K.......u.
    3a74:	95 96 a6 e8 98 96 a5 e8 99 96 84 8c 9b 96 db 8d     ................
    3a84:	9c 96 e1 8f a0 96 42 89 a3 96 d7 97 a7 96 a9 e8     ......B.........
    3a94:	b7 96 ea 97 bb 96 c7 90 bc 96 b9 94 c0 96 9d 90     ................
    3aa4:	c1 96 e5 8a c4 96 59 97 c5 96 eb 89 c6 96 57 8f     ......Y.......W.
    3ab4:	c7 96 d9 8c cc 96 93 8e d1 96 47 8e db 96 97 90     ..........G.....
    3ac4:	e2 96 a3 97 e3 96 ef 93 e8 96 4a 89 ea 96 e1 90     ..........J.....
    3ad4:	eb 96 b4 8e f0 96 b5 95 f2 96 5f 89 f6 96 eb 97     .........._.....
    3ae4:	f7 96 8b 97 f9 96 b9 e8 fb 96 64 93 00 97 f9 8e     ..........d.....
    3af4:	07 97 6b 90 0a 97 ec 97 1c 97 9a 91 1e 97 e0 89     ..k.............
    3b04:	27 97 b6 96 32 97 49 98 52 97 c2 90 56 97 f5 96     '...2.I.R...V...
    3b14:	59 97 c3 90 5e 97 f1 94 62 97 ca 96 69 97 76 8a     Y...^...b...i.v.
    3b24:	6d 97 78 90 74 97 43 8c 84 97 93 8a 8b 97 dc e8     m.x.t.C.........
    3b34:	8d 97 c6 88 98 97 e2 8f a0 97 66 8b ad 97 da 95     ..........f.....
    3b44:	d3 97 d8 8a ee 97 42 94 f3 97 b9 89 fb 97 43 89     ......B.......C.
    3b54:	ff 97 bf 8b 01 98 c5 95 02 98 b8 92 03 98 a0 8d     ................
    3b64:	05 98 80 8d 06 98 87 8f 08 98 7b 90 0c 98 f1 e8     ..........{.....
    3b74:	10 98 61 97 11 98 e6 8a 12 98 d0 94 13 98 da 93     ..a.............
    3b84:	17 98 9c 90 18 98 cc 97 1a 98 7a 8c 2c 98 6a 96     ..........z.,.j.
    3b94:	2d 98 aa 93 34 98 6f 89 37 98 f5 e8 38 98 f2 e8     -...4.o.7...8...
    3ba4:	3b 98 70 95 3c 98 8a 97 46 98 f7 e8 4c 98 e8 91     ;.p.<...F...L...
    3bb4:	4d 98 7a 8a 4e 98 7b 8a 54 98 e7 8a 55 98 b0 8c     M.z.N.{.T...U...
    3bc4:	58 98 e8 8a 5b 98 5e 93 5e 98 de 97 67 98 da 8c     X...[.^.^...g...
    3bd4:	a8 98 97 95 af 98 44 e9 db 98 f2 94 df 98 48 90     ......D.......H.
    3be4:	e2 98 51 8b ef 98 d1 94 f2 98 f9 88 f4 98 b9 88     ..Q.............
    3bf4:	fc 98 94 8e fd 98 4f 96 fe 98 fc 8f 05 99 dd 96     ......O.........
    3c04:	0a 99 7b 97 0c 99 61 89 10 99 60 8e 13 99 ec 89     ..{...a...`.....
    3c14:	21 99 51 e9 28 99 d9 8a 57 99 c0 8b 96 99 f1 8e     !.Q.(...W.......
    3c24:	99 99 81 8d a8 99 5d 8a ac 99 6e 94 b3 99 79 92     ......]...n...y.
    3c34:	b4 99 e9 93 c1 99 9d 94 c4 99 ca 91 c5 99 77 89     ..............w.
    3c44:	c6 99 ec 8b c8 99 ed 8b d0 99 93 92 d2 99 ee 8b     ................
    3c54:	d5 99 ed 89 ff 99 78 8f 0e 9a 52 8b 12 9a 9b 91     ......x...R.....
    3c64:	13 9a b1 8c 28 9a cb 91 30 9a ab 93 55 9a 81 e9     ....(...0...U...
    3c74:	5a 9a c1 8b a8 9a 9c 8d b8 9a 5b 8a c4 9a 91 90     Z.........[.....
    3c84:	cf 9a 90 e9 d1 9a 91 e9 d3 9a 92 e9 d4 9a 93 e9     ................
    3c94:	d8 9a 82 8d ea 9a af 94 ed 9a 45 95 3b 9b f6 e2     ..........E.;...
    3ca4:	3c 9b 53 8b 41 9b 40 8a 42 9b b0 8d 45 9b a3 96     <.S.A.@.B...E...
    3cb4:	4e 9b b2 e9 54 9b 82 96 5a 9b 9b 8b 6f 9b 44 98     N...T...Z...o.D.
    3cc4:	8e 9b bc 88 92 9b a9 95 aa 9b 8e 96 ab 9b 4c 8e     ..............L.
    3cd4:	ad 9b f8 8d ae 9b 4e 91 b9 9b c1 e9 c9 9b ef 8c     ......N.........
    3ce4:	d6 9b 49 8e db 9b e2 91 e8 9b 7e 8c f0 9b ce e9     ..I.......~.....
    3cf4:	f1 9b cd e9 f5 9b b1 88 0d 9c 82 8a 10 9c 6b 98     ..............k.
    3d04:	24 9c dc e9 2d 9c 68 95 2f 9c f1 88 39 9c 8f 8a     $...-.h./...9...
    3d14:	3a 9c cb e9 3b 9c 56 89 48 9c 4c 92 52 9c 90 96     :...;.V.H.L.R...
    3d24:	57 9c d8 97 e5 9c b9 92 e9 9c b5 94 f3 9c 50 96     W.............P.
    3d34:	f4 9c c2 96 f6 9c ce 93 07 9d bc 93 0e 9d a8 89     ................
    3d44:	1b 9d 95 89 28 9d 9b 8a 2b 9d b0 8e 2c 9d a7 89     ....(...+...,...
    3d54:	3b 9d 83 8d 5c 9d 4c 89 60 9d 94 8d 61 9d b7 96     ;...\.L.`...a...
    3d64:	6c 9d 51 96 8f 9d 7b 8c b4 9d df 92 f2 9d 68 98     l.Q...{.......h.
    3d74:	f9 9d e9 91 fa 9d eb 8d 78 9e b2 8c 7f 9e ad 8e     ........x.......
    3d84:	93 9e 5b 98 97 9e ed 97 9f 9e d9 97 a6 9e 9e 94     ..[.............
    3d94:	b9 9e 8d 8d ba 9e cb 96 bb 9e 83 96 bf 9e 9b 96     ................
    3da4:	c4 9e a9 89 cd 9e 6f 8b d2 9e 95 8d d9 9e d9 96     ......o.........
    3db4:	db 9e e1 91 0e 9f 43 93 13 9f db 8c 20 9f 6c 91     ......C..... .l.
    3dc4:	3b 9f 40 95 4b 9f 56 e2 62 9f ee 97 8d 9f b4 97     ;.@.K.V.b.......
    3dd4:	01 ff 49 81 03 ff 94 81 04 ff 90 81 05 ff 93 81     ..I.............
    3de4:	06 ff 95 81 08 ff 69 81 09 ff 6a 81 0a ff 96 81     ......i...j.....
    3df4:	0b ff 7b 81 0c ff 43 81 0d ff 7c 81 0e ff 44 81     ..{...C...|...D.
    3e04:	0f ff 5e 81 10 ff 4f 82 11 ff 50 82 12 ff 51 82     ..^...O...P...Q.
    3e14:	13 ff 52 82 14 ff 53 82 15 ff 54 82 16 ff 55 82     ..R...S...T...U.
    3e24:	17 ff 56 82 18 ff 57 82 19 ff 58 82 1a ff 46 81     ..V...W...X...F.
    3e34:	1b ff 47 81 1c ff 83 81 1d ff 81 81 1e ff 84 81     ..G.............
    3e44:	1f ff 48 81 20 ff 97 81 21 ff 60 82 22 ff 61 82     ..H. ...!.`.".a.
    3e54:	23 ff 62 82 24 ff 63 82 25 ff 64 82 26 ff 65 82     #.b.$.c.%.d.&.e.
    3e64:	27 ff 66 82 28 ff 67 82 29 ff 68 82 2a ff 69 82     '.f.(.g.).h.*.i.
    3e74:	2b ff 6a 82 2c ff 6b 82 2d ff 6c 82 2e ff 6d 82     +.j.,.k.-.l...m.
    3e84:	2f ff 6e 82 30 ff 6f 82 31 ff 70 82 32 ff 71 82     /.n.0.o.1.p.2.q.
    3e94:	33 ff 72 82 34 ff 73 82 35 ff 74 82 36 ff 75 82     3.r.4.s.5.t.6.u.
    3ea4:	37 ff 76 82 38 ff 77 82 39 ff 78 82 3a ff 79 82     7.v.8.w.9.x.:.y.
    3eb4:	3b ff 6d 81 3c ff 5f 81 3d ff 6e 81 3e ff 4f 81     ;.m.<._.=.n.>.O.
    3ec4:	3f ff 51 81 40 ff 4d 81 41 ff 81 82 42 ff 82 82     ?.Q.@.M.A...B...
    3ed4:	43 ff 83 82 44 ff 84 82 45 ff 85 82 46 ff 86 82     C...D...E...F...
    3ee4:	47 ff 87 82 48 ff 88 82 49 ff 89 82 4a ff 8a 82     G...H...I...J...
    3ef4:	4b ff 8b 82 4c ff 8c 82 4d ff 8d 82 4e ff 8e 82     K...L...M...N...
    3f04:	4f ff 8f 82 50 ff 90 82 51 ff 91 82 52 ff 92 82     O...P...Q...R...
    3f14:	53 ff 93 82 54 ff 94 82 55 ff 95 82 56 ff 96 82     S...T...U...V...
    3f24:	57 ff 97 82 58 ff 98 82 59 ff 99 82 5a ff 9a 82     W...X...Y...Z...
    3f34:	5b ff 6f 81 5c ff 62 81 5d ff 70 81 5e ff 60 81     [.o.\.b.].p.^.`.
    3f44:	61 ff a1 00 62 ff a2 00 63 ff a3 00 64 ff a4 00     a...b...c...d...
    3f54:	65 ff a5 00 66 ff a6 00 67 ff a7 00 68 ff a8 00     e...f...g...h...
    3f64:	69 ff a9 00 6a ff aa 00 6b ff ab 00 6c ff ac 00     i...j...k...l...
    3f74:	6d ff ad 00 6e ff ae 00 6f ff af 00 70 ff b0 00     m...n...o...p...
    3f84:	71 ff b1 00 72 ff b2 00 73 ff b3 00 74 ff b4 00     q...r...s...t...
    3f94:	75 ff b5 00 76 ff b6 00 77 ff b7 00 78 ff b8 00     u...v...w...x...
    3fa4:	79 ff b9 00 7a ff ba 00 7b ff bb 00 7c ff bc 00     y...z...{...|...
    3fb4:	7d ff bd 00 7e ff be 00 7f ff bf 00 80 ff c0 00     }...~...........
    3fc4:	81 ff c1 00 82 ff c2 00 83 ff c3 00 84 ff c4 00     ................
    3fd4:	85 ff c5 00 86 ff c6 00 87 ff c7 00 88 ff c8 00     ................
    3fe4:	89 ff c9 00 8a ff ca 00 8b ff cb 00 8c ff cc 00     ................
    3ff4:	8d ff cd 00 8e ff ce 00 8f ff cf 00 90 ff d0 00     ................
    4004:	91 ff d1 00 92 ff d2 00 93 ff d3 00 94 ff d4 00     ................
    4014:	95 ff d5 00 96 ff d6 00 97 ff d7 00 98 ff d8 00     ................
    4024:	99 ff d9 00 9a ff da 00 9b ff db 00 9c ff dc 00     ................
    4034:	9d ff dd 00 9e ff de 00 9f ff df 00 e0 ff 91 81     ................
    4044:	e1 ff 92 81 e2 ff ca 81 e3 ff 50 81 e5 ff 8f 81     ..........P.....
    4054:	00 00 00 00                                         ....

00004058 <__ctors_end>:
    4058:	11 24       	eor	r1, r1
    405a:	1f be       	out	0x3f, r1	; 63
    405c:	cf ef       	ldi	r28, 0xFF	; 255
    405e:	d1 e2       	ldi	r29, 0x21	; 33
    4060:	de bf       	out	0x3e, r29	; 62
    4062:	cd bf       	out	0x3d, r28	; 61
    4064:	00 e0       	ldi	r16, 0x00	; 0
    4066:	0c bf       	out	0x3c, r16	; 60

00004068 <__do_copy_data>:
    4068:	12 e0       	ldi	r17, 0x02	; 2
    406a:	a0 e0       	ldi	r26, 0x00	; 0
    406c:	b2 e0       	ldi	r27, 0x02	; 2
    406e:	e8 e9       	ldi	r30, 0x98	; 152
    4070:	fe e9       	ldi	r31, 0x9E	; 158
    4072:	00 e0       	ldi	r16, 0x00	; 0
    4074:	0b bf       	out	0x3b, r16	; 59
    4076:	02 c0       	rjmp	.+4      	; 0x407c <__do_copy_data+0x14>
    4078:	07 90       	elpm	r0, Z+
    407a:	0d 92       	st	X+, r0
    407c:	aa 3f       	cpi	r26, 0xFA	; 250
    407e:	b1 07       	cpc	r27, r17
    4080:	d9 f7       	brne	.-10     	; 0x4078 <__do_copy_data+0x10>

00004082 <__do_clear_bss>:
    4082:	29 e0       	ldi	r18, 0x09	; 9
    4084:	aa ef       	ldi	r26, 0xFA	; 250
    4086:	b2 e0       	ldi	r27, 0x02	; 2
    4088:	01 c0       	rjmp	.+2      	; 0x408c <.do_clear_bss_start>

0000408a <.do_clear_bss_loop>:
    408a:	1d 92       	st	X+, r1

0000408c <.do_clear_bss_start>:
    408c:	a4 36       	cpi	r26, 0x64	; 100
    408e:	b2 07       	cpc	r27, r18
    4090:	e1 f7       	brne	.-8      	; 0x408a <.do_clear_bss_loop>
    4092:	0e 94 31 47 	call	0x8e62	; 0x8e62 <main>
    4096:	0c 94 4a 4f 	jmp	0x9e94	; 0x9e94 <_exit>

0000409a <__bad_interrupt>:
    409a:	0c 94 00 00 	jmp	0	; 0x0 <__vectors>

0000409e <disk_status>:

DSTATUS disk_status (
	BYTE pdrv		/* Physical drive nmuber to identify the drive */
)
{
	switch (pdrv) {
    409e:	81 30       	cpi	r24, 0x01	; 1
    40a0:	19 f4       	brne	.+6      	; 0x40a8 <disk_status+0xa>
	case DRV_CFC :
		return cf_disk_status();
#endif
#ifdef DRV_MMC
	case DRV_MMC :
		return mmc_disk_status();
    40a2:	0c 94 db 49 	jmp	0x93b6	; 0x93b6 <mmc_disk_status>
    40a6:	08 95       	ret
#endif
	}
	return STA_NOINIT;
    40a8:	81 e0       	ldi	r24, 0x01	; 1
}
    40aa:	08 95       	ret

000040ac <disk_initialize>:

DSTATUS disk_initialize (
	BYTE pdrv				/* Physical drive nmuber to identify the drive */
)
{
	switch (pdrv) {
    40ac:	81 30       	cpi	r24, 0x01	; 1
    40ae:	19 f4       	brne	.+6      	; 0x40b6 <disk_initialize+0xa>
	case DRV_CFC :
		return cf_disk_initialize();
#endif
#ifdef DRV_MMC
	case DRV_MMC :
		return mmc_disk_initialize();
    40b0:	0c 94 12 49 	jmp	0x9224	; 0x9224 <mmc_disk_initialize>
    40b4:	08 95       	ret
#endif
	}
	return STA_NOINIT;
    40b6:	81 e0       	ldi	r24, 0x01	; 1
}
    40b8:	08 95       	ret

000040ba <disk_read>:
	BYTE pdrv,		/* Physical drive nmuber to identify the drive */
	BYTE *buff,		/* Data buffer to store read data */
	DWORD sector,	/* Sector address in LBA */
	UINT count		/* Number of sectors to read */
)
{
    40ba:	0f 93       	push	r16
    40bc:	1f 93       	push	r17
    40be:	fb 01       	movw	r30, r22
	switch (pdrv) {
    40c0:	81 30       	cpi	r24, 0x01	; 1
    40c2:	39 f4       	brne	.+14     	; 0x40d2 <disk_read+0x18>
    40c4:	ba 01       	movw	r22, r20
    40c6:	a9 01       	movw	r20, r18
    40c8:	cf 01       	movw	r24, r30
	case DRV_CFC :
		return cf_disk_read(buff, sector, count);
#endif
#ifdef DRV_MMC
	case DRV_MMC :
		return mmc_disk_read(buff, sector, count);
    40ca:	98 01       	movw	r18, r16
    40cc:	0e 94 de 49 	call	0x93bc	; 0x93bc <mmc_disk_read>
    40d0:	01 c0       	rjmp	.+2      	; 0x40d4 <disk_read+0x1a>
#endif
	}
	return RES_PARERR;
    40d2:	84 e0       	ldi	r24, 0x04	; 4
}
    40d4:	1f 91       	pop	r17
    40d6:	0f 91       	pop	r16
    40d8:	08 95       	ret

000040da <disk_write>:
	BYTE pdrv,			/* Physical drive nmuber to identify the drive */
	const BYTE *buff,	/* Data to be written */
	DWORD sector,		/* Sector address in LBA */
	UINT count			/* Number of sectors to write */
)
{
    40da:	0f 93       	push	r16
    40dc:	1f 93       	push	r17
    40de:	fb 01       	movw	r30, r22
	switch (pdrv) {
    40e0:	81 30       	cpi	r24, 0x01	; 1
    40e2:	39 f4       	brne	.+14     	; 0x40f2 <disk_write+0x18>
    40e4:	ba 01       	movw	r22, r20
    40e6:	a9 01       	movw	r20, r18
    40e8:	cf 01       	movw	r24, r30
	case DRV_CFC :
		return cf_disk_write(buff, sector, count);
#endif
#ifdef DRV_MMC
	case DRV_MMC :
		return mmc_disk_write(buff, sector, count);
    40ea:	98 01       	movw	r18, r16
    40ec:	0e 94 28 4a 	call	0x9450	; 0x9450 <mmc_disk_write>
    40f0:	01 c0       	rjmp	.+2      	; 0x40f4 <disk_write+0x1a>
#endif
	}
	return RES_PARERR;
    40f2:	84 e0       	ldi	r24, 0x04	; 4
}
    40f4:	1f 91       	pop	r17
    40f6:	0f 91       	pop	r16
    40f8:	08 95       	ret

000040fa <ld_dword>:
		}
		FREE_NAMBUF();
	}

	LEAVE_FF(dj.obj.fs, res);
}
    40fa:	fc 01       	movw	r30, r24
    40fc:	63 81       	ldd	r22, Z+3	; 0x03
    40fe:	86 2f       	mov	r24, r22
    4100:	90 e0       	ldi	r25, 0x00	; 0
    4102:	a0 e0       	ldi	r26, 0x00	; 0
    4104:	b0 e0       	ldi	r27, 0x00	; 0
    4106:	ba 2f       	mov	r27, r26
    4108:	a9 2f       	mov	r26, r25
    410a:	98 2f       	mov	r25, r24
    410c:	88 27       	eor	r24, r24
    410e:	22 81       	ldd	r18, Z+2	; 0x02
    4110:	82 2b       	or	r24, r18
    4112:	ba 2f       	mov	r27, r26
    4114:	a9 2f       	mov	r26, r25
    4116:	98 2f       	mov	r25, r24
    4118:	88 27       	eor	r24, r24
    411a:	21 81       	ldd	r18, Z+1	; 0x01
    411c:	82 2b       	or	r24, r18
    411e:	ba 2f       	mov	r27, r26
    4120:	a9 2f       	mov	r26, r25
    4122:	98 2f       	mov	r25, r24
    4124:	88 27       	eor	r24, r24
    4126:	20 81       	ld	r18, Z
    4128:	bc 01       	movw	r22, r24
    412a:	cd 01       	movw	r24, r26
    412c:	62 2b       	or	r22, r18
    412e:	08 95       	ret

00004130 <ld_qword>:
    4130:	0f 93       	push	r16
    4132:	fc 01       	movw	r30, r24
    4134:	27 81       	ldd	r18, Z+7	; 0x07
    4136:	30 e0       	ldi	r19, 0x00	; 0
    4138:	40 e0       	ldi	r20, 0x00	; 0
    413a:	50 e0       	ldi	r21, 0x00	; 0
    413c:	60 e0       	ldi	r22, 0x00	; 0
    413e:	70 e0       	ldi	r23, 0x00	; 0
    4140:	80 e0       	ldi	r24, 0x00	; 0
    4142:	90 e0       	ldi	r25, 0x00	; 0
    4144:	08 e0       	ldi	r16, 0x08	; 8
    4146:	0e 94 05 4c 	call	0x980a	; 0x980a <__ashldi3>
    414a:	a6 81       	ldd	r26, Z+6	; 0x06
    414c:	2a 2b       	or	r18, r26
    414e:	0e 94 05 4c 	call	0x980a	; 0x980a <__ashldi3>
    4152:	a5 81       	ldd	r26, Z+5	; 0x05
    4154:	2a 2b       	or	r18, r26
    4156:	0e 94 05 4c 	call	0x980a	; 0x980a <__ashldi3>
    415a:	a4 81       	ldd	r26, Z+4	; 0x04
    415c:	2a 2b       	or	r18, r26
    415e:	0e 94 05 4c 	call	0x980a	; 0x980a <__ashldi3>
    4162:	a3 81       	ldd	r26, Z+3	; 0x03
    4164:	2a 2b       	or	r18, r26
    4166:	0e 94 05 4c 	call	0x980a	; 0x980a <__ashldi3>
    416a:	a2 81       	ldd	r26, Z+2	; 0x02
    416c:	2a 2b       	or	r18, r26
    416e:	0e 94 05 4c 	call	0x980a	; 0x980a <__ashldi3>
    4172:	a1 81       	ldd	r26, Z+1	; 0x01
    4174:	2a 2b       	or	r18, r26
    4176:	0e 94 05 4c 	call	0x980a	; 0x980a <__ashldi3>
    417a:	e0 81       	ld	r30, Z
    417c:	2e 2b       	or	r18, r30
    417e:	0f 91       	pop	r16
    4180:	08 95       	ret

00004182 <st_qword>:
    4182:	0f 93       	push	r16
    4184:	1f 93       	push	r17
    4186:	cf 93       	push	r28
    4188:	df 93       	push	r29
    418a:	fc 01       	movw	r30, r24
    418c:	d2 2f       	mov	r29, r18
    418e:	c3 2f       	mov	r28, r19
    4190:	b4 2f       	mov	r27, r20
    4192:	a5 2f       	mov	r26, r21
    4194:	86 2f       	mov	r24, r22
    4196:	97 2f       	mov	r25, r23
    4198:	00 83       	st	Z, r16
    419a:	20 2f       	mov	r18, r16
    419c:	31 2f       	mov	r19, r17
    419e:	4d 2f       	mov	r20, r29
    41a0:	5c 2f       	mov	r21, r28
    41a2:	6b 2f       	mov	r22, r27
    41a4:	7a 2f       	mov	r23, r26
    41a6:	08 e0       	ldi	r16, 0x08	; 8
    41a8:	0e 94 20 4c 	call	0x9840	; 0x9840 <__lshrdi3>
    41ac:	21 83       	std	Z+1, r18	; 0x01
    41ae:	0e 94 20 4c 	call	0x9840	; 0x9840 <__lshrdi3>
    41b2:	22 83       	std	Z+2, r18	; 0x02
    41b4:	0e 94 20 4c 	call	0x9840	; 0x9840 <__lshrdi3>
    41b8:	23 83       	std	Z+3, r18	; 0x03
    41ba:	0e 94 20 4c 	call	0x9840	; 0x9840 <__lshrdi3>
    41be:	24 83       	std	Z+4, r18	; 0x04
    41c0:	0e 94 20 4c 	call	0x9840	; 0x9840 <__lshrdi3>
    41c4:	25 83       	std	Z+5, r18	; 0x05
    41c6:	0e 94 20 4c 	call	0x9840	; 0x9840 <__lshrdi3>
    41ca:	26 83       	std	Z+6, r18	; 0x06
    41cc:	0e 94 20 4c 	call	0x9840	; 0x9840 <__lshrdi3>
    41d0:	27 83       	std	Z+7, r18	; 0x07
    41d2:	df 91       	pop	r29
    41d4:	cf 91       	pop	r28
    41d6:	1f 91       	pop	r17
    41d8:	0f 91       	pop	r16
    41da:	08 95       	ret

000041dc <mem_cpy>:
    41dc:	41 15       	cp	r20, r1
    41de:	51 05       	cpc	r21, r1
    41e0:	51 f0       	breq	.+20     	; 0x41f6 <mem_cpy+0x1a>
    41e2:	a6 2f       	mov	r26, r22
    41e4:	b7 2f       	mov	r27, r23
    41e6:	fc 01       	movw	r30, r24
    41e8:	48 0f       	add	r20, r24
    41ea:	59 1f       	adc	r21, r25
    41ec:	9d 91       	ld	r25, X+
    41ee:	91 93       	st	Z+, r25
    41f0:	e4 17       	cp	r30, r20
    41f2:	f5 07       	cpc	r31, r21
    41f4:	d9 f7       	brne	.-10     	; 0x41ec <mem_cpy+0x10>
    41f6:	08 95       	ret

000041f8 <mem_set>:
    41f8:	fc 01       	movw	r30, r24
    41fa:	48 0f       	add	r20, r24
    41fc:	59 1f       	adc	r21, r25
    41fe:	61 93       	st	Z+, r22
    4200:	e4 17       	cp	r30, r20
    4202:	f5 07       	cpc	r31, r21
    4204:	e1 f7       	brne	.-8      	; 0x41fe <mem_set+0x6>
    4206:	08 95       	ret

00004208 <mem_cmp>:
    4208:	dc 01       	movw	r26, r24
    420a:	e6 2f       	mov	r30, r22
    420c:	f7 2f       	mov	r31, r23
    420e:	8d 91       	ld	r24, X+
    4210:	21 91       	ld	r18, Z+
    4212:	90 e0       	ldi	r25, 0x00	; 0
    4214:	82 1b       	sub	r24, r18
    4216:	91 09       	sbc	r25, r1
    4218:	41 50       	subi	r20, 0x01	; 1
    421a:	51 09       	sbc	r21, r1
    421c:	11 f0       	breq	.+4      	; 0x4222 <mem_cmp+0x1a>
    421e:	00 97       	sbiw	r24, 0x00	; 0
    4220:	b1 f3       	breq	.-20     	; 0x420e <mem_cmp+0x6>
    4222:	08 95       	ret

00004224 <clst2sect>:
    4224:	0f 93       	push	r16
    4226:	1f 93       	push	r17
    4228:	fc 01       	movw	r30, r24
    422a:	9a 01       	movw	r18, r20
    422c:	ab 01       	movw	r20, r22
    422e:	22 50       	subi	r18, 0x02	; 2
    4230:	31 09       	sbc	r19, r1
    4232:	41 09       	sbc	r20, r1
    4234:	51 09       	sbc	r21, r1
    4236:	87 a1       	ldd	r24, Z+39	; 0x27
    4238:	90 a5       	ldd	r25, Z+40	; 0x28
    423a:	a1 a5       	ldd	r26, Z+41	; 0x29
    423c:	b2 a5       	ldd	r27, Z+42	; 0x2a
    423e:	02 97       	sbiw	r24, 0x02	; 2
    4240:	a1 09       	sbc	r26, r1
    4242:	b1 09       	sbc	r27, r1
    4244:	28 17       	cp	r18, r24
    4246:	39 07       	cpc	r19, r25
    4248:	4a 07       	cpc	r20, r26
    424a:	5b 07       	cpc	r21, r27
    424c:	68 f4       	brcc	.+26     	; 0x4268 <clst2sect+0x44>
    424e:	a1 85       	ldd	r26, Z+9	; 0x09
    4250:	b2 85       	ldd	r27, Z+10	; 0x0a
    4252:	0e 94 fb 4b 	call	0x97f6	; 0x97f6 <__muluhisi3>
    4256:	03 ad       	ldd	r16, Z+59	; 0x3b
    4258:	14 ad       	ldd	r17, Z+60	; 0x3c
    425a:	25 ad       	ldd	r18, Z+61	; 0x3d
    425c:	36 ad       	ldd	r19, Z+62	; 0x3e
    425e:	60 0f       	add	r22, r16
    4260:	71 1f       	adc	r23, r17
    4262:	82 1f       	adc	r24, r18
    4264:	93 1f       	adc	r25, r19
    4266:	03 c0       	rjmp	.+6      	; 0x426e <clst2sect+0x4a>
    4268:	60 e0       	ldi	r22, 0x00	; 0
    426a:	70 e0       	ldi	r23, 0x00	; 0
    426c:	cb 01       	movw	r24, r22
    426e:	1f 91       	pop	r17
    4270:	0f 91       	pop	r16
    4272:	08 95       	ret

00004274 <sum_sfn>:
    4274:	fc 01       	movw	r30, r24
    4276:	9c 01       	movw	r18, r24
    4278:	25 5f       	subi	r18, 0xF5	; 245
    427a:	3f 4f       	sbci	r19, 0xFF	; 255
    427c:	80 e0       	ldi	r24, 0x00	; 0
    427e:	80 fb       	bst	r24, 0
    4280:	87 95       	ror	r24
    4282:	87 f9       	bld	r24, 7
    4284:	91 91       	ld	r25, Z+
    4286:	89 0f       	add	r24, r25
    4288:	e2 17       	cp	r30, r18
    428a:	f3 07       	cpc	r31, r19
    428c:	c1 f7       	brne	.-16     	; 0x427e <sum_sfn+0xa>
    428e:	08 95       	ret

00004290 <xdir_sum>:
    4290:	cf 93       	push	r28
    4292:	df 93       	push	r29
    4294:	dc 01       	movw	r26, r24
    4296:	11 96       	adiw	r26, 0x01	; 1
    4298:	6c 91       	ld	r22, X
    429a:	11 97       	sbiw	r26, 0x01	; 1
    429c:	70 e0       	ldi	r23, 0x00	; 0
    429e:	6f 5f       	subi	r22, 0xFF	; 255
    42a0:	7f 4f       	sbci	r23, 0xFF	; 255
    42a2:	66 0f       	add	r22, r22
    42a4:	77 1f       	adc	r23, r23
    42a6:	62 95       	swap	r22
    42a8:	72 95       	swap	r23
    42aa:	70 7f       	andi	r23, 0xF0	; 240
    42ac:	76 27       	eor	r23, r22
    42ae:	60 7f       	andi	r22, 0xF0	; 240
    42b0:	76 27       	eor	r23, r22
    42b2:	61 15       	cp	r22, r1
    42b4:	71 05       	cpc	r23, r1
    42b6:	19 f1       	breq	.+70     	; 0x42fe <xdir_sum+0x6e>
    42b8:	80 e0       	ldi	r24, 0x00	; 0
    42ba:	90 e0       	ldi	r25, 0x00	; 0
    42bc:	20 e0       	ldi	r18, 0x00	; 0
    42be:	30 e0       	ldi	r19, 0x00	; 0
    42c0:	d0 e0       	ldi	r29, 0x00	; 0
    42c2:	c0 e8       	ldi	r28, 0x80	; 128
    42c4:	22 30       	cpi	r18, 0x02	; 2
    42c6:	31 05       	cpc	r19, r1
    42c8:	91 f0       	breq	.+36     	; 0x42ee <xdir_sum+0x5e>
    42ca:	ac 01       	movw	r20, r24
    42cc:	41 70       	andi	r20, 0x01	; 1
    42ce:	55 27       	eor	r21, r21
    42d0:	80 ff       	sbrs	r24, 0
    42d2:	02 c0       	rjmp	.+4      	; 0x42d8 <xdir_sum+0x48>
    42d4:	4d 2f       	mov	r20, r29
    42d6:	5c 2f       	mov	r21, r28
    42d8:	fd 01       	movw	r30, r26
    42da:	e2 0f       	add	r30, r18
    42dc:	f3 1f       	adc	r31, r19
    42de:	e0 81       	ld	r30, Z
    42e0:	96 95       	lsr	r25
    42e2:	87 95       	ror	r24
    42e4:	8e 0f       	add	r24, r30
    42e6:	91 1d       	adc	r25, r1
    42e8:	84 0f       	add	r24, r20
    42ea:	95 1f       	adc	r25, r21
    42ec:	02 c0       	rjmp	.+4      	; 0x42f2 <xdir_sum+0x62>
    42ee:	23 e0       	ldi	r18, 0x03	; 3
    42f0:	30 e0       	ldi	r19, 0x00	; 0
    42f2:	2f 5f       	subi	r18, 0xFF	; 255
    42f4:	3f 4f       	sbci	r19, 0xFF	; 255
    42f6:	26 17       	cp	r18, r22
    42f8:	37 07       	cpc	r19, r23
    42fa:	20 f3       	brcs	.-56     	; 0x42c4 <xdir_sum+0x34>
    42fc:	02 c0       	rjmp	.+4      	; 0x4302 <xdir_sum+0x72>
    42fe:	80 e0       	ldi	r24, 0x00	; 0
    4300:	90 e0       	ldi	r25, 0x00	; 0
    4302:	df 91       	pop	r29
    4304:	cf 91       	pop	r28
    4306:	08 95       	ret

00004308 <init_alloc_info>:
    4308:	0f 93       	push	r16
    430a:	1f 93       	push	r17
    430c:	cf 93       	push	r28
    430e:	df 93       	push	r29
    4310:	8c 01       	movw	r16, r24
    4312:	eb 01       	movw	r28, r22
    4314:	dc 01       	movw	r26, r24
    4316:	1d 96       	adiw	r26, 0x0d	; 13
    4318:	8d 91       	ld	r24, X+
    431a:	9c 91       	ld	r25, X
    431c:	1e 97       	sbiw	r26, 0x0e	; 14
    431e:	c4 96       	adiw	r24, 0x34	; 52
    4320:	ec de       	rcall	.-552    	; 0x40fa <ld_dword>
    4322:	6e 83       	std	Y+6, r22	; 0x06
    4324:	7f 83       	std	Y+7, r23	; 0x07
    4326:	88 87       	std	Y+8, r24	; 0x08
    4328:	99 87       	std	Y+9, r25	; 0x09
    432a:	f8 01       	movw	r30, r16
    432c:	85 85       	ldd	r24, Z+13	; 0x0d
    432e:	96 85       	ldd	r25, Z+14	; 0x0e
    4330:	c8 96       	adiw	r24, 0x38	; 56
    4332:	fe de       	rcall	.-516    	; 0x4130 <ld_qword>
    4334:	2a 87       	std	Y+10, r18	; 0x0a
    4336:	3b 87       	std	Y+11, r19	; 0x0b
    4338:	4c 87       	std	Y+12, r20	; 0x0c
    433a:	5d 87       	std	Y+13, r21	; 0x0d
    433c:	6e 87       	std	Y+14, r22	; 0x0e
    433e:	7f 87       	std	Y+15, r23	; 0x0f
    4340:	88 8b       	std	Y+16, r24	; 0x10
    4342:	99 8b       	std	Y+17, r25	; 0x11
    4344:	d8 01       	movw	r26, r16
    4346:	1d 96       	adiw	r26, 0x0d	; 13
    4348:	ed 91       	ld	r30, X+
    434a:	fc 91       	ld	r31, X
    434c:	1e 97       	sbiw	r26, 0x0e	; 14
    434e:	81 a1       	ldd	r24, Z+33	; 0x21
    4350:	82 70       	andi	r24, 0x02	; 2
    4352:	8d 83       	std	Y+5, r24	; 0x05
    4354:	1e 8a       	std	Y+22, r1	; 0x16
    4356:	1f 8a       	std	Y+23, r1	; 0x17
    4358:	18 8e       	std	Y+24, r1	; 0x18
    435a:	19 8e       	std	Y+25, r1	; 0x19
    435c:	df 91       	pop	r29
    435e:	cf 91       	pop	r28
    4360:	1f 91       	pop	r17
    4362:	0f 91       	pop	r16
    4364:	08 95       	ret

00004366 <get_ldnumber>:
    4366:	ef 92       	push	r14
    4368:	ff 92       	push	r15
    436a:	1f 93       	push	r17
    436c:	cf 93       	push	r28
    436e:	df 93       	push	r29
    4370:	ec 01       	movw	r28, r24
    4372:	68 81       	ld	r22, Y
    4374:	79 81       	ldd	r23, Y+1	; 0x01
    4376:	61 15       	cp	r22, r1
    4378:	71 05       	cpc	r23, r1
    437a:	09 f4       	brne	.+2      	; 0x437e <get_ldnumber+0x18>
    437c:	60 c0       	rjmp	.+192    	; 0x443e <get_ldnumber+0xd8>
    437e:	9b 01       	movw	r18, r22
    4380:	2f 5f       	subi	r18, 0xFF	; 255
    4382:	3f 4f       	sbci	r19, 0xFF	; 255
    4384:	f9 01       	movw	r30, r18
    4386:	31 97       	sbiw	r30, 0x01	; 1
    4388:	90 81       	ld	r25, Z
    438a:	90 32       	cpi	r25, 0x20	; 32
    438c:	18 f0       	brcs	.+6      	; 0x4394 <get_ldnumber+0x2e>
    438e:	9a 33       	cpi	r25, 0x3A	; 58
    4390:	b9 f7       	brne	.-18     	; 0x4380 <get_ldnumber+0x1a>
    4392:	02 c0       	rjmp	.+4      	; 0x4398 <get_ldnumber+0x32>
    4394:	9a 33       	cpi	r25, 0x3A	; 58
    4396:	c9 f4       	brne	.+50     	; 0x43ca <get_ldnumber+0x64>
    4398:	fb 01       	movw	r30, r22
    439a:	80 81       	ld	r24, Z
    439c:	90 ed       	ldi	r25, 0xD0	; 208
    439e:	98 0f       	add	r25, r24
    43a0:	9a 30       	cpi	r25, 0x0A	; 10
    43a2:	08 f0       	brcs	.+2      	; 0x43a6 <get_ldnumber+0x40>
    43a4:	4f c0       	rjmp	.+158    	; 0x4444 <get_ldnumber+0xde>
    43a6:	6e 5f       	subi	r22, 0xFE	; 254
    43a8:	7f 4f       	sbci	r23, 0xFF	; 255
    43aa:	26 17       	cp	r18, r22
    43ac:	37 07       	cpc	r19, r23
    43ae:	09 f0       	breq	.+2      	; 0x43b2 <get_ldnumber+0x4c>
    43b0:	4c c0       	rjmp	.+152    	; 0x444a <get_ldnumber+0xe4>
    43b2:	90 e0       	ldi	r25, 0x00	; 0
    43b4:	ac 01       	movw	r20, r24
    43b6:	40 53       	subi	r20, 0x30	; 48
    43b8:	51 09       	sbc	r21, r1
    43ba:	42 30       	cpi	r20, 0x02	; 2
    43bc:	51 05       	cpc	r21, r1
    43be:	0c f0       	brlt	.+2      	; 0x43c2 <get_ldnumber+0x5c>
    43c0:	47 c0       	rjmp	.+142    	; 0x4450 <get_ldnumber+0xea>
    43c2:	39 83       	std	Y+1, r19	; 0x01
    43c4:	28 83       	st	Y, r18
    43c6:	ca 01       	movw	r24, r20
    43c8:	45 c0       	rjmp	.+138    	; 0x4454 <get_ldnumber+0xee>
    43ca:	fb 01       	movw	r30, r22
    43cc:	80 81       	ld	r24, Z
    43ce:	8f 32       	cpi	r24, 0x2F	; 47
    43d0:	91 f5       	brne	.+100    	; 0x4436 <get_ldnumber+0xd0>
    43d2:	0f 2e       	mov	r0, r31
    43d4:	fe e6       	ldi	r31, 0x6E	; 110
    43d6:	ef 2e       	mov	r14, r31
    43d8:	f2 e0       	ldi	r31, 0x02	; 2
    43da:	ff 2e       	mov	r15, r31
    43dc:	f0 2d       	mov	r31, r0
    43de:	40 e0       	ldi	r20, 0x00	; 0
    43e0:	50 e0       	ldi	r21, 0x00	; 0
    43e2:	f7 01       	movw	r30, r14
    43e4:	a1 91       	ld	r26, Z+
    43e6:	b1 91       	ld	r27, Z+
    43e8:	7f 01       	movw	r14, r30
    43ea:	fb 01       	movw	r30, r22
    43ec:	31 96       	adiw	r30, 0x01	; 1
    43ee:	9d 91       	ld	r25, X+
    43f0:	1e 2f       	mov	r17, r30
    43f2:	8f 2f       	mov	r24, r31
    43f4:	21 91       	ld	r18, Z+
    43f6:	3f e9       	ldi	r19, 0x9F	; 159
    43f8:	39 0f       	add	r19, r25
    43fa:	3a 31       	cpi	r19, 0x1A	; 26
    43fc:	08 f4       	brcc	.+2      	; 0x4400 <get_ldnumber+0x9a>
    43fe:	90 52       	subi	r25, 0x20	; 32
    4400:	3f e9       	ldi	r19, 0x9F	; 159
    4402:	32 0f       	add	r19, r18
    4404:	3a 31       	cpi	r19, 0x1A	; 26
    4406:	08 f4       	brcc	.+2      	; 0x440a <get_ldnumber+0xa4>
    4408:	20 52       	subi	r18, 0x20	; 32
    440a:	99 23       	and	r25, r25
    440c:	19 f0       	breq	.+6      	; 0x4414 <get_ldnumber+0xae>
    440e:	29 17       	cp	r18, r25
    4410:	71 f3       	breq	.-36     	; 0x43ee <get_ldnumber+0x88>
    4412:	04 c0       	rjmp	.+8      	; 0x441c <get_ldnumber+0xb6>
    4414:	2f 32       	cpi	r18, 0x2F	; 47
    4416:	41 f0       	breq	.+16     	; 0x4428 <get_ldnumber+0xc2>
    4418:	20 32       	cpi	r18, 0x20	; 32
    441a:	30 f0       	brcs	.+12     	; 0x4428 <get_ldnumber+0xc2>
    441c:	4f 5f       	subi	r20, 0xFF	; 255
    441e:	5f 4f       	sbci	r21, 0xFF	; 255
    4420:	42 30       	cpi	r20, 0x02	; 2
    4422:	51 05       	cpc	r21, r1
    4424:	f1 f6       	brne	.-68     	; 0x43e2 <get_ldnumber+0x7c>
    4426:	07 c0       	rjmp	.+14     	; 0x4436 <get_ldnumber+0xd0>
    4428:	42 30       	cpi	r20, 0x02	; 2
    442a:	51 05       	cpc	r21, r1
    442c:	24 f4       	brge	.+8      	; 0x4436 <get_ldnumber+0xd0>
    442e:	18 83       	st	Y, r17
    4430:	89 83       	std	Y+1, r24	; 0x01
    4432:	ca 01       	movw	r24, r20
    4434:	0f c0       	rjmp	.+30     	; 0x4454 <get_ldnumber+0xee>
    4436:	80 91 5c 05 	lds	r24, 0x055C	; 0x80055c <CurrVol>
    443a:	90 e0       	ldi	r25, 0x00	; 0
    443c:	0b c0       	rjmp	.+22     	; 0x4454 <get_ldnumber+0xee>
    443e:	8f ef       	ldi	r24, 0xFF	; 255
    4440:	9f ef       	ldi	r25, 0xFF	; 255
    4442:	08 c0       	rjmp	.+16     	; 0x4454 <get_ldnumber+0xee>
    4444:	8f ef       	ldi	r24, 0xFF	; 255
    4446:	9f ef       	ldi	r25, 0xFF	; 255
    4448:	05 c0       	rjmp	.+10     	; 0x4454 <get_ldnumber+0xee>
    444a:	8f ef       	ldi	r24, 0xFF	; 255
    444c:	9f ef       	ldi	r25, 0xFF	; 255
    444e:	02 c0       	rjmp	.+4      	; 0x4454 <get_ldnumber+0xee>
    4450:	8f ef       	ldi	r24, 0xFF	; 255
    4452:	9f ef       	ldi	r25, 0xFF	; 255
    4454:	df 91       	pop	r29
    4456:	cf 91       	pop	r28
    4458:	1f 91       	pop	r17
    445a:	ff 90       	pop	r15
    445c:	ef 90       	pop	r14
    445e:	08 95       	ret

00004460 <sync_window>:
    4460:	8f 92       	push	r8
    4462:	9f 92       	push	r9
    4464:	af 92       	push	r10
    4466:	bf 92       	push	r11
    4468:	ef 92       	push	r14
    446a:	ff 92       	push	r15
    446c:	0f 93       	push	r16
    446e:	1f 93       	push	r17
    4470:	cf 93       	push	r28
    4472:	df 93       	push	r29
    4474:	fc 01       	movw	r30, r24
    4476:	23 81       	ldd	r18, Z+3	; 0x03
    4478:	22 23       	and	r18, r18
    447a:	09 f4       	brne	.+2      	; 0x447e <sync_window+0x1e>
    447c:	3e c0       	rjmp	.+124    	; 0x44fa <sync_window+0x9a>
    447e:	ec 01       	movw	r28, r24
    4480:	7c 01       	movw	r14, r24
    4482:	f7 e4       	ldi	r31, 0x47	; 71
    4484:	ef 0e       	add	r14, r31
    4486:	f1 1c       	adc	r15, r1
    4488:	fc 01       	movw	r30, r24
    448a:	ed 5b       	subi	r30, 0xBD	; 189
    448c:	ff 4f       	sbci	r31, 0xFF	; 255
    448e:	20 81       	ld	r18, Z
    4490:	31 81       	ldd	r19, Z+1	; 0x01
    4492:	42 81       	ldd	r20, Z+2	; 0x02
    4494:	53 81       	ldd	r21, Z+3	; 0x03
    4496:	01 e0       	ldi	r16, 0x01	; 1
    4498:	10 e0       	ldi	r17, 0x00	; 0
    449a:	b7 01       	movw	r22, r14
    449c:	89 81       	ldd	r24, Y+1	; 0x01
    449e:	1d de       	rcall	.-966    	; 0x40da <disk_write>
    44a0:	81 11       	cpse	r24, r1
    44a2:	2d c0       	rjmp	.+90     	; 0x44fe <sync_window+0x9e>
    44a4:	1b 82       	std	Y+3, r1	; 0x03
    44a6:	fe 01       	movw	r30, r28
    44a8:	ed 5b       	subi	r30, 0xBD	; 189
    44aa:	ff 4f       	sbci	r31, 0xFF	; 255
    44ac:	00 81       	ld	r16, Z
    44ae:	11 81       	ldd	r17, Z+1	; 0x01
    44b0:	22 81       	ldd	r18, Z+2	; 0x02
    44b2:	33 81       	ldd	r19, Z+3	; 0x03
    44b4:	8b a5       	ldd	r24, Y+43	; 0x2b
    44b6:	9c a5       	ldd	r25, Y+44	; 0x2c
    44b8:	ad a5       	ldd	r26, Y+45	; 0x2d
    44ba:	be a5       	ldd	r27, Y+46	; 0x2e
    44bc:	8b a8       	ldd	r8, Y+51	; 0x33
    44be:	9c a8       	ldd	r9, Y+52	; 0x34
    44c0:	ad a8       	ldd	r10, Y+53	; 0x35
    44c2:	be a8       	ldd	r11, Y+54	; 0x36
    44c4:	b9 01       	movw	r22, r18
    44c6:	a8 01       	movw	r20, r16
    44c8:	48 19       	sub	r20, r8
    44ca:	59 09       	sbc	r21, r9
    44cc:	6a 09       	sbc	r22, r10
    44ce:	7b 09       	sbc	r23, r11
    44d0:	48 17       	cp	r20, r24
    44d2:	59 07       	cpc	r21, r25
    44d4:	6a 07       	cpc	r22, r26
    44d6:	7b 07       	cpc	r23, r27
    44d8:	a0 f4       	brcc	.+40     	; 0x4502 <sync_window+0xa2>
    44da:	6a 81       	ldd	r22, Y+2	; 0x02
    44dc:	62 30       	cpi	r22, 0x02	; 2
    44de:	99 f4       	brne	.+38     	; 0x4506 <sync_window+0xa6>
    44e0:	a9 01       	movw	r20, r18
    44e2:	98 01       	movw	r18, r16
    44e4:	28 0f       	add	r18, r24
    44e6:	39 1f       	adc	r19, r25
    44e8:	4a 1f       	adc	r20, r26
    44ea:	5b 1f       	adc	r21, r27
    44ec:	01 e0       	ldi	r16, 0x01	; 1
    44ee:	10 e0       	ldi	r17, 0x00	; 0
    44f0:	b7 01       	movw	r22, r14
    44f2:	89 81       	ldd	r24, Y+1	; 0x01
    44f4:	f2 dd       	rcall	.-1052   	; 0x40da <disk_write>
    44f6:	80 e0       	ldi	r24, 0x00	; 0
    44f8:	07 c0       	rjmp	.+14     	; 0x4508 <sync_window+0xa8>
    44fa:	80 e0       	ldi	r24, 0x00	; 0
    44fc:	05 c0       	rjmp	.+10     	; 0x4508 <sync_window+0xa8>
    44fe:	81 e0       	ldi	r24, 0x01	; 1
    4500:	03 c0       	rjmp	.+6      	; 0x4508 <sync_window+0xa8>
    4502:	80 e0       	ldi	r24, 0x00	; 0
    4504:	01 c0       	rjmp	.+2      	; 0x4508 <sync_window+0xa8>
    4506:	80 e0       	ldi	r24, 0x00	; 0
    4508:	df 91       	pop	r29
    450a:	cf 91       	pop	r28
    450c:	1f 91       	pop	r17
    450e:	0f 91       	pop	r16
    4510:	ff 90       	pop	r15
    4512:	ef 90       	pop	r14
    4514:	bf 90       	pop	r11
    4516:	af 90       	pop	r10
    4518:	9f 90       	pop	r9
    451a:	8f 90       	pop	r8
    451c:	08 95       	ret

0000451e <move_window>:
    451e:	8f 92       	push	r8
    4520:	9f 92       	push	r9
    4522:	af 92       	push	r10
    4524:	bf 92       	push	r11
    4526:	ff 92       	push	r15
    4528:	0f 93       	push	r16
    452a:	1f 93       	push	r17
    452c:	cf 93       	push	r28
    452e:	df 93       	push	r29
    4530:	ec 01       	movw	r28, r24
    4532:	4a 01       	movw	r8, r20
    4534:	5b 01       	movw	r10, r22
    4536:	fc 01       	movw	r30, r24
    4538:	ed 5b       	subi	r30, 0xBD	; 189
    453a:	ff 4f       	sbci	r31, 0xFF	; 255
    453c:	80 81       	ld	r24, Z
    453e:	91 81       	ldd	r25, Z+1	; 0x01
    4540:	a2 81       	ldd	r26, Z+2	; 0x02
    4542:	b3 81       	ldd	r27, Z+3	; 0x03
    4544:	84 17       	cp	r24, r20
    4546:	95 07       	cpc	r25, r21
    4548:	a6 07       	cpc	r26, r22
    454a:	b7 07       	cpc	r27, r23
    454c:	e9 f0       	breq	.+58     	; 0x4588 <move_window+0x6a>
    454e:	ce 01       	movw	r24, r28
    4550:	87 df       	rcall	.-242    	; 0x4460 <sync_window>
    4552:	f8 2e       	mov	r15, r24
    4554:	81 11       	cpse	r24, r1
    4556:	19 c0       	rjmp	.+50     	; 0x458a <move_window+0x6c>
    4558:	01 e0       	ldi	r16, 0x01	; 1
    455a:	10 e0       	ldi	r17, 0x00	; 0
    455c:	a5 01       	movw	r20, r10
    455e:	94 01       	movw	r18, r8
    4560:	be 01       	movw	r22, r28
    4562:	69 5b       	subi	r22, 0xB9	; 185
    4564:	7f 4f       	sbci	r23, 0xFF	; 255
    4566:	89 81       	ldd	r24, Y+1	; 0x01
    4568:	a8 dd       	rcall	.-1200   	; 0x40ba <disk_read>
    456a:	88 23       	and	r24, r24
    456c:	31 f0       	breq	.+12     	; 0x457a <move_window+0x5c>
    456e:	ff 24       	eor	r15, r15
    4570:	f3 94       	inc	r15
    4572:	88 24       	eor	r8, r8
    4574:	8a 94       	dec	r8
    4576:	98 2c       	mov	r9, r8
    4578:	54 01       	movw	r10, r8
    457a:	cd 5b       	subi	r28, 0xBD	; 189
    457c:	df 4f       	sbci	r29, 0xFF	; 255
    457e:	88 82       	st	Y, r8
    4580:	99 82       	std	Y+1, r9	; 0x01
    4582:	aa 82       	std	Y+2, r10	; 0x02
    4584:	bb 82       	std	Y+3, r11	; 0x03
    4586:	01 c0       	rjmp	.+2      	; 0x458a <move_window+0x6c>
    4588:	f1 2c       	mov	r15, r1
    458a:	8f 2d       	mov	r24, r15
    458c:	df 91       	pop	r29
    458e:	cf 91       	pop	r28
    4590:	1f 91       	pop	r17
    4592:	0f 91       	pop	r16
    4594:	ff 90       	pop	r15
    4596:	bf 90       	pop	r11
    4598:	af 90       	pop	r10
    459a:	9f 90       	pop	r9
    459c:	8f 90       	pop	r8
    459e:	08 95       	ret

000045a0 <find_bitmap>:
    45a0:	2f 92       	push	r2
    45a2:	3f 92       	push	r3
    45a4:	4f 92       	push	r4
    45a6:	5f 92       	push	r5
    45a8:	6f 92       	push	r6
    45aa:	7f 92       	push	r7
    45ac:	8f 92       	push	r8
    45ae:	9f 92       	push	r9
    45b0:	af 92       	push	r10
    45b2:	bf 92       	push	r11
    45b4:	cf 92       	push	r12
    45b6:	df 92       	push	r13
    45b8:	ef 92       	push	r14
    45ba:	ff 92       	push	r15
    45bc:	0f 93       	push	r16
    45be:	1f 93       	push	r17
    45c0:	cf 93       	push	r28
    45c2:	df 93       	push	r29
    45c4:	cd b7       	in	r28, 0x3d	; 61
    45c6:	de b7       	in	r29, 0x3e	; 62
    45c8:	2a 97       	sbiw	r28, 0x0a	; 10
    45ca:	0f b6       	in	r0, 0x3f	; 63
    45cc:	f8 94       	cli
    45ce:	de bf       	out	0x3e, r29	; 62
    45d0:	0f be       	out	0x3f, r0	; 63
    45d2:	cd bf       	out	0x3d, r28	; 61
    45d4:	9a 87       	std	Y+10, r25	; 0x0a
    45d6:	89 87       	std	Y+9, r24	; 0x09
    45d8:	0d 83       	std	Y+5, r16	; 0x05
    45da:	1e 83       	std	Y+6, r17	; 0x06
    45dc:	2f 83       	std	Y+7, r18	; 0x07
    45de:	38 87       	std	Y+8, r19	; 0x08
    45e0:	2a 01       	movw	r4, r20
    45e2:	3b 01       	movw	r6, r22
    45e4:	82 e0       	ldi	r24, 0x02	; 2
    45e6:	48 1a       	sub	r4, r24
    45e8:	51 08       	sbc	r5, r1
    45ea:	61 08       	sbc	r6, r1
    45ec:	71 08       	sbc	r7, r1
    45ee:	e9 85       	ldd	r30, Y+9	; 0x09
    45f0:	fa 85       	ldd	r31, Y+10	; 0x0a
    45f2:	87 a1       	ldd	r24, Z+39	; 0x27
    45f4:	90 a5       	ldd	r25, Z+40	; 0x28
    45f6:	a1 a5       	ldd	r26, Z+41	; 0x29
    45f8:	b2 a5       	ldd	r27, Z+42	; 0x2a
    45fa:	02 97       	sbiw	r24, 0x02	; 2
    45fc:	a1 09       	sbc	r26, r1
    45fe:	b1 09       	sbc	r27, r1
    4600:	48 16       	cp	r4, r24
    4602:	59 06       	cpc	r5, r25
    4604:	6a 06       	cpc	r6, r26
    4606:	7b 06       	cpc	r7, r27
    4608:	18 f0       	brcs	.+6      	; 0x4610 <find_bitmap+0x70>
    460a:	41 2c       	mov	r4, r1
    460c:	51 2c       	mov	r5, r1
    460e:	32 01       	movw	r6, r4
    4610:	49 82       	std	Y+1, r4	; 0x01
    4612:	5a 82       	std	Y+2, r5	; 0x02
    4614:	6b 82       	std	Y+3, r6	; 0x03
    4616:	7c 82       	std	Y+4, r7	; 0x04
    4618:	73 01       	movw	r14, r6
    461a:	62 01       	movw	r12, r4
    461c:	81 2c       	mov	r8, r1
    461e:	91 2c       	mov	r9, r1
    4620:	54 01       	movw	r10, r8
    4622:	29 84       	ldd	r2, Y+9	; 0x09
    4624:	3a 84       	ldd	r3, Y+10	; 0x0a
    4626:	ff e3       	ldi	r31, 0x3F	; 63
    4628:	2f 0e       	add	r2, r31
    462a:	31 1c       	adc	r3, r1
    462c:	11 e0       	ldi	r17, 0x01	; 1
    462e:	f1 01       	movw	r30, r2
    4630:	80 81       	ld	r24, Z
    4632:	91 81       	ldd	r25, Z+1	; 0x01
    4634:	a2 81       	ldd	r26, Z+2	; 0x02
    4636:	b3 81       	ldd	r27, Z+3	; 0x03
    4638:	b7 01       	movw	r22, r14
    463a:	a6 01       	movw	r20, r12
    463c:	03 2e       	mov	r0, r19
    463e:	3c e0       	ldi	r19, 0x0C	; 12
    4640:	76 95       	lsr	r23
    4642:	67 95       	ror	r22
    4644:	57 95       	ror	r21
    4646:	47 95       	ror	r20
    4648:	3a 95       	dec	r19
    464a:	d1 f7       	brne	.-12     	; 0x4640 <find_bitmap+0xa0>
    464c:	30 2d       	mov	r19, r0
    464e:	48 0f       	add	r20, r24
    4650:	59 1f       	adc	r21, r25
    4652:	6a 1f       	adc	r22, r26
    4654:	7b 1f       	adc	r23, r27
    4656:	89 85       	ldd	r24, Y+9	; 0x09
    4658:	9a 85       	ldd	r25, Y+10	; 0x0a
    465a:	61 df       	rcall	.-318    	; 0x451e <move_window>
    465c:	81 11       	cpse	r24, r1
    465e:	6c c0       	rjmp	.+216    	; 0x4738 <find_bitmap+0x198>
    4660:	d7 01       	movw	r26, r14
    4662:	c6 01       	movw	r24, r12
    4664:	68 94       	set
    4666:	12 f8       	bld	r1, 2
    4668:	b6 95       	lsr	r27
    466a:	a7 95       	ror	r26
    466c:	97 95       	ror	r25
    466e:	87 95       	ror	r24
    4670:	16 94       	lsr	r1
    4672:	d1 f7       	brne	.-12     	; 0x4668 <find_bitmap+0xc8>
    4674:	9c 01       	movw	r18, r24
    4676:	31 70       	andi	r19, 0x01	; 1
    4678:	c6 01       	movw	r24, r12
    467a:	87 70       	andi	r24, 0x07	; 7
    467c:	99 27       	eor	r25, r25
    467e:	f1 2f       	mov	r31, r17
    4680:	01 c0       	rjmp	.+2      	; 0x4684 <find_bitmap+0xe4>
    4682:	ff 0f       	add	r31, r31
    4684:	8a 95       	dec	r24
    4686:	ea f7       	brpl	.-6      	; 0x4682 <find_bitmap+0xe2>
    4688:	a9 85       	ldd	r26, Y+9	; 0x09
    468a:	ba 85       	ldd	r27, Y+10	; 0x0a
    468c:	97 96       	adiw	r26, 0x27	; 39
    468e:	4d 91       	ld	r20, X+
    4690:	5d 91       	ld	r21, X+
    4692:	6d 91       	ld	r22, X+
    4694:	7c 91       	ld	r23, X
    4696:	9a 97       	sbiw	r26, 0x2a	; 42
    4698:	42 50       	subi	r20, 0x02	; 2
    469a:	51 09       	sbc	r21, r1
    469c:	61 09       	sbc	r22, r1
    469e:	71 09       	sbc	r23, r1
    46a0:	0f 2f       	mov	r16, r31
    46a2:	01 c0       	rjmp	.+2      	; 0x46a6 <find_bitmap+0x106>
    46a4:	01 e0       	ldi	r16, 0x01	; 1
    46a6:	e9 85       	ldd	r30, Y+9	; 0x09
    46a8:	fa 85       	ldd	r31, Y+10	; 0x0a
    46aa:	e2 0f       	add	r30, r18
    46ac:	f3 1f       	adc	r31, r19
    46ae:	e9 5b       	subi	r30, 0xB9	; 185
    46b0:	ff 4f       	sbci	r31, 0xFF	; 255
    46b2:	90 81       	ld	r25, Z
    46b4:	90 23       	and	r25, r16
    46b6:	bf ef       	ldi	r27, 0xFF	; 255
    46b8:	cb 1a       	sub	r12, r27
    46ba:	db 0a       	sbc	r13, r27
    46bc:	eb 0a       	sbc	r14, r27
    46be:	fb 0a       	sbc	r15, r27
    46c0:	c4 16       	cp	r12, r20
    46c2:	d5 06       	cpc	r13, r21
    46c4:	e6 06       	cpc	r14, r22
    46c6:	f7 06       	cpc	r15, r23
    46c8:	10 f4       	brcc	.+4      	; 0x46ce <find_bitmap+0x12e>
    46ca:	00 0f       	add	r16, r16
    46cc:	06 c0       	rjmp	.+12     	; 0x46da <find_bitmap+0x13a>
    46ce:	c1 2c       	mov	r12, r1
    46d0:	d1 2c       	mov	r13, r1
    46d2:	76 01       	movw	r14, r12
    46d4:	20 e0       	ldi	r18, 0x00	; 0
    46d6:	32 e0       	ldi	r19, 0x02	; 2
    46d8:	00 e0       	ldi	r16, 0x00	; 0
    46da:	91 11       	cpse	r25, r1
    46dc:	17 c0       	rjmp	.+46     	; 0x470c <find_bitmap+0x16c>
    46de:	ef ef       	ldi	r30, 0xFF	; 255
    46e0:	8e 1a       	sub	r8, r30
    46e2:	9e 0a       	sbc	r9, r30
    46e4:	ae 0a       	sbc	r10, r30
    46e6:	be 0a       	sbc	r11, r30
    46e8:	8d 81       	ldd	r24, Y+5	; 0x05
    46ea:	9e 81       	ldd	r25, Y+6	; 0x06
    46ec:	af 81       	ldd	r26, Y+7	; 0x07
    46ee:	b8 85       	ldd	r27, Y+8	; 0x08
    46f0:	88 16       	cp	r8, r24
    46f2:	99 06       	cpc	r9, r25
    46f4:	aa 06       	cpc	r10, r26
    46f6:	bb 06       	cpc	r11, r27
    46f8:	81 f4       	brne	.+32     	; 0x471a <find_bitmap+0x17a>
    46fa:	69 81       	ldd	r22, Y+1	; 0x01
    46fc:	7a 81       	ldd	r23, Y+2	; 0x02
    46fe:	8b 81       	ldd	r24, Y+3	; 0x03
    4700:	9c 81       	ldd	r25, Y+4	; 0x04
    4702:	6e 5f       	subi	r22, 0xFE	; 254
    4704:	7f 4f       	sbci	r23, 0xFF	; 255
    4706:	8f 4f       	sbci	r24, 0xFF	; 255
    4708:	9f 4f       	sbci	r25, 0xFF	; 255
    470a:	1d c0       	rjmp	.+58     	; 0x4746 <find_bitmap+0x1a6>
    470c:	c9 82       	std	Y+1, r12	; 0x01
    470e:	da 82       	std	Y+2, r13	; 0x02
    4710:	eb 82       	std	Y+3, r14	; 0x03
    4712:	fc 82       	std	Y+4, r15	; 0x04
    4714:	81 2c       	mov	r8, r1
    4716:	91 2c       	mov	r9, r1
    4718:	54 01       	movw	r10, r8
    471a:	4c 14       	cp	r4, r12
    471c:	5d 04       	cpc	r5, r13
    471e:	6e 04       	cpc	r6, r14
    4720:	7f 04       	cpc	r7, r15
    4722:	71 f0       	breq	.+28     	; 0x4740 <find_bitmap+0x1a0>
    4724:	01 11       	cpse	r16, r1
    4726:	bf cf       	rjmp	.-130    	; 0x46a6 <find_bitmap+0x106>
    4728:	2f 5f       	subi	r18, 0xFF	; 255
    472a:	3f 4f       	sbci	r19, 0xFF	; 255
    472c:	21 15       	cp	r18, r1
    472e:	92 e0       	ldi	r25, 0x02	; 2
    4730:	39 07       	cpc	r19, r25
    4732:	08 f4       	brcc	.+2      	; 0x4736 <find_bitmap+0x196>
    4734:	b7 cf       	rjmp	.-146    	; 0x46a4 <find_bitmap+0x104>
    4736:	7b cf       	rjmp	.-266    	; 0x462e <find_bitmap+0x8e>
    4738:	6f ef       	ldi	r22, 0xFF	; 255
    473a:	7f ef       	ldi	r23, 0xFF	; 255
    473c:	cb 01       	movw	r24, r22
    473e:	03 c0       	rjmp	.+6      	; 0x4746 <find_bitmap+0x1a6>
    4740:	60 e0       	ldi	r22, 0x00	; 0
    4742:	70 e0       	ldi	r23, 0x00	; 0
    4744:	cb 01       	movw	r24, r22
    4746:	2a 96       	adiw	r28, 0x0a	; 10
    4748:	0f b6       	in	r0, 0x3f	; 63
    474a:	f8 94       	cli
    474c:	de bf       	out	0x3e, r29	; 62
    474e:	0f be       	out	0x3f, r0	; 63
    4750:	cd bf       	out	0x3d, r28	; 61
    4752:	df 91       	pop	r29
    4754:	cf 91       	pop	r28
    4756:	1f 91       	pop	r17
    4758:	0f 91       	pop	r16
    475a:	ff 90       	pop	r15
    475c:	ef 90       	pop	r14
    475e:	df 90       	pop	r13
    4760:	cf 90       	pop	r12
    4762:	bf 90       	pop	r11
    4764:	af 90       	pop	r10
    4766:	9f 90       	pop	r9
    4768:	8f 90       	pop	r8
    476a:	7f 90       	pop	r7
    476c:	6f 90       	pop	r6
    476e:	5f 90       	pop	r5
    4770:	4f 90       	pop	r4
    4772:	3f 90       	pop	r3
    4774:	2f 90       	pop	r2
    4776:	08 95       	ret

00004778 <change_bitmap>:
    4778:	2f 92       	push	r2
    477a:	3f 92       	push	r3
    477c:	4f 92       	push	r4
    477e:	5f 92       	push	r5
    4780:	6f 92       	push	r6
    4782:	7f 92       	push	r7
    4784:	8f 92       	push	r8
    4786:	9f 92       	push	r9
    4788:	af 92       	push	r10
    478a:	bf 92       	push	r11
    478c:	cf 92       	push	r12
    478e:	df 92       	push	r13
    4790:	ef 92       	push	r14
    4792:	ff 92       	push	r15
    4794:	0f 93       	push	r16
    4796:	1f 93       	push	r17
    4798:	cf 93       	push	r28
    479a:	df 93       	push	r29
    479c:	6c 01       	movw	r12, r24
    479e:	48 01       	movw	r8, r16
    47a0:	59 01       	movw	r10, r18
    47a2:	db 01       	movw	r26, r22
    47a4:	ca 01       	movw	r24, r20
    47a6:	02 97       	sbiw	r24, 0x02	; 2
    47a8:	a1 09       	sbc	r26, r1
    47aa:	b1 09       	sbc	r27, r1
    47ac:	f6 01       	movw	r30, r12
    47ae:	ff 96       	adiw	r30, 0x3f	; 63
    47b0:	8c 01       	movw	r16, r24
    47b2:	9d 01       	movw	r18, r26
    47b4:	0f 2e       	mov	r0, r31
    47b6:	fc e0       	ldi	r31, 0x0C	; 12
    47b8:	36 95       	lsr	r19
    47ba:	27 95       	ror	r18
    47bc:	17 95       	ror	r17
    47be:	07 95       	ror	r16
    47c0:	fa 95       	dec	r31
    47c2:	d1 f7       	brne	.-12     	; 0x47b8 <change_bitmap+0x40>
    47c4:	f0 2d       	mov	r31, r0
    47c6:	40 81       	ld	r20, Z
    47c8:	51 81       	ldd	r21, Z+1	; 0x01
    47ca:	62 81       	ldd	r22, Z+2	; 0x02
    47cc:	73 81       	ldd	r23, Z+3	; 0x03
    47ce:	40 0f       	add	r20, r16
    47d0:	51 1f       	adc	r21, r17
    47d2:	62 1f       	adc	r22, r18
    47d4:	73 1f       	adc	r23, r19
    47d6:	8c 01       	movw	r16, r24
    47d8:	9d 01       	movw	r18, r26
    47da:	68 94       	set
    47dc:	12 f8       	bld	r1, 2
    47de:	36 95       	lsr	r19
    47e0:	27 95       	ror	r18
    47e2:	17 95       	ror	r17
    47e4:	07 95       	ror	r16
    47e6:	16 94       	lsr	r1
    47e8:	d1 f7       	brne	.-12     	; 0x47de <change_bitmap+0x66>
    47ea:	e8 01       	movw	r28, r16
    47ec:	d1 70       	andi	r29, 0x01	; 1
    47ee:	87 70       	andi	r24, 0x07	; 7
    47f0:	99 27       	eor	r25, r25
    47f2:	11 e0       	ldi	r17, 0x01	; 1
    47f4:	01 c0       	rjmp	.+2      	; 0x47f8 <change_bitmap+0x80>
    47f6:	11 0f       	add	r17, r17
    47f8:	8a 95       	dec	r24
    47fa:	ea f7       	brpl	.-6      	; 0x47f6 <change_bitmap+0x7e>
    47fc:	22 24       	eor	r2, r2
    47fe:	23 94       	inc	r2
    4800:	33 24       	eor	r3, r3
    4802:	33 94       	inc	r3
    4804:	00 e0       	ldi	r16, 0x00	; 0
    4806:	2a 01       	movw	r4, r20
    4808:	3b 01       	movw	r6, r22
    480a:	8f ef       	ldi	r24, 0xFF	; 255
    480c:	48 1a       	sub	r4, r24
    480e:	58 0a       	sbc	r5, r24
    4810:	68 0a       	sbc	r6, r24
    4812:	78 0a       	sbc	r7, r24
    4814:	c6 01       	movw	r24, r12
    4816:	83 de       	rcall	.-762    	; 0x451e <move_window>
    4818:	81 11       	cpse	r24, r1
    481a:	30 c0       	rjmp	.+96     	; 0x487c <change_bitmap+0x104>
    481c:	01 c0       	rjmp	.+2      	; 0x4820 <change_bitmap+0xa8>
    481e:	11 e0       	ldi	r17, 0x01	; 1
    4820:	f6 01       	movw	r30, r12
    4822:	ec 0f       	add	r30, r28
    4824:	fd 1f       	adc	r31, r29
    4826:	e9 5b       	subi	r30, 0xB9	; 185
    4828:	ff 4f       	sbci	r31, 0xFF	; 255
    482a:	90 81       	ld	r25, Z
    482c:	41 2f       	mov	r20, r17
    482e:	49 23       	and	r20, r25
    4830:	23 2d       	mov	r18, r3
    4832:	30 2f       	mov	r19, r16
    4834:	11 f4       	brne	.+4      	; 0x483a <change_bitmap+0xc2>
    4836:	20 e0       	ldi	r18, 0x00	; 0
    4838:	30 e0       	ldi	r19, 0x00	; 0
    483a:	2e 15       	cp	r18, r14
    483c:	3f 05       	cpc	r19, r15
    483e:	01 f1       	breq	.+64     	; 0x4880 <change_bitmap+0x108>
    4840:	f6 01       	movw	r30, r12
    4842:	ec 0f       	add	r30, r28
    4844:	fd 1f       	adc	r31, r29
    4846:	e9 5b       	subi	r30, 0xB9	; 185
    4848:	ff 4f       	sbci	r31, 0xFF	; 255
    484a:	91 27       	eor	r25, r17
    484c:	90 83       	st	Z, r25
    484e:	f6 01       	movw	r30, r12
    4850:	23 82       	std	Z+3, r2	; 0x03
    4852:	f1 e0       	ldi	r31, 0x01	; 1
    4854:	8f 1a       	sub	r8, r31
    4856:	91 08       	sbc	r9, r1
    4858:	a1 08       	sbc	r10, r1
    485a:	b1 08       	sbc	r11, r1
    485c:	91 f0       	breq	.+36     	; 0x4882 <change_bitmap+0x10a>
    485e:	11 0f       	add	r17, r17
    4860:	f9 f6       	brne	.-66     	; 0x4820 <change_bitmap+0xa8>
    4862:	21 96       	adiw	r28, 0x01	; 1
    4864:	11 e0       	ldi	r17, 0x01	; 1
    4866:	c1 15       	cp	r28, r1
    4868:	92 e0       	ldi	r25, 0x02	; 2
    486a:	d9 07       	cpc	r29, r25
    486c:	c0 f2       	brcs	.-80     	; 0x481e <change_bitmap+0xa6>
    486e:	b3 01       	movw	r22, r6
    4870:	a2 01       	movw	r20, r4
    4872:	e0 e0       	ldi	r30, 0x00	; 0
    4874:	ce 2f       	mov	r28, r30
    4876:	f0 e0       	ldi	r31, 0x00	; 0
    4878:	df 2f       	mov	r29, r31
    487a:	c5 cf       	rjmp	.-118    	; 0x4806 <change_bitmap+0x8e>
    487c:	81 e0       	ldi	r24, 0x01	; 1
    487e:	01 c0       	rjmp	.+2      	; 0x4882 <change_bitmap+0x10a>
    4880:	82 e0       	ldi	r24, 0x02	; 2
    4882:	df 91       	pop	r29
    4884:	cf 91       	pop	r28
    4886:	1f 91       	pop	r17
    4888:	0f 91       	pop	r16
    488a:	ff 90       	pop	r15
    488c:	ef 90       	pop	r14
    488e:	df 90       	pop	r13
    4890:	cf 90       	pop	r12
    4892:	bf 90       	pop	r11
    4894:	af 90       	pop	r10
    4896:	9f 90       	pop	r9
    4898:	8f 90       	pop	r8
    489a:	7f 90       	pop	r7
    489c:	6f 90       	pop	r6
    489e:	5f 90       	pop	r5
    48a0:	4f 90       	pop	r4
    48a2:	3f 90       	pop	r3
    48a4:	2f 90       	pop	r2
    48a6:	08 95       	ret

000048a8 <dir_clear>:
    48a8:	8f 92       	push	r8
    48aa:	9f 92       	push	r9
    48ac:	af 92       	push	r10
    48ae:	bf 92       	push	r11
    48b0:	cf 92       	push	r12
    48b2:	df 92       	push	r13
    48b4:	ef 92       	push	r14
    48b6:	ff 92       	push	r15
    48b8:	0f 93       	push	r16
    48ba:	1f 93       	push	r17
    48bc:	cf 93       	push	r28
    48be:	df 93       	push	r29
    48c0:	7c 01       	movw	r14, r24
    48c2:	4a 01       	movw	r8, r20
    48c4:	5b 01       	movw	r10, r22
    48c6:	cc dd       	rcall	.-1128   	; 0x4460 <sync_window>
    48c8:	81 11       	cpse	r24, r1
    48ca:	40 c0       	rjmp	.+128    	; 0x494c <dir_clear+0xa4>
    48cc:	b5 01       	movw	r22, r10
    48ce:	a4 01       	movw	r20, r8
    48d0:	c7 01       	movw	r24, r14
    48d2:	a8 dc       	rcall	.-1712   	; 0x4224 <clst2sect>
    48d4:	4b 01       	movw	r8, r22
    48d6:	5c 01       	movw	r10, r24
    48d8:	f7 01       	movw	r30, r14
    48da:	ed 5b       	subi	r30, 0xBD	; 189
    48dc:	ff 4f       	sbci	r31, 0xFF	; 255
    48de:	60 83       	st	Z, r22
    48e0:	71 83       	std	Z+1, r23	; 0x01
    48e2:	82 83       	std	Z+2, r24	; 0x02
    48e4:	93 83       	std	Z+3, r25	; 0x03
    48e6:	67 01       	movw	r12, r14
    48e8:	87 e4       	ldi	r24, 0x47	; 71
    48ea:	c8 0e       	add	r12, r24
    48ec:	d1 1c       	adc	r13, r1
    48ee:	40 e0       	ldi	r20, 0x00	; 0
    48f0:	52 e0       	ldi	r21, 0x02	; 2
    48f2:	60 e0       	ldi	r22, 0x00	; 0
    48f4:	70 e0       	ldi	r23, 0x00	; 0
    48f6:	c6 01       	movw	r24, r12
    48f8:	7f dc       	rcall	.-1794   	; 0x41f8 <mem_set>
    48fa:	f7 01       	movw	r30, r14
    48fc:	81 85       	ldd	r24, Z+9	; 0x09
    48fe:	92 85       	ldd	r25, Z+10	; 0x0a
    4900:	89 2b       	or	r24, r25
    4902:	59 f4       	brne	.+22     	; 0x491a <dir_clear+0x72>
    4904:	c0 e0       	ldi	r28, 0x00	; 0
    4906:	d0 e0       	ldi	r29, 0x00	; 0
    4908:	18 c0       	rjmp	.+48     	; 0x493a <dir_clear+0x92>
    490a:	21 96       	adiw	r28, 0x01	; 1
    490c:	f7 01       	movw	r30, r14
    490e:	81 85       	ldd	r24, Z+9	; 0x09
    4910:	92 85       	ldd	r25, Z+10	; 0x0a
    4912:	c8 17       	cp	r28, r24
    4914:	d9 07       	cpc	r29, r25
    4916:	18 f0       	brcs	.+6      	; 0x491e <dir_clear+0x76>
    4918:	10 c0       	rjmp	.+32     	; 0x493a <dir_clear+0x92>
    491a:	c0 e0       	ldi	r28, 0x00	; 0
    491c:	d0 e0       	ldi	r29, 0x00	; 0
    491e:	01 e0       	ldi	r16, 0x01	; 1
    4920:	10 e0       	ldi	r17, 0x00	; 0
    4922:	a5 01       	movw	r20, r10
    4924:	94 01       	movw	r18, r8
    4926:	2c 0f       	add	r18, r28
    4928:	3d 1f       	adc	r19, r29
    492a:	41 1d       	adc	r20, r1
    492c:	51 1d       	adc	r21, r1
    492e:	b6 01       	movw	r22, r12
    4930:	f7 01       	movw	r30, r14
    4932:	81 81       	ldd	r24, Z+1	; 0x01
    4934:	d2 db       	rcall	.-2140   	; 0x40da <disk_write>
    4936:	88 23       	and	r24, r24
    4938:	41 f3       	breq	.-48     	; 0x490a <dir_clear+0x62>
    493a:	81 e0       	ldi	r24, 0x01	; 1
    493c:	f7 01       	movw	r30, r14
    493e:	21 85       	ldd	r18, Z+9	; 0x09
    4940:	32 85       	ldd	r19, Z+10	; 0x0a
    4942:	2c 17       	cp	r18, r28
    4944:	3d 07       	cpc	r19, r29
    4946:	19 f4       	brne	.+6      	; 0x494e <dir_clear+0xa6>
    4948:	80 e0       	ldi	r24, 0x00	; 0
    494a:	01 c0       	rjmp	.+2      	; 0x494e <dir_clear+0xa6>
    494c:	81 e0       	ldi	r24, 0x01	; 1
    494e:	df 91       	pop	r29
    4950:	cf 91       	pop	r28
    4952:	1f 91       	pop	r17
    4954:	0f 91       	pop	r16
    4956:	ff 90       	pop	r15
    4958:	ef 90       	pop	r14
    495a:	df 90       	pop	r13
    495c:	cf 90       	pop	r12
    495e:	bf 90       	pop	r11
    4960:	af 90       	pop	r10
    4962:	9f 90       	pop	r9
    4964:	8f 90       	pop	r8
    4966:	08 95       	ret

00004968 <xname_sum>:
    4968:	af 92       	push	r10
    496a:	bf 92       	push	r11
    496c:	cf 92       	push	r12
    496e:	df 92       	push	r13
    4970:	0f 93       	push	r16
    4972:	1f 93       	push	r17
    4974:	cf 93       	push	r28
    4976:	df 93       	push	r29
    4978:	ec 01       	movw	r28, r24
    497a:	22 96       	adiw	r28, 0x02	; 2
    497c:	fc 01       	movw	r30, r24
    497e:	60 81       	ld	r22, Z
    4980:	71 81       	ldd	r23, Z+1	; 0x01
    4982:	61 15       	cp	r22, r1
    4984:	71 05       	cpc	r23, r1
    4986:	79 f1       	breq	.+94     	; 0x49e6 <xname_sum+0x7e>
    4988:	00 e0       	ldi	r16, 0x00	; 0
    498a:	10 e0       	ldi	r17, 0x00	; 0
    498c:	a1 2c       	mov	r10, r1
    498e:	68 94       	set
    4990:	bb 24       	eor	r11, r11
    4992:	b7 f8       	bld	r11, 7
    4994:	80 e0       	ldi	r24, 0x00	; 0
    4996:	90 e0       	ldi	r25, 0x00	; 0
    4998:	0e 94 88 46 	call	0x8d10	; 0x8d10 <ff_wtoupper>
    499c:	f8 01       	movw	r30, r16
    499e:	e1 70       	andi	r30, 0x01	; 1
    49a0:	ff 27       	eor	r31, r31
    49a2:	00 ff       	sbrs	r16, 0
    49a4:	02 c0       	rjmp	.+4      	; 0x49aa <xname_sum+0x42>
    49a6:	ea 2d       	mov	r30, r10
    49a8:	fb 2d       	mov	r31, r11
    49aa:	98 01       	movw	r18, r16
    49ac:	36 95       	lsr	r19
    49ae:	27 95       	ror	r18
    49b0:	ab 01       	movw	r20, r22
    49b2:	55 27       	eor	r21, r21
    49b4:	24 0f       	add	r18, r20
    49b6:	35 1f       	adc	r19, r21
    49b8:	2e 0f       	add	r18, r30
    49ba:	3f 1f       	adc	r19, r31
    49bc:	89 01       	movw	r16, r18
    49be:	01 70       	andi	r16, 0x01	; 1
    49c0:	11 27       	eor	r17, r17
    49c2:	20 ff       	sbrs	r18, 0
    49c4:	02 c0       	rjmp	.+4      	; 0x49ca <xname_sum+0x62>
    49c6:	0a 2d       	mov	r16, r10
    49c8:	1b 2d       	mov	r17, r11
    49ca:	36 95       	lsr	r19
    49cc:	27 95       	ror	r18
    49ce:	c7 2e       	mov	r12, r23
    49d0:	dd 24       	eor	r13, r13
    49d2:	2c 0d       	add	r18, r12
    49d4:	3d 1d       	adc	r19, r13
    49d6:	02 0f       	add	r16, r18
    49d8:	13 1f       	adc	r17, r19
    49da:	69 91       	ld	r22, Y+
    49dc:	79 91       	ld	r23, Y+
    49de:	61 15       	cp	r22, r1
    49e0:	71 05       	cpc	r23, r1
    49e2:	c1 f6       	brne	.-80     	; 0x4994 <xname_sum+0x2c>
    49e4:	02 c0       	rjmp	.+4      	; 0x49ea <xname_sum+0x82>
    49e6:	00 e0       	ldi	r16, 0x00	; 0
    49e8:	10 e0       	ldi	r17, 0x00	; 0
    49ea:	c8 01       	movw	r24, r16
    49ec:	df 91       	pop	r29
    49ee:	cf 91       	pop	r28
    49f0:	1f 91       	pop	r17
    49f2:	0f 91       	pop	r16
    49f4:	df 90       	pop	r13
    49f6:	cf 90       	pop	r12
    49f8:	bf 90       	pop	r11
    49fa:	af 90       	pop	r10
    49fc:	08 95       	ret

000049fe <tchar2uni>:
    49fe:	0f 93       	push	r16
    4a00:	1f 93       	push	r17
    4a02:	cf 93       	push	r28
    4a04:	df 93       	push	r29
    4a06:	fc 01       	movw	r30, r24
    4a08:	a0 81       	ld	r26, Z
    4a0a:	b1 81       	ldd	r27, Z+1	; 0x01
    4a0c:	8d 01       	movw	r16, r26
    4a0e:	0f 5f       	subi	r16, 0xFF	; 255
    4a10:	1f 4f       	sbci	r17, 0xFF	; 255
    4a12:	9c 91       	ld	r25, X
    4a14:	29 2f       	mov	r18, r25
    4a16:	30 e0       	ldi	r19, 0x00	; 0
    4a18:	91 38       	cpi	r25, 0x81	; 129
    4a1a:	80 f0       	brcs	.+32     	; 0x4a3c <tchar2uni+0x3e>
    4a1c:	90 3a       	cpi	r25, 0xA0	; 160
    4a1e:	68 f1       	brcs	.+90     	; 0x4a7a <tchar2uni+0x7c>
    4a20:	90 5e       	subi	r25, 0xE0	; 224
    4a22:	9d 31       	cpi	r25, 0x1D	; 29
    4a24:	50 f1       	brcs	.+84     	; 0x4a7a <tchar2uni+0x7c>
    4a26:	0a c0       	rjmp	.+20     	; 0x4a3c <tchar2uni+0x3e>
    4a28:	90 e8       	ldi	r25, 0x80	; 128
    4a2a:	98 0f       	add	r25, r24
    4a2c:	9d 37       	cpi	r25, 0x7D	; 125
    4a2e:	e0 f0       	brcs	.+56     	; 0x4a68 <tchar2uni+0x6a>
    4a30:	8f 37       	cpi	r24, 0x7F	; 127
    4a32:	d0 f0       	brcs	.+52     	; 0x4a68 <tchar2uni+0x6a>
    4a34:	6f ef       	ldi	r22, 0xFF	; 255
    4a36:	7f ef       	ldi	r23, 0xFF	; 255
    4a38:	cb 01       	movw	r24, r22
    4a3a:	27 c0       	rjmp	.+78     	; 0x4a8a <tchar2uni+0x8c>
    4a3c:	ef 01       	movw	r28, r30
    4a3e:	21 15       	cp	r18, r1
    4a40:	31 05       	cpc	r19, r1
    4a42:	41 f0       	breq	.+16     	; 0x4a54 <tchar2uni+0x56>
    4a44:	64 ea       	ldi	r22, 0xA4	; 164
    4a46:	73 e0       	ldi	r23, 0x03	; 3
    4a48:	c9 01       	movw	r24, r18
    4a4a:	0e 94 6d 46 	call	0x8cda	; 0x8cda <ff_oem2uni>
    4a4e:	9c 01       	movw	r18, r24
    4a50:	89 2b       	or	r24, r25
    4a52:	31 f0       	breq	.+12     	; 0x4a60 <tchar2uni+0x62>
    4a54:	19 83       	std	Y+1, r17	; 0x01
    4a56:	08 83       	st	Y, r16
    4a58:	b9 01       	movw	r22, r18
    4a5a:	80 e0       	ldi	r24, 0x00	; 0
    4a5c:	90 e0       	ldi	r25, 0x00	; 0
    4a5e:	15 c0       	rjmp	.+42     	; 0x4a8a <tchar2uni+0x8c>
    4a60:	6f ef       	ldi	r22, 0xFF	; 255
    4a62:	7f ef       	ldi	r23, 0xFF	; 255
    4a64:	cb 01       	movw	r24, r22
    4a66:	11 c0       	rjmp	.+34     	; 0x4a8a <tchar2uni+0x8c>
    4a68:	8d 01       	movw	r16, r26
    4a6a:	0e 5f       	subi	r16, 0xFE	; 254
    4a6c:	1f 4f       	sbci	r17, 0xFF	; 255
    4a6e:	72 2f       	mov	r23, r18
    4a70:	66 27       	eor	r22, r22
    4a72:	9b 01       	movw	r18, r22
    4a74:	28 0f       	add	r18, r24
    4a76:	31 1d       	adc	r19, r1
    4a78:	e1 cf       	rjmp	.-62     	; 0x4a3c <tchar2uni+0x3e>
    4a7a:	11 96       	adiw	r26, 0x01	; 1
    4a7c:	8c 91       	ld	r24, X
    4a7e:	11 97       	sbiw	r26, 0x01	; 1
    4a80:	80 34       	cpi	r24, 0x40	; 64
    4a82:	90 f6       	brcc	.-92     	; 0x4a28 <tchar2uni+0x2a>
    4a84:	6f ef       	ldi	r22, 0xFF	; 255
    4a86:	7f ef       	ldi	r23, 0xFF	; 255
    4a88:	cb 01       	movw	r24, r22
    4a8a:	df 91       	pop	r29
    4a8c:	cf 91       	pop	r28
    4a8e:	1f 91       	pop	r17
    4a90:	0f 91       	pop	r16
    4a92:	08 95       	ret

00004a94 <put_fat>:
    4a94:	2f 92       	push	r2
    4a96:	3f 92       	push	r3
    4a98:	4f 92       	push	r4
    4a9a:	5f 92       	push	r5
    4a9c:	6f 92       	push	r6
    4a9e:	7f 92       	push	r7
    4aa0:	8f 92       	push	r8
    4aa2:	9f 92       	push	r9
    4aa4:	af 92       	push	r10
    4aa6:	bf 92       	push	r11
    4aa8:	cf 92       	push	r12
    4aaa:	df 92       	push	r13
    4aac:	ef 92       	push	r14
    4aae:	ff 92       	push	r15
    4ab0:	0f 93       	push	r16
    4ab2:	1f 93       	push	r17
    4ab4:	cf 93       	push	r28
    4ab6:	df 93       	push	r29
    4ab8:	ec 01       	movw	r28, r24
    4aba:	6a 01       	movw	r12, r20
    4abc:	7b 01       	movw	r14, r22
    4abe:	28 01       	movw	r4, r16
    4ac0:	39 01       	movw	r6, r18
    4ac2:	42 30       	cpi	r20, 0x02	; 2
    4ac4:	51 05       	cpc	r21, r1
    4ac6:	61 05       	cpc	r22, r1
    4ac8:	71 05       	cpc	r23, r1
    4aca:	08 f4       	brcc	.+2      	; 0x4ace <put_fat+0x3a>
    4acc:	d8 c0       	rjmp	.+432    	; 0x4c7e <put_fat+0x1ea>
    4ace:	8f a1       	ldd	r24, Y+39	; 0x27
    4ad0:	98 a5       	ldd	r25, Y+40	; 0x28
    4ad2:	a9 a5       	ldd	r26, Y+41	; 0x29
    4ad4:	ba a5       	ldd	r27, Y+42	; 0x2a
    4ad6:	48 17       	cp	r20, r24
    4ad8:	59 07       	cpc	r21, r25
    4ada:	6a 07       	cpc	r22, r26
    4adc:	7b 07       	cpc	r23, r27
    4ade:	08 f0       	brcs	.+2      	; 0x4ae2 <put_fat+0x4e>
    4ae0:	d0 c0       	rjmp	.+416    	; 0x4c82 <put_fat+0x1ee>
    4ae2:	88 81       	ld	r24, Y
    4ae4:	82 30       	cpi	r24, 0x02	; 2
    4ae6:	09 f4       	brne	.+2      	; 0x4aea <put_fat+0x56>
    4ae8:	64 c0       	rjmp	.+200    	; 0x4bb2 <put_fat+0x11e>
    4aea:	18 f4       	brcc	.+6      	; 0x4af2 <put_fat+0x5e>
    4aec:	81 30       	cpi	r24, 0x01	; 1
    4aee:	29 f0       	breq	.+10     	; 0x4afa <put_fat+0x66>
    4af0:	ca c0       	rjmp	.+404    	; 0x4c86 <put_fat+0x1f2>
    4af2:	85 30       	cpi	r24, 0x05	; 5
    4af4:	08 f4       	brcc	.+2      	; 0x4af8 <put_fat+0x64>
    4af6:	7e c0       	rjmp	.+252    	; 0x4bf4 <put_fat+0x160>
    4af8:	c6 c0       	rjmp	.+396    	; 0x4c86 <put_fat+0x1f2>
    4afa:	8a 01       	movw	r16, r20
    4afc:	16 95       	lsr	r17
    4afe:	07 95       	ror	r16
    4b00:	18 01       	movw	r2, r16
    4b02:	24 0e       	add	r2, r20
    4b04:	35 1e       	adc	r3, r21
    4b06:	c1 01       	movw	r24, r2
    4b08:	89 2f       	mov	r24, r25
    4b0a:	99 27       	eor	r25, r25
    4b0c:	86 95       	lsr	r24
    4b0e:	4b a9       	ldd	r20, Y+51	; 0x33
    4b10:	5c a9       	ldd	r21, Y+52	; 0x34
    4b12:	6d a9       	ldd	r22, Y+53	; 0x35
    4b14:	7e a9       	ldd	r23, Y+54	; 0x36
    4b16:	48 0f       	add	r20, r24
    4b18:	59 1f       	adc	r21, r25
    4b1a:	61 1d       	adc	r22, r1
    4b1c:	71 1d       	adc	r23, r1
    4b1e:	ce 01       	movw	r24, r28
    4b20:	fe dc       	rcall	.-1540   	; 0x451e <move_window>
    4b22:	18 2f       	mov	r17, r24
    4b24:	81 11       	cpse	r24, r1
    4b26:	cf c0       	rjmp	.+414    	; 0x4cc6 <put_fat+0x232>
    4b28:	4e 01       	movw	r8, r28
    4b2a:	87 e4       	ldi	r24, 0x47	; 71
    4b2c:	88 0e       	add	r8, r24
    4b2e:	91 1c       	adc	r9, r1
    4b30:	51 01       	movw	r10, r2
    4b32:	3f ef       	ldi	r19, 0xFF	; 255
    4b34:	a3 1a       	sub	r10, r19
    4b36:	b3 0a       	sbc	r11, r19
    4b38:	c1 01       	movw	r24, r2
    4b3a:	91 70       	andi	r25, 0x01	; 1
    4b3c:	f4 01       	movw	r30, r8
    4b3e:	e8 0f       	add	r30, r24
    4b40:	f9 1f       	adc	r31, r25
    4b42:	c0 fe       	sbrs	r12, 0
    4b44:	1d c0       	rjmp	.+58     	; 0x4b80 <put_fat+0xec>
    4b46:	80 81       	ld	r24, Z
    4b48:	28 2f       	mov	r18, r24
    4b4a:	2f 70       	andi	r18, 0x0F	; 15
    4b4c:	30 e1       	ldi	r19, 0x10	; 16
    4b4e:	43 9e       	mul	r4, r19
    4b50:	c0 01       	movw	r24, r0
    4b52:	11 24       	eor	r1, r1
    4b54:	82 2b       	or	r24, r18
    4b56:	80 83       	st	Z, r24
    4b58:	81 e0       	ldi	r24, 0x01	; 1
    4b5a:	8b 83       	std	Y+3, r24	; 0x03
    4b5c:	4b a9       	ldd	r20, Y+51	; 0x33
    4b5e:	5c a9       	ldd	r21, Y+52	; 0x34
    4b60:	6d a9       	ldd	r22, Y+53	; 0x35
    4b62:	7e a9       	ldd	r23, Y+54	; 0x36
    4b64:	c5 01       	movw	r24, r10
    4b66:	89 2f       	mov	r24, r25
    4b68:	99 27       	eor	r25, r25
    4b6a:	86 95       	lsr	r24
    4b6c:	48 0f       	add	r20, r24
    4b6e:	59 1f       	adc	r21, r25
    4b70:	61 1d       	adc	r22, r1
    4b72:	71 1d       	adc	r23, r1
    4b74:	ce 01       	movw	r24, r28
    4b76:	d3 dc       	rcall	.-1626   	; 0x451e <move_window>
    4b78:	88 23       	and	r24, r24
    4b7a:	09 f4       	brne	.+2      	; 0x4b7e <put_fat+0xea>
    4b7c:	8a c0       	rjmp	.+276    	; 0x4c92 <put_fat+0x1fe>
    4b7e:	85 c0       	rjmp	.+266    	; 0x4c8a <put_fat+0x1f6>
    4b80:	40 82       	st	Z, r4
    4b82:	81 e0       	ldi	r24, 0x01	; 1
    4b84:	8b 83       	std	Y+3, r24	; 0x03
    4b86:	4b a9       	ldd	r20, Y+51	; 0x33
    4b88:	5c a9       	ldd	r21, Y+52	; 0x34
    4b8a:	6d a9       	ldd	r22, Y+53	; 0x35
    4b8c:	7e a9       	ldd	r23, Y+54	; 0x36
    4b8e:	c5 01       	movw	r24, r10
    4b90:	89 2f       	mov	r24, r25
    4b92:	99 27       	eor	r25, r25
    4b94:	86 95       	lsr	r24
    4b96:	48 0f       	add	r20, r24
    4b98:	59 1f       	adc	r21, r25
    4b9a:	61 1d       	adc	r22, r1
    4b9c:	71 1d       	adc	r23, r1
    4b9e:	ce 01       	movw	r24, r28
    4ba0:	be dc       	rcall	.-1668   	; 0x451e <move_window>
    4ba2:	88 23       	and	r24, r24
    4ba4:	09 f4       	brne	.+2      	; 0x4ba8 <put_fat+0x114>
    4ba6:	83 c0       	rjmp	.+262    	; 0x4cae <put_fat+0x21a>
    4ba8:	72 c0       	rjmp	.+228    	; 0x4c8e <put_fat+0x1fa>
    4baa:	40 82       	st	Z, r4
    4bac:	81 e0       	ldi	r24, 0x01	; 1
    4bae:	8b 83       	std	Y+3, r24	; 0x03
    4bb0:	8a c0       	rjmp	.+276    	; 0x4cc6 <put_fat+0x232>
    4bb2:	45 2f       	mov	r20, r21
    4bb4:	56 2f       	mov	r21, r22
    4bb6:	67 2f       	mov	r22, r23
    4bb8:	77 27       	eor	r23, r23
    4bba:	8b a9       	ldd	r24, Y+51	; 0x33
    4bbc:	9c a9       	ldd	r25, Y+52	; 0x34
    4bbe:	ad a9       	ldd	r26, Y+53	; 0x35
    4bc0:	be a9       	ldd	r27, Y+54	; 0x36
    4bc2:	48 0f       	add	r20, r24
    4bc4:	59 1f       	adc	r21, r25
    4bc6:	6a 1f       	adc	r22, r26
    4bc8:	7b 1f       	adc	r23, r27
    4bca:	ce 01       	movw	r24, r28
    4bcc:	a8 dc       	rcall	.-1712   	; 0x451e <move_window>
    4bce:	18 2f       	mov	r17, r24
    4bd0:	81 11       	cpse	r24, r1
    4bd2:	79 c0       	rjmp	.+242    	; 0x4cc6 <put_fat+0x232>
    4bd4:	fe 01       	movw	r30, r28
    4bd6:	e9 5b       	subi	r30, 0xB9	; 185
    4bd8:	ff 4f       	sbci	r31, 0xFF	; 255
    4bda:	cc 0c       	add	r12, r12
    4bdc:	dd 1c       	adc	r13, r13
    4bde:	e8 94       	clt
    4be0:	c0 f8       	bld	r12, 0
    4be2:	81 e0       	ldi	r24, 0x01	; 1
    4be4:	d8 22       	and	r13, r24
    4be6:	ec 0d       	add	r30, r12
    4be8:	fd 1d       	adc	r31, r13
    4bea:	40 82       	st	Z, r4
    4bec:	51 82       	std	Z+1, r5	; 0x01
    4bee:	81 e0       	ldi	r24, 0x01	; 1
    4bf0:	8b 83       	std	Y+3, r24	; 0x03
    4bf2:	69 c0       	rjmp	.+210    	; 0x4cc6 <put_fat+0x232>
    4bf4:	8b a9       	ldd	r24, Y+51	; 0x33
    4bf6:	9c a9       	ldd	r25, Y+52	; 0x34
    4bf8:	ad a9       	ldd	r26, Y+53	; 0x35
    4bfa:	be a9       	ldd	r27, Y+54	; 0x36
    4bfc:	68 94       	set
    4bfe:	16 f8       	bld	r1, 6
    4c00:	76 95       	lsr	r23
    4c02:	67 95       	ror	r22
    4c04:	57 95       	ror	r21
    4c06:	47 95       	ror	r20
    4c08:	16 94       	lsr	r1
    4c0a:	d1 f7       	brne	.-12     	; 0x4c00 <put_fat+0x16c>
    4c0c:	48 0f       	add	r20, r24
    4c0e:	59 1f       	adc	r21, r25
    4c10:	6a 1f       	adc	r22, r26
    4c12:	7b 1f       	adc	r23, r27
    4c14:	ce 01       	movw	r24, r28
    4c16:	83 dc       	rcall	.-1786   	; 0x451e <move_window>
    4c18:	18 2f       	mov	r17, r24
    4c1a:	81 11       	cpse	r24, r1
    4c1c:	54 c0       	rjmp	.+168    	; 0x4cc6 <put_fat+0x232>
    4c1e:	88 81       	ld	r24, Y
    4c20:	84 30       	cpi	r24, 0x04	; 4
    4c22:	c9 f0       	breq	.+50     	; 0x4c56 <put_fat+0x1c2>
    4c24:	3f e0       	ldi	r19, 0x0F	; 15
    4c26:	73 22       	and	r7, r19
    4c28:	c6 01       	movw	r24, r12
    4c2a:	88 0f       	add	r24, r24
    4c2c:	99 1f       	adc	r25, r25
    4c2e:	88 0f       	add	r24, r24
    4c30:	99 1f       	adc	r25, r25
    4c32:	8c 7f       	andi	r24, 0xFC	; 252
    4c34:	91 70       	andi	r25, 0x01	; 1
    4c36:	9e 01       	movw	r18, r28
    4c38:	29 5b       	subi	r18, 0xB9	; 185
    4c3a:	3f 4f       	sbci	r19, 0xFF	; 255
    4c3c:	82 0f       	add	r24, r18
    4c3e:	93 1f       	adc	r25, r19
    4c40:	5c da       	rcall	.-2888   	; 0x40fa <ld_dword>
    4c42:	dc 01       	movw	r26, r24
    4c44:	cb 01       	movw	r24, r22
    4c46:	88 27       	eor	r24, r24
    4c48:	99 27       	eor	r25, r25
    4c4a:	aa 27       	eor	r26, r26
    4c4c:	b0 7f       	andi	r27, 0xF0	; 240
    4c4e:	48 2a       	or	r4, r24
    4c50:	59 2a       	or	r5, r25
    4c52:	6a 2a       	or	r6, r26
    4c54:	7b 2a       	or	r7, r27
    4c56:	fe 01       	movw	r30, r28
    4c58:	e9 5b       	subi	r30, 0xB9	; 185
    4c5a:	ff 4f       	sbci	r31, 0xFF	; 255
    4c5c:	cc 0c       	add	r12, r12
    4c5e:	dd 1c       	adc	r13, r13
    4c60:	cc 0c       	add	r12, r12
    4c62:	dd 1c       	adc	r13, r13
    4c64:	8c ef       	ldi	r24, 0xFC	; 252
    4c66:	c8 22       	and	r12, r24
    4c68:	81 e0       	ldi	r24, 0x01	; 1
    4c6a:	d8 22       	and	r13, r24
    4c6c:	ec 0d       	add	r30, r12
    4c6e:	fd 1d       	adc	r31, r13
    4c70:	40 82       	st	Z, r4
    4c72:	51 82       	std	Z+1, r5	; 0x01
    4c74:	62 82       	std	Z+2, r6	; 0x02
    4c76:	73 82       	std	Z+3, r7	; 0x03
    4c78:	81 e0       	ldi	r24, 0x01	; 1
    4c7a:	8b 83       	std	Y+3, r24	; 0x03
    4c7c:	24 c0       	rjmp	.+72     	; 0x4cc6 <put_fat+0x232>
    4c7e:	12 e0       	ldi	r17, 0x02	; 2
    4c80:	22 c0       	rjmp	.+68     	; 0x4cc6 <put_fat+0x232>
    4c82:	12 e0       	ldi	r17, 0x02	; 2
    4c84:	20 c0       	rjmp	.+64     	; 0x4cc6 <put_fat+0x232>
    4c86:	12 e0       	ldi	r17, 0x02	; 2
    4c88:	1e c0       	rjmp	.+60     	; 0x4cc6 <put_fat+0x232>
    4c8a:	18 2f       	mov	r17, r24
    4c8c:	1c c0       	rjmp	.+56     	; 0x4cc6 <put_fat+0x232>
    4c8e:	18 2f       	mov	r17, r24
    4c90:	1a c0       	rjmp	.+52     	; 0x4cc6 <put_fat+0x232>
    4c92:	31 e0       	ldi	r19, 0x01	; 1
    4c94:	b3 22       	and	r11, r19
    4c96:	f4 01       	movw	r30, r8
    4c98:	ea 0d       	add	r30, r10
    4c9a:	fb 1d       	adc	r31, r11
    4c9c:	68 94       	set
    4c9e:	13 f8       	bld	r1, 3
    4ca0:	76 94       	lsr	r7
    4ca2:	67 94       	ror	r6
    4ca4:	57 94       	ror	r5
    4ca6:	47 94       	ror	r4
    4ca8:	16 94       	lsr	r1
    4caa:	d1 f7       	brne	.-12     	; 0x4ca0 <put_fat+0x20c>
    4cac:	7e cf       	rjmp	.-260    	; 0x4baa <put_fat+0x116>
    4cae:	81 e0       	ldi	r24, 0x01	; 1
    4cb0:	b8 22       	and	r11, r24
    4cb2:	f4 01       	movw	r30, r8
    4cb4:	ea 0d       	add	r30, r10
    4cb6:	fb 1d       	adc	r31, r11
    4cb8:	90 81       	ld	r25, Z
    4cba:	90 7f       	andi	r25, 0xF0	; 240
    4cbc:	85 2d       	mov	r24, r5
    4cbe:	8f 70       	andi	r24, 0x0F	; 15
    4cc0:	49 2e       	mov	r4, r25
    4cc2:	48 2a       	or	r4, r24
    4cc4:	72 cf       	rjmp	.-284    	; 0x4baa <put_fat+0x116>
    4cc6:	81 2f       	mov	r24, r17
    4cc8:	df 91       	pop	r29
    4cca:	cf 91       	pop	r28
    4ccc:	1f 91       	pop	r17
    4cce:	0f 91       	pop	r16
    4cd0:	ff 90       	pop	r15
    4cd2:	ef 90       	pop	r14
    4cd4:	df 90       	pop	r13
    4cd6:	cf 90       	pop	r12
    4cd8:	bf 90       	pop	r11
    4cda:	af 90       	pop	r10
    4cdc:	9f 90       	pop	r9
    4cde:	8f 90       	pop	r8
    4ce0:	7f 90       	pop	r7
    4ce2:	6f 90       	pop	r6
    4ce4:	5f 90       	pop	r5
    4ce6:	4f 90       	pop	r4
    4ce8:	3f 90       	pop	r3
    4cea:	2f 90       	pop	r2
    4cec:	08 95       	ret

00004cee <fill_last_frag>:
    4cee:	4f 92       	push	r4
    4cf0:	5f 92       	push	r5
    4cf2:	6f 92       	push	r6
    4cf4:	7f 92       	push	r7
    4cf6:	8f 92       	push	r8
    4cf8:	9f 92       	push	r9
    4cfa:	af 92       	push	r10
    4cfc:	bf 92       	push	r11
    4cfe:	cf 92       	push	r12
    4d00:	df 92       	push	r13
    4d02:	ef 92       	push	r14
    4d04:	ff 92       	push	r15
    4d06:	0f 93       	push	r16
    4d08:	1f 93       	push	r17
    4d0a:	cf 93       	push	r28
    4d0c:	df 93       	push	r29
    4d0e:	ec 01       	movw	r28, r24
    4d10:	8e 89       	ldd	r24, Y+22	; 0x16
    4d12:	9f 89       	ldd	r25, Y+23	; 0x17
    4d14:	a8 8d       	ldd	r26, Y+24	; 0x18
    4d16:	b9 8d       	ldd	r27, Y+25	; 0x19
    4d18:	00 97       	sbiw	r24, 0x00	; 0
    4d1a:	a1 05       	cpc	r26, r1
    4d1c:	b1 05       	cpc	r27, r1
    4d1e:	09 f4       	brne	.+2      	; 0x4d22 <fill_last_frag+0x34>
    4d20:	3e c0       	rjmp	.+124    	; 0x4d9e <fill_last_frag+0xb0>
    4d22:	6a 01       	movw	r12, r20
    4d24:	7b 01       	movw	r14, r22
    4d26:	4a 01       	movw	r8, r20
    4d28:	5b 01       	movw	r10, r22
    4d2a:	42 e0       	ldi	r20, 0x02	; 2
    4d2c:	84 0e       	add	r8, r20
    4d2e:	91 1c       	adc	r9, r1
    4d30:	a1 1c       	adc	r10, r1
    4d32:	b1 1c       	adc	r11, r1
    4d34:	40 2e       	mov	r4, r16
    4d36:	51 2e       	mov	r5, r17
    4d38:	62 2e       	mov	r6, r18
    4d3a:	73 2e       	mov	r7, r19
    4d3c:	2f ef       	ldi	r18, 0xFF	; 255
    4d3e:	c2 1a       	sub	r12, r18
    4d40:	d2 0a       	sbc	r13, r18
    4d42:	e2 0a       	sbc	r14, r18
    4d44:	f2 0a       	sbc	r15, r18
    4d46:	82 30       	cpi	r24, 0x02	; 2
    4d48:	91 05       	cpc	r25, r1
    4d4a:	a1 05       	cpc	r26, r1
    4d4c:	b1 05       	cpc	r27, r1
    4d4e:	38 f0       	brcs	.+14     	; 0x4d5e <fill_last_frag+0x70>
    4d50:	95 01       	movw	r18, r10
    4d52:	84 01       	movw	r16, r8
    4d54:	08 1b       	sub	r16, r24
    4d56:	19 0b       	sbc	r17, r25
    4d58:	2a 0b       	sbc	r18, r26
    4d5a:	3b 0b       	sbc	r19, r27
    4d5c:	04 c0       	rjmp	.+8      	; 0x4d66 <fill_last_frag+0x78>
    4d5e:	04 2d       	mov	r16, r4
    4d60:	15 2d       	mov	r17, r5
    4d62:	26 2d       	mov	r18, r6
    4d64:	37 2d       	mov	r19, r7
    4d66:	b7 01       	movw	r22, r14
    4d68:	a6 01       	movw	r20, r12
    4d6a:	48 1b       	sub	r20, r24
    4d6c:	59 0b       	sbc	r21, r25
    4d6e:	6a 0b       	sbc	r22, r26
    4d70:	7b 0b       	sbc	r23, r27
    4d72:	88 81       	ld	r24, Y
    4d74:	99 81       	ldd	r25, Y+1	; 0x01
    4d76:	8e de       	rcall	.-740    	; 0x4a94 <put_fat>
    4d78:	81 11       	cpse	r24, r1
    4d7a:	12 c0       	rjmp	.+36     	; 0x4da0 <fill_last_frag+0xb2>
    4d7c:	8e 89       	ldd	r24, Y+22	; 0x16
    4d7e:	9f 89       	ldd	r25, Y+23	; 0x17
    4d80:	a8 8d       	ldd	r26, Y+24	; 0x18
    4d82:	b9 8d       	ldd	r27, Y+25	; 0x19
    4d84:	01 97       	sbiw	r24, 0x01	; 1
    4d86:	a1 09       	sbc	r26, r1
    4d88:	b1 09       	sbc	r27, r1
    4d8a:	8e 8b       	std	Y+22, r24	; 0x16
    4d8c:	9f 8b       	std	Y+23, r25	; 0x17
    4d8e:	a8 8f       	std	Y+24, r26	; 0x18
    4d90:	b9 8f       	std	Y+25, r27	; 0x19
    4d92:	00 97       	sbiw	r24, 0x00	; 0
    4d94:	a1 05       	cpc	r26, r1
    4d96:	b1 05       	cpc	r27, r1
    4d98:	b1 f6       	brne	.-84     	; 0x4d46 <fill_last_frag+0x58>
    4d9a:	80 e0       	ldi	r24, 0x00	; 0
    4d9c:	01 c0       	rjmp	.+2      	; 0x4da0 <fill_last_frag+0xb2>
    4d9e:	80 e0       	ldi	r24, 0x00	; 0
    4da0:	df 91       	pop	r29
    4da2:	cf 91       	pop	r28
    4da4:	1f 91       	pop	r17
    4da6:	0f 91       	pop	r16
    4da8:	ff 90       	pop	r15
    4daa:	ef 90       	pop	r14
    4dac:	df 90       	pop	r13
    4dae:	cf 90       	pop	r12
    4db0:	bf 90       	pop	r11
    4db2:	af 90       	pop	r10
    4db4:	9f 90       	pop	r9
    4db6:	8f 90       	pop	r8
    4db8:	7f 90       	pop	r7
    4dba:	6f 90       	pop	r6
    4dbc:	5f 90       	pop	r5
    4dbe:	4f 90       	pop	r4
    4dc0:	08 95       	ret

00004dc2 <fill_first_frag>:
    4dc2:	8f 92       	push	r8
    4dc4:	9f 92       	push	r9
    4dc6:	af 92       	push	r10
    4dc8:	bf 92       	push	r11
    4dca:	cf 92       	push	r12
    4dcc:	df 92       	push	r13
    4dce:	ef 92       	push	r14
    4dd0:	ff 92       	push	r15
    4dd2:	0f 93       	push	r16
    4dd4:	1f 93       	push	r17
    4dd6:	cf 93       	push	r28
    4dd8:	df 93       	push	r29
    4dda:	fc 01       	movw	r30, r24
    4ddc:	25 81       	ldd	r18, Z+5	; 0x05
    4dde:	23 30       	cpi	r18, 0x03	; 3
    4de0:	39 f5       	brne	.+78     	; 0x4e30 <fill_first_frag+0x6e>
    4de2:	ec 01       	movw	r28, r24
    4de4:	46 81       	ldd	r20, Z+6	; 0x06
    4de6:	57 81       	ldd	r21, Z+7	; 0x07
    4de8:	60 85       	ldd	r22, Z+8	; 0x08
    4dea:	71 85       	ldd	r23, Z+9	; 0x09
    4dec:	c2 88       	ldd	r12, Z+18	; 0x12
    4dee:	d3 88       	ldd	r13, Z+19	; 0x13
    4df0:	e4 88       	ldd	r14, Z+20	; 0x14
    4df2:	f5 88       	ldd	r15, Z+21	; 0x15
    4df4:	c1 14       	cp	r12, r1
    4df6:	d1 04       	cpc	r13, r1
    4df8:	e1 04       	cpc	r14, r1
    4dfa:	f1 04       	cpc	r15, r1
    4dfc:	b1 f0       	breq	.+44     	; 0x4e2a <fill_first_frag+0x68>
    4dfe:	4a 01       	movw	r8, r20
    4e00:	5b 01       	movw	r10, r22
    4e02:	ff ef       	ldi	r31, 0xFF	; 255
    4e04:	8f 1a       	sub	r8, r31
    4e06:	9f 0a       	sbc	r9, r31
    4e08:	af 0a       	sbc	r10, r31
    4e0a:	bf 0a       	sbc	r11, r31
    4e0c:	95 01       	movw	r18, r10
    4e0e:	84 01       	movw	r16, r8
    4e10:	88 81       	ld	r24, Y
    4e12:	99 81       	ldd	r25, Y+1	; 0x01
    4e14:	3f de       	rcall	.-898    	; 0x4a94 <put_fat>
    4e16:	81 11       	cpse	r24, r1
    4e18:	0c c0       	rjmp	.+24     	; 0x4e32 <fill_first_frag+0x70>
    4e1a:	81 e0       	ldi	r24, 0x01	; 1
    4e1c:	c8 1a       	sub	r12, r24
    4e1e:	d1 08       	sbc	r13, r1
    4e20:	e1 08       	sbc	r14, r1
    4e22:	f1 08       	sbc	r15, r1
    4e24:	b5 01       	movw	r22, r10
    4e26:	a4 01       	movw	r20, r8
    4e28:	51 f7       	brne	.-44     	; 0x4dfe <fill_first_frag+0x3c>
    4e2a:	1d 82       	std	Y+5, r1	; 0x05
    4e2c:	80 e0       	ldi	r24, 0x00	; 0
    4e2e:	01 c0       	rjmp	.+2      	; 0x4e32 <fill_first_frag+0x70>
    4e30:	80 e0       	ldi	r24, 0x00	; 0
    4e32:	df 91       	pop	r29
    4e34:	cf 91       	pop	r28
    4e36:	1f 91       	pop	r17
    4e38:	0f 91       	pop	r16
    4e3a:	ff 90       	pop	r15
    4e3c:	ef 90       	pop	r14
    4e3e:	df 90       	pop	r13
    4e40:	cf 90       	pop	r12
    4e42:	bf 90       	pop	r11
    4e44:	af 90       	pop	r10
    4e46:	9f 90       	pop	r9
    4e48:	8f 90       	pop	r8
    4e4a:	08 95       	ret

00004e4c <st_clust>:
    4e4c:	fb 01       	movw	r30, r22
    4e4e:	22 8f       	std	Z+26, r18	; 0x1a
    4e50:	33 8f       	std	Z+27, r19	; 0x1b
    4e52:	dc 01       	movw	r26, r24
    4e54:	8c 91       	ld	r24, X
    4e56:	83 30       	cpi	r24, 0x03	; 3
    4e58:	29 f4       	brne	.+10     	; 0x4e64 <st_clust+0x18>
    4e5a:	ca 01       	movw	r24, r20
    4e5c:	aa 27       	eor	r26, r26
    4e5e:	bb 27       	eor	r27, r27
    4e60:	84 8b       	std	Z+20, r24	; 0x14
    4e62:	95 8b       	std	Z+21, r25	; 0x15
    4e64:	08 95       	ret

00004e66 <get_fat>:
    4e66:	3f 92       	push	r3
    4e68:	4f 92       	push	r4
    4e6a:	5f 92       	push	r5
    4e6c:	6f 92       	push	r6
    4e6e:	7f 92       	push	r7
    4e70:	8f 92       	push	r8
    4e72:	9f 92       	push	r9
    4e74:	af 92       	push	r10
    4e76:	bf 92       	push	r11
    4e78:	cf 92       	push	r12
    4e7a:	df 92       	push	r13
    4e7c:	ef 92       	push	r14
    4e7e:	ff 92       	push	r15
    4e80:	0f 93       	push	r16
    4e82:	1f 93       	push	r17
    4e84:	cf 93       	push	r28
    4e86:	df 93       	push	r29
    4e88:	42 30       	cpi	r20, 0x02	; 2
    4e8a:	51 05       	cpc	r21, r1
    4e8c:	61 05       	cpc	r22, r1
    4e8e:	71 05       	cpc	r23, r1
    4e90:	08 f4       	brcc	.+2      	; 0x4e94 <get_fat+0x2e>
    4e92:	58 c1       	rjmp	.+688    	; 0x5144 <get_fat+0x2de>
    4e94:	fc 01       	movw	r30, r24
    4e96:	e0 80       	ld	r14, Z
    4e98:	f1 80       	ldd	r15, Z+1	; 0x01
    4e9a:	f7 01       	movw	r30, r14
    4e9c:	87 a0       	ldd	r8, Z+39	; 0x27
    4e9e:	90 a4       	ldd	r9, Z+40	; 0x28
    4ea0:	a1 a4       	ldd	r10, Z+41	; 0x29
    4ea2:	b2 a4       	ldd	r11, Z+42	; 0x2a
    4ea4:	48 15       	cp	r20, r8
    4ea6:	59 05       	cpc	r21, r9
    4ea8:	6a 05       	cpc	r22, r10
    4eaa:	7b 05       	cpc	r23, r11
    4eac:	08 f0       	brcs	.+2      	; 0x4eb0 <get_fat+0x4a>
    4eae:	4f c1       	rjmp	.+670    	; 0x514e <get_fat+0x2e8>
    4eb0:	4a 01       	movw	r8, r20
    4eb2:	5b 01       	movw	r10, r22
    4eb4:	ec 01       	movw	r28, r24
    4eb6:	80 81       	ld	r24, Z
    4eb8:	82 30       	cpi	r24, 0x02	; 2
    4eba:	09 f4       	brne	.+2      	; 0x4ebe <get_fat+0x58>
    4ebc:	57 c0       	rjmp	.+174    	; 0x4f6c <get_fat+0x106>
    4ebe:	18 f4       	brcc	.+6      	; 0x4ec6 <get_fat+0x60>
    4ec0:	81 30       	cpi	r24, 0x01	; 1
    4ec2:	41 f0       	breq	.+16     	; 0x4ed4 <get_fat+0x6e>
    4ec4:	49 c1       	rjmp	.+658    	; 0x5158 <get_fat+0x2f2>
    4ec6:	83 30       	cpi	r24, 0x03	; 3
    4ec8:	09 f4       	brne	.+2      	; 0x4ecc <get_fat+0x66>
    4eca:	76 c0       	rjmp	.+236    	; 0x4fb8 <get_fat+0x152>
    4ecc:	84 30       	cpi	r24, 0x04	; 4
    4ece:	09 f4       	brne	.+2      	; 0x4ed2 <get_fat+0x6c>
    4ed0:	98 c0       	rjmp	.+304    	; 0x5002 <get_fat+0x19c>
    4ed2:	42 c1       	rjmp	.+644    	; 0x5158 <get_fat+0x2f2>
    4ed4:	ea 01       	movw	r28, r20
    4ed6:	d6 95       	lsr	r29
    4ed8:	c7 95       	ror	r28
    4eda:	c4 0f       	add	r28, r20
    4edc:	d5 1f       	adc	r29, r21
    4ede:	ce 01       	movw	r24, r28
    4ee0:	89 2f       	mov	r24, r25
    4ee2:	99 27       	eor	r25, r25
    4ee4:	86 95       	lsr	r24
    4ee6:	f7 01       	movw	r30, r14
    4ee8:	43 a9       	ldd	r20, Z+51	; 0x33
    4eea:	54 a9       	ldd	r21, Z+52	; 0x34
    4eec:	65 a9       	ldd	r22, Z+53	; 0x35
    4eee:	76 a9       	ldd	r23, Z+54	; 0x36
    4ef0:	48 0f       	add	r20, r24
    4ef2:	59 1f       	adc	r21, r25
    4ef4:	61 1d       	adc	r22, r1
    4ef6:	71 1d       	adc	r23, r1
    4ef8:	c7 01       	movw	r24, r14
    4efa:	11 db       	rcall	.-2526   	; 0x451e <move_window>
    4efc:	81 11       	cpse	r24, r1
    4efe:	31 c1       	rjmp	.+610    	; 0x5162 <get_fat+0x2fc>
    4f00:	3e 01       	movw	r6, r28
    4f02:	ff ef       	ldi	r31, 0xFF	; 255
    4f04:	6f 1a       	sub	r6, r31
    4f06:	7f 0a       	sbc	r7, r31
    4f08:	d1 70       	andi	r29, 0x01	; 1
    4f0a:	ce 0d       	add	r28, r14
    4f0c:	df 1d       	adc	r29, r15
    4f0e:	c9 5b       	subi	r28, 0xB9	; 185
    4f10:	df 4f       	sbci	r29, 0xFF	; 255
    4f12:	c8 81       	ld	r28, Y
    4f14:	c3 01       	movw	r24, r6
    4f16:	89 2f       	mov	r24, r25
    4f18:	99 27       	eor	r25, r25
    4f1a:	86 95       	lsr	r24
    4f1c:	f7 01       	movw	r30, r14
    4f1e:	43 a9       	ldd	r20, Z+51	; 0x33
    4f20:	54 a9       	ldd	r21, Z+52	; 0x34
    4f22:	65 a9       	ldd	r22, Z+53	; 0x35
    4f24:	76 a9       	ldd	r23, Z+54	; 0x36
    4f26:	48 0f       	add	r20, r24
    4f28:	59 1f       	adc	r21, r25
    4f2a:	61 1d       	adc	r22, r1
    4f2c:	71 1d       	adc	r23, r1
    4f2e:	c7 01       	movw	r24, r14
    4f30:	f6 da       	rcall	.-2580   	; 0x451e <move_window>
    4f32:	81 11       	cpse	r24, r1
    4f34:	1a c1       	rjmp	.+564    	; 0x516a <get_fat+0x304>
    4f36:	f3 01       	movw	r30, r6
    4f38:	f1 70       	andi	r31, 0x01	; 1
    4f3a:	ee 0e       	add	r14, r30
    4f3c:	ff 1e       	adc	r15, r31
    4f3e:	f7 01       	movw	r30, r14
    4f40:	e9 5b       	subi	r30, 0xB9	; 185
    4f42:	ff 4f       	sbci	r31, 0xFF	; 255
    4f44:	80 81       	ld	r24, Z
    4f46:	d0 e0       	ldi	r29, 0x00	; 0
    4f48:	d8 2b       	or	r29, r24
    4f4a:	80 fe       	sbrs	r8, 0
    4f4c:	0a c0       	rjmp	.+20     	; 0x4f62 <get_fat+0xfc>
    4f4e:	be 01       	movw	r22, r28
    4f50:	72 95       	swap	r23
    4f52:	62 95       	swap	r22
    4f54:	6f 70       	andi	r22, 0x0F	; 15
    4f56:	67 27       	eor	r22, r23
    4f58:	7f 70       	andi	r23, 0x0F	; 15
    4f5a:	67 27       	eor	r22, r23
    4f5c:	80 e0       	ldi	r24, 0x00	; 0
    4f5e:	90 e0       	ldi	r25, 0x00	; 0
    4f60:	27 c1       	rjmp	.+590    	; 0x51b0 <get_fat+0x34a>
    4f62:	be 01       	movw	r22, r28
    4f64:	7f 70       	andi	r23, 0x0F	; 15
    4f66:	80 e0       	ldi	r24, 0x00	; 0
    4f68:	90 e0       	ldi	r25, 0x00	; 0
    4f6a:	22 c1       	rjmp	.+580    	; 0x51b0 <get_fat+0x34a>
    4f6c:	45 2f       	mov	r20, r21
    4f6e:	56 2f       	mov	r21, r22
    4f70:	67 2f       	mov	r22, r23
    4f72:	77 27       	eor	r23, r23
    4f74:	f7 01       	movw	r30, r14
    4f76:	83 a9       	ldd	r24, Z+51	; 0x33
    4f78:	94 a9       	ldd	r25, Z+52	; 0x34
    4f7a:	a5 a9       	ldd	r26, Z+53	; 0x35
    4f7c:	b6 a9       	ldd	r27, Z+54	; 0x36
    4f7e:	48 0f       	add	r20, r24
    4f80:	59 1f       	adc	r21, r25
    4f82:	6a 1f       	adc	r22, r26
    4f84:	7b 1f       	adc	r23, r27
    4f86:	c7 01       	movw	r24, r14
    4f88:	ca da       	rcall	.-2668   	; 0x451e <move_window>
    4f8a:	81 11       	cpse	r24, r1
    4f8c:	f2 c0       	rjmp	.+484    	; 0x5172 <get_fat+0x30c>
    4f8e:	f7 e4       	ldi	r31, 0x47	; 71
    4f90:	ef 0e       	add	r14, r31
    4f92:	f1 1c       	adc	r15, r1
    4f94:	88 0c       	add	r8, r8
    4f96:	99 1c       	adc	r9, r9
    4f98:	e8 94       	clt
    4f9a:	80 f8       	bld	r8, 0
    4f9c:	21 e0       	ldi	r18, 0x01	; 1
    4f9e:	92 22       	and	r9, r18
    4fa0:	f7 01       	movw	r30, r14
    4fa2:	e8 0d       	add	r30, r8
    4fa4:	f9 1d       	adc	r31, r9
    4fa6:	61 81       	ldd	r22, Z+1	; 0x01
    4fa8:	70 e0       	ldi	r23, 0x00	; 0
    4faa:	76 2f       	mov	r23, r22
    4fac:	66 27       	eor	r22, r22
    4fae:	80 81       	ld	r24, Z
    4fb0:	68 2b       	or	r22, r24
    4fb2:	80 e0       	ldi	r24, 0x00	; 0
    4fb4:	90 e0       	ldi	r25, 0x00	; 0
    4fb6:	fc c0       	rjmp	.+504    	; 0x51b0 <get_fat+0x34a>
    4fb8:	f7 01       	movw	r30, r14
    4fba:	83 a9       	ldd	r24, Z+51	; 0x33
    4fbc:	94 a9       	ldd	r25, Z+52	; 0x34
    4fbe:	a5 a9       	ldd	r26, Z+53	; 0x35
    4fc0:	b6 a9       	ldd	r27, Z+54	; 0x36
    4fc2:	68 94       	set
    4fc4:	16 f8       	bld	r1, 6
    4fc6:	76 95       	lsr	r23
    4fc8:	67 95       	ror	r22
    4fca:	57 95       	ror	r21
    4fcc:	47 95       	ror	r20
    4fce:	16 94       	lsr	r1
    4fd0:	d1 f7       	brne	.-12     	; 0x4fc6 <get_fat+0x160>
    4fd2:	48 0f       	add	r20, r24
    4fd4:	59 1f       	adc	r21, r25
    4fd6:	6a 1f       	adc	r22, r26
    4fd8:	7b 1f       	adc	r23, r27
    4fda:	c7 01       	movw	r24, r14
    4fdc:	a0 da       	rcall	.-2752   	; 0x451e <move_window>
    4fde:	81 11       	cpse	r24, r1
    4fe0:	cc c0       	rjmp	.+408    	; 0x517a <get_fat+0x314>
    4fe2:	c7 01       	movw	r24, r14
    4fe4:	89 5b       	subi	r24, 0xB9	; 185
    4fe6:	9f 4f       	sbci	r25, 0xFF	; 255
    4fe8:	88 0c       	add	r8, r8
    4fea:	99 1c       	adc	r9, r9
    4fec:	88 0c       	add	r8, r8
    4fee:	99 1c       	adc	r9, r9
    4ff0:	fc ef       	ldi	r31, 0xFC	; 252
    4ff2:	8f 22       	and	r8, r31
    4ff4:	f1 e0       	ldi	r31, 0x01	; 1
    4ff6:	9f 22       	and	r9, r31
    4ff8:	88 0d       	add	r24, r8
    4ffa:	99 1d       	adc	r25, r9
    4ffc:	7e d8       	rcall	.-3844   	; 0x40fa <ld_dword>
    4ffe:	9f 70       	andi	r25, 0x0F	; 15
    5000:	d7 c0       	rjmp	.+430    	; 0x51b0 <get_fat+0x34a>
    5002:	3a 84       	ldd	r3, Y+10	; 0x0a
    5004:	cb 84       	ldd	r12, Y+11	; 0x0b
    5006:	dc 84       	ldd	r13, Y+12	; 0x0c
    5008:	0d 85       	ldd	r16, Y+13	; 0x0d
    500a:	1e 85       	ldd	r17, Y+14	; 0x0e
    500c:	bf 85       	ldd	r27, Y+15	; 0x0f
    500e:	f8 89       	ldd	r31, Y+16	; 0x10
    5010:	e9 89       	ldd	r30, Y+17	; 0x11
    5012:	23 2d       	mov	r18, r3
    5014:	3c 2d       	mov	r19, r12
    5016:	4d 2d       	mov	r20, r13
    5018:	50 2f       	mov	r21, r16
    501a:	61 2f       	mov	r22, r17
    501c:	7b 2f       	mov	r23, r27
    501e:	8f 2f       	mov	r24, r31
    5020:	9e 2f       	mov	r25, r30
    5022:	a0 e0       	ldi	r26, 0x00	; 0
    5024:	0e 94 63 4c 	call	0x98c6	; 0x98c6 <__cmpdi2_s8>
    5028:	49 f0       	breq	.+18     	; 0x503c <get_fat+0x1d6>
    502a:	4e 81       	ldd	r20, Y+6	; 0x06
    502c:	5f 81       	ldd	r21, Y+7	; 0x07
    502e:	68 85       	ldd	r22, Y+8	; 0x08
    5030:	79 85       	ldd	r23, Y+9	; 0x09
    5032:	41 15       	cp	r20, r1
    5034:	51 05       	cpc	r21, r1
    5036:	61 05       	cpc	r22, r1
    5038:	71 05       	cpc	r23, r1
    503a:	49 f4       	brne	.+18     	; 0x504e <get_fat+0x1e8>
    503c:	8d 81       	ldd	r24, Y+5	; 0x05
    503e:	88 23       	and	r24, r24
    5040:	09 f4       	brne	.+2      	; 0x5044 <get_fat+0x1de>
    5042:	4f c0       	rjmp	.+158    	; 0x50e2 <get_fat+0x27c>
    5044:	61 e0       	ldi	r22, 0x01	; 1
    5046:	70 e0       	ldi	r23, 0x00	; 0
    5048:	80 e0       	ldi	r24, 0x00	; 0
    504a:	90 e0       	ldi	r25, 0x00	; 0
    504c:	b1 c0       	rjmp	.+354    	; 0x51b0 <get_fat+0x34a>
    504e:	24 01       	movw	r4, r8
    5050:	35 01       	movw	r6, r10
    5052:	44 1a       	sub	r4, r20
    5054:	55 0a       	sbc	r5, r21
    5056:	66 0a       	sbc	r6, r22
    5058:	77 0a       	sbc	r7, r23
    505a:	23 2d       	mov	r18, r3
    505c:	3c 2d       	mov	r19, r12
    505e:	4d 2d       	mov	r20, r13
    5060:	50 2f       	mov	r21, r16
    5062:	61 2f       	mov	r22, r17
    5064:	7b 2f       	mov	r23, r27
    5066:	8f 2f       	mov	r24, r31
    5068:	9e 2f       	mov	r25, r30
    506a:	af ef       	ldi	r26, 0xFF	; 255
    506c:	0e 94 45 4c 	call	0x988a	; 0x988a <__adddi3_s8>
    5070:	09 e0       	ldi	r16, 0x09	; 9
    5072:	0e 94 20 4c 	call	0x9840	; 0x9840 <__lshrdi3>
    5076:	b2 2f       	mov	r27, r18
    5078:	a3 2f       	mov	r26, r19
    507a:	14 2f       	mov	r17, r20
    507c:	05 2f       	mov	r16, r21
    507e:	f7 01       	movw	r30, r14
    5080:	21 85       	ldd	r18, Z+9	; 0x09
    5082:	32 85       	ldd	r19, Z+10	; 0x0a
    5084:	40 e0       	ldi	r20, 0x00	; 0
    5086:	50 e0       	ldi	r21, 0x00	; 0
    5088:	6b 2f       	mov	r22, r27
    508a:	7a 2f       	mov	r23, r26
    508c:	81 2f       	mov	r24, r17
    508e:	90 2f       	mov	r25, r16
    5090:	0e 94 c2 4b 	call	0x9784	; 0x9784 <__udivmodsi4>
    5094:	8d 81       	ldd	r24, Y+5	; 0x05
    5096:	82 30       	cpi	r24, 0x02	; 2
    5098:	09 f0       	breq	.+2      	; 0x509c <get_fat+0x236>
    509a:	86 c0       	rjmp	.+268    	; 0x51a8 <get_fat+0x342>
    509c:	24 15       	cp	r18, r4
    509e:	35 05       	cpc	r19, r5
    50a0:	46 05       	cpc	r20, r6
    50a2:	57 05       	cpc	r21, r7
    50a4:	08 f4       	brcc	.+2      	; 0x50a8 <get_fat+0x242>
    50a6:	6d c0       	rjmp	.+218    	; 0x5182 <get_fat+0x31c>
    50a8:	42 16       	cp	r4, r18
    50aa:	53 06       	cpc	r5, r19
    50ac:	64 06       	cpc	r6, r20
    50ae:	75 06       	cpc	r7, r21
    50b0:	09 f4       	brne	.+2      	; 0x50b4 <get_fat+0x24e>
    50b2:	6c c0       	rjmp	.+216    	; 0x518c <get_fat+0x326>
    50b4:	c5 01       	movw	r24, r10
    50b6:	b4 01       	movw	r22, r8
    50b8:	6f 5f       	subi	r22, 0xFF	; 255
    50ba:	7f 4f       	sbci	r23, 0xFF	; 255
    50bc:	8f 4f       	sbci	r24, 0xFF	; 255
    50be:	9f 4f       	sbci	r25, 0xFF	; 255
    50c0:	77 c0       	rjmp	.+238    	; 0x51b0 <get_fat+0x34a>
    50c2:	8a 89       	ldd	r24, Y+18	; 0x12
    50c4:	9b 89       	ldd	r25, Y+19	; 0x13
    50c6:	ac 89       	ldd	r26, Y+20	; 0x14
    50c8:	bd 89       	ldd	r27, Y+21	; 0x15
    50ca:	48 16       	cp	r4, r24
    50cc:	59 06       	cpc	r5, r25
    50ce:	6a 06       	cpc	r6, r26
    50d0:	7b 06       	cpc	r7, r27
    50d2:	38 f4       	brcc	.+14     	; 0x50e2 <get_fat+0x27c>
    50d4:	c5 01       	movw	r24, r10
    50d6:	b4 01       	movw	r22, r8
    50d8:	6f 5f       	subi	r22, 0xFF	; 255
    50da:	7f 4f       	sbci	r23, 0xFF	; 255
    50dc:	8f 4f       	sbci	r24, 0xFF	; 255
    50de:	9f 4f       	sbci	r25, 0xFF	; 255
    50e0:	67 c0       	rjmp	.+206    	; 0x51b0 <get_fat+0x34a>
    50e2:	8e 89       	ldd	r24, Y+22	; 0x16
    50e4:	9f 89       	ldd	r25, Y+23	; 0x17
    50e6:	a8 8d       	ldd	r26, Y+24	; 0x18
    50e8:	b9 8d       	ldd	r27, Y+25	; 0x19
    50ea:	89 2b       	or	r24, r25
    50ec:	8a 2b       	or	r24, r26
    50ee:	8b 2b       	or	r24, r27
    50f0:	09 f0       	breq	.+2      	; 0x50f4 <get_fat+0x28e>
    50f2:	51 c0       	rjmp	.+162    	; 0x5196 <get_fat+0x330>
    50f4:	f7 01       	movw	r30, r14
    50f6:	83 a9       	ldd	r24, Z+51	; 0x33
    50f8:	94 a9       	ldd	r25, Z+52	; 0x34
    50fa:	a5 a9       	ldd	r26, Z+53	; 0x35
    50fc:	b6 a9       	ldd	r27, Z+54	; 0x36
    50fe:	b5 01       	movw	r22, r10
    5100:	a4 01       	movw	r20, r8
    5102:	68 94       	set
    5104:	16 f8       	bld	r1, 6
    5106:	76 95       	lsr	r23
    5108:	67 95       	ror	r22
    510a:	57 95       	ror	r21
    510c:	47 95       	ror	r20
    510e:	16 94       	lsr	r1
    5110:	d1 f7       	brne	.-12     	; 0x5106 <get_fat+0x2a0>
    5112:	48 0f       	add	r20, r24
    5114:	59 1f       	adc	r21, r25
    5116:	6a 1f       	adc	r22, r26
    5118:	7b 1f       	adc	r23, r27
    511a:	c7 01       	movw	r24, r14
    511c:	00 da       	rcall	.-3072   	; 0x451e <move_window>
    511e:	81 11       	cpse	r24, r1
    5120:	3f c0       	rjmp	.+126    	; 0x51a0 <get_fat+0x33a>
    5122:	c7 01       	movw	r24, r14
    5124:	89 5b       	subi	r24, 0xB9	; 185
    5126:	9f 4f       	sbci	r25, 0xFF	; 255
    5128:	88 0c       	add	r8, r8
    512a:	99 1c       	adc	r9, r9
    512c:	88 0c       	add	r8, r8
    512e:	99 1c       	adc	r9, r9
    5130:	fc ef       	ldi	r31, 0xFC	; 252
    5132:	8f 22       	and	r8, r31
    5134:	f1 e0       	ldi	r31, 0x01	; 1
    5136:	9f 22       	and	r9, r31
    5138:	88 0d       	add	r24, r8
    513a:	99 1d       	adc	r25, r9
    513c:	0e 94 7d 20 	call	0x40fa	; 0x40fa <ld_dword>
    5140:	9f 77       	andi	r25, 0x7F	; 127
    5142:	36 c0       	rjmp	.+108    	; 0x51b0 <get_fat+0x34a>
    5144:	61 e0       	ldi	r22, 0x01	; 1
    5146:	70 e0       	ldi	r23, 0x00	; 0
    5148:	80 e0       	ldi	r24, 0x00	; 0
    514a:	90 e0       	ldi	r25, 0x00	; 0
    514c:	31 c0       	rjmp	.+98     	; 0x51b0 <get_fat+0x34a>
    514e:	61 e0       	ldi	r22, 0x01	; 1
    5150:	70 e0       	ldi	r23, 0x00	; 0
    5152:	80 e0       	ldi	r24, 0x00	; 0
    5154:	90 e0       	ldi	r25, 0x00	; 0
    5156:	2c c0       	rjmp	.+88     	; 0x51b0 <get_fat+0x34a>
    5158:	61 e0       	ldi	r22, 0x01	; 1
    515a:	70 e0       	ldi	r23, 0x00	; 0
    515c:	80 e0       	ldi	r24, 0x00	; 0
    515e:	90 e0       	ldi	r25, 0x00	; 0
    5160:	27 c0       	rjmp	.+78     	; 0x51b0 <get_fat+0x34a>
    5162:	6f ef       	ldi	r22, 0xFF	; 255
    5164:	7f ef       	ldi	r23, 0xFF	; 255
    5166:	cb 01       	movw	r24, r22
    5168:	23 c0       	rjmp	.+70     	; 0x51b0 <get_fat+0x34a>
    516a:	6f ef       	ldi	r22, 0xFF	; 255
    516c:	7f ef       	ldi	r23, 0xFF	; 255
    516e:	cb 01       	movw	r24, r22
    5170:	1f c0       	rjmp	.+62     	; 0x51b0 <get_fat+0x34a>
    5172:	6f ef       	ldi	r22, 0xFF	; 255
    5174:	7f ef       	ldi	r23, 0xFF	; 255
    5176:	cb 01       	movw	r24, r22
    5178:	1b c0       	rjmp	.+54     	; 0x51b0 <get_fat+0x34a>
    517a:	6f ef       	ldi	r22, 0xFF	; 255
    517c:	7f ef       	ldi	r23, 0xFF	; 255
    517e:	cb 01       	movw	r24, r22
    5180:	17 c0       	rjmp	.+46     	; 0x51b0 <get_fat+0x34a>
    5182:	61 e0       	ldi	r22, 0x01	; 1
    5184:	70 e0       	ldi	r23, 0x00	; 0
    5186:	80 e0       	ldi	r24, 0x00	; 0
    5188:	90 e0       	ldi	r25, 0x00	; 0
    518a:	12 c0       	rjmp	.+36     	; 0x51b0 <get_fat+0x34a>
    518c:	6f ef       	ldi	r22, 0xFF	; 255
    518e:	7f ef       	ldi	r23, 0xFF	; 255
    5190:	8f ef       	ldi	r24, 0xFF	; 255
    5192:	9f e7       	ldi	r25, 0x7F	; 127
    5194:	0d c0       	rjmp	.+26     	; 0x51b0 <get_fat+0x34a>
    5196:	6f ef       	ldi	r22, 0xFF	; 255
    5198:	7f ef       	ldi	r23, 0xFF	; 255
    519a:	8f ef       	ldi	r24, 0xFF	; 255
    519c:	9f e7       	ldi	r25, 0x7F	; 127
    519e:	08 c0       	rjmp	.+16     	; 0x51b0 <get_fat+0x34a>
    51a0:	6f ef       	ldi	r22, 0xFF	; 255
    51a2:	7f ef       	ldi	r23, 0xFF	; 255
    51a4:	cb 01       	movw	r24, r22
    51a6:	04 c0       	rjmp	.+8      	; 0x51b0 <get_fat+0x34a>
    51a8:	83 30       	cpi	r24, 0x03	; 3
    51aa:	09 f4       	brne	.+2      	; 0x51ae <get_fat+0x348>
    51ac:	8a cf       	rjmp	.-236    	; 0x50c2 <get_fat+0x25c>
    51ae:	99 cf       	rjmp	.-206    	; 0x50e2 <get_fat+0x27c>
    51b0:	df 91       	pop	r29
    51b2:	cf 91       	pop	r28
    51b4:	1f 91       	pop	r17
    51b6:	0f 91       	pop	r16
    51b8:	ff 90       	pop	r15
    51ba:	ef 90       	pop	r14
    51bc:	df 90       	pop	r13
    51be:	cf 90       	pop	r12
    51c0:	bf 90       	pop	r11
    51c2:	af 90       	pop	r10
    51c4:	9f 90       	pop	r9
    51c6:	8f 90       	pop	r8
    51c8:	7f 90       	pop	r7
    51ca:	6f 90       	pop	r6
    51cc:	5f 90       	pop	r5
    51ce:	4f 90       	pop	r4
    51d0:	3f 90       	pop	r3
    51d2:	08 95       	ret

000051d4 <create_chain>:
    51d4:	4f 92       	push	r4
    51d6:	5f 92       	push	r5
    51d8:	6f 92       	push	r6
    51da:	7f 92       	push	r7
    51dc:	8f 92       	push	r8
    51de:	9f 92       	push	r9
    51e0:	af 92       	push	r10
    51e2:	bf 92       	push	r11
    51e4:	cf 92       	push	r12
    51e6:	df 92       	push	r13
    51e8:	ef 92       	push	r14
    51ea:	ff 92       	push	r15
    51ec:	0f 93       	push	r16
    51ee:	1f 93       	push	r17
    51f0:	cf 93       	push	r28
    51f2:	df 93       	push	r29
    51f4:	00 d0       	rcall	.+0      	; 0x51f6 <create_chain+0x22>
    51f6:	00 d0       	rcall	.+0      	; 0x51f8 <create_chain+0x24>
    51f8:	cd b7       	in	r28, 0x3d	; 61
    51fa:	de b7       	in	r29, 0x3e	; 62
    51fc:	6c 01       	movw	r12, r24
    51fe:	49 83       	std	Y+1, r20	; 0x01
    5200:	5a 83       	std	Y+2, r21	; 0x02
    5202:	6b 83       	std	Y+3, r22	; 0x03
    5204:	7c 83       	std	Y+4, r23	; 0x04
    5206:	dc 01       	movw	r26, r24
    5208:	0d 90       	ld	r0, X+
    520a:	bc 91       	ld	r27, X
    520c:	a0 2d       	mov	r26, r0
    520e:	be 83       	std	Y+6, r27	; 0x06
    5210:	ad 83       	std	Y+5, r26	; 0x05
    5212:	45 2b       	or	r20, r21
    5214:	46 2b       	or	r20, r22
    5216:	47 2b       	or	r20, r23
    5218:	d9 f4       	brne	.+54     	; 0x5250 <create_chain+0x7c>
    521a:	1f 96       	adiw	r26, 0x0f	; 15
    521c:	4d 90       	ld	r4, X+
    521e:	5d 90       	ld	r5, X+
    5220:	6d 90       	ld	r6, X+
    5222:	7c 90       	ld	r7, X
    5224:	52 97       	sbiw	r26, 0x12	; 18
    5226:	41 14       	cp	r4, r1
    5228:	51 04       	cpc	r5, r1
    522a:	61 04       	cpc	r6, r1
    522c:	71 04       	cpc	r7, r1
    522e:	99 f1       	breq	.+102    	; 0x5296 <create_chain+0xc2>
    5230:	97 96       	adiw	r26, 0x27	; 39
    5232:	8d 91       	ld	r24, X+
    5234:	9d 91       	ld	r25, X+
    5236:	0d 90       	ld	r0, X+
    5238:	bc 91       	ld	r27, X
    523a:	a0 2d       	mov	r26, r0
    523c:	48 16       	cp	r4, r24
    523e:	59 06       	cpc	r5, r25
    5240:	6a 06       	cpc	r6, r26
    5242:	7b 06       	cpc	r7, r27
    5244:	60 f1       	brcs	.+88     	; 0x529e <create_chain+0xca>
    5246:	41 2c       	mov	r4, r1
    5248:	51 2c       	mov	r5, r1
    524a:	32 01       	movw	r6, r4
    524c:	43 94       	inc	r4
    524e:	27 c0       	rjmp	.+78     	; 0x529e <create_chain+0xca>
    5250:	49 81       	ldd	r20, Y+1	; 0x01
    5252:	5a 81       	ldd	r21, Y+2	; 0x02
    5254:	6b 81       	ldd	r22, Y+3	; 0x03
    5256:	7c 81       	ldd	r23, Y+4	; 0x04
    5258:	06 de       	rcall	.-1012   	; 0x4e66 <get_fat>
    525a:	62 30       	cpi	r22, 0x02	; 2
    525c:	71 05       	cpc	r23, r1
    525e:	81 05       	cpc	r24, r1
    5260:	91 05       	cpc	r25, r1
    5262:	08 f4       	brcc	.+2      	; 0x5266 <create_chain+0x92>
    5264:	a1 c1       	rjmp	.+834    	; 0x55a8 <create_chain+0x3d4>
    5266:	6f 3f       	cpi	r22, 0xFF	; 255
    5268:	bf ef       	ldi	r27, 0xFF	; 255
    526a:	7b 07       	cpc	r23, r27
    526c:	8b 07       	cpc	r24, r27
    526e:	9b 07       	cpc	r25, r27
    5270:	09 f4       	brne	.+2      	; 0x5274 <create_chain+0xa0>
    5272:	9f c1       	rjmp	.+830    	; 0x55b2 <create_chain+0x3de>
    5274:	ed 81       	ldd	r30, Y+5	; 0x05
    5276:	fe 81       	ldd	r31, Y+6	; 0x06
    5278:	87 a0       	ldd	r8, Z+39	; 0x27
    527a:	90 a4       	ldd	r9, Z+40	; 0x28
    527c:	a1 a4       	ldd	r10, Z+41	; 0x29
    527e:	b2 a4       	ldd	r11, Z+42	; 0x2a
    5280:	68 15       	cp	r22, r8
    5282:	79 05       	cpc	r23, r9
    5284:	8a 05       	cpc	r24, r10
    5286:	9b 05       	cpc	r25, r11
    5288:	08 f4       	brcc	.+2      	; 0x528c <create_chain+0xb8>
    528a:	d7 c1       	rjmp	.+942    	; 0x563a <create_chain+0x466>
    528c:	49 80       	ldd	r4, Y+1	; 0x01
    528e:	5a 80       	ldd	r5, Y+2	; 0x02
    5290:	6b 80       	ldd	r6, Y+3	; 0x03
    5292:	7c 80       	ldd	r7, Y+4	; 0x04
    5294:	04 c0       	rjmp	.+8      	; 0x529e <create_chain+0xca>
    5296:	41 2c       	mov	r4, r1
    5298:	51 2c       	mov	r5, r1
    529a:	32 01       	movw	r6, r4
    529c:	43 94       	inc	r4
    529e:	ad 81       	ldd	r26, Y+5	; 0x05
    52a0:	be 81       	ldd	r27, Y+6	; 0x06
    52a2:	53 96       	adiw	r26, 0x13	; 19
    52a4:	6d 91       	ld	r22, X+
    52a6:	7d 91       	ld	r23, X+
    52a8:	8d 91       	ld	r24, X+
    52aa:	9c 91       	ld	r25, X
    52ac:	56 97       	sbiw	r26, 0x16	; 22
    52ae:	61 15       	cp	r22, r1
    52b0:	71 05       	cpc	r23, r1
    52b2:	81 05       	cpc	r24, r1
    52b4:	91 05       	cpc	r25, r1
    52b6:	09 f4       	brne	.+2      	; 0x52ba <create_chain+0xe6>
    52b8:	c0 c1       	rjmp	.+896    	; 0x563a <create_chain+0x466>
    52ba:	8c 91       	ld	r24, X
    52bc:	84 30       	cpi	r24, 0x04	; 4
    52be:	09 f0       	breq	.+2      	; 0x52c2 <create_chain+0xee>
    52c0:	9b c0       	rjmp	.+310    	; 0x53f8 <create_chain+0x224>
    52c2:	01 e0       	ldi	r16, 0x01	; 1
    52c4:	10 e0       	ldi	r17, 0x00	; 0
    52c6:	20 e0       	ldi	r18, 0x00	; 0
    52c8:	30 e0       	ldi	r19, 0x00	; 0
    52ca:	b3 01       	movw	r22, r6
    52cc:	a2 01       	movw	r20, r4
    52ce:	cd 01       	movw	r24, r26
    52d0:	67 d9       	rcall	.-3378   	; 0x45a0 <find_bitmap>
    52d2:	4b 01       	movw	r8, r22
    52d4:	5c 01       	movw	r10, r24
    52d6:	dc 01       	movw	r26, r24
    52d8:	cb 01       	movw	r24, r22
    52da:	01 97       	sbiw	r24, 0x01	; 1
    52dc:	a1 09       	sbc	r26, r1
    52de:	b1 09       	sbc	r27, r1
    52e0:	8e 3f       	cpi	r24, 0xFE	; 254
    52e2:	9f 4f       	sbci	r25, 0xFF	; 255
    52e4:	af 4f       	sbci	r26, 0xFF	; 255
    52e6:	bf 4f       	sbci	r27, 0xFF	; 255
    52e8:	08 f0       	brcs	.+2      	; 0x52ec <create_chain+0x118>
    52ea:	67 c1       	rjmp	.+718    	; 0x55ba <create_chain+0x3e6>
    52ec:	ee 24       	eor	r14, r14
    52ee:	e3 94       	inc	r14
    52f0:	f1 2c       	mov	r15, r1
    52f2:	01 e0       	ldi	r16, 0x01	; 1
    52f4:	10 e0       	ldi	r17, 0x00	; 0
    52f6:	20 e0       	ldi	r18, 0x00	; 0
    52f8:	30 e0       	ldi	r19, 0x00	; 0
    52fa:	b5 01       	movw	r22, r10
    52fc:	a4 01       	movw	r20, r8
    52fe:	8d 81       	ldd	r24, Y+5	; 0x05
    5300:	9e 81       	ldd	r25, Y+6	; 0x06
    5302:	3a da       	rcall	.-2956   	; 0x4778 <change_bitmap>
    5304:	82 30       	cpi	r24, 0x02	; 2
    5306:	09 f4       	brne	.+2      	; 0x530a <create_chain+0x136>
    5308:	5b c1       	rjmp	.+694    	; 0x55c0 <create_chain+0x3ec>
    530a:	81 30       	cpi	r24, 0x01	; 1
    530c:	09 f4       	brne	.+2      	; 0x5310 <create_chain+0x13c>
    530e:	5d c1       	rjmp	.+698    	; 0x55ca <create_chain+0x3f6>
    5310:	29 81       	ldd	r18, Y+1	; 0x01
    5312:	3a 81       	ldd	r19, Y+2	; 0x02
    5314:	4b 81       	ldd	r20, Y+3	; 0x03
    5316:	5c 81       	ldd	r21, Y+4	; 0x04
    5318:	23 2b       	or	r18, r19
    531a:	24 2b       	or	r18, r20
    531c:	25 2b       	or	r18, r21
    531e:	29 f4       	brne	.+10     	; 0x532a <create_chain+0x156>
    5320:	92 e0       	ldi	r25, 0x02	; 2
    5322:	d6 01       	movw	r26, r12
    5324:	15 96       	adiw	r26, 0x05	; 5
    5326:	9c 93       	st	X, r25
    5328:	81 c1       	rjmp	.+770    	; 0x562c <create_chain+0x458>
    532a:	f6 01       	movw	r30, r12
    532c:	95 81       	ldd	r25, Z+5	; 0x05
    532e:	92 30       	cpi	r25, 0x02	; 2
    5330:	09 f0       	breq	.+2      	; 0x5334 <create_chain+0x160>
    5332:	6d c1       	rjmp	.+730    	; 0x560e <create_chain+0x43a>
    5334:	b3 01       	movw	r22, r6
    5336:	a2 01       	movw	r20, r4
    5338:	4f 5f       	subi	r20, 0xFF	; 255
    533a:	5f 4f       	sbci	r21, 0xFF	; 255
    533c:	6f 4f       	sbci	r22, 0xFF	; 255
    533e:	7f 4f       	sbci	r23, 0xFF	; 255
    5340:	84 16       	cp	r8, r20
    5342:	95 06       	cpc	r9, r21
    5344:	a6 06       	cpc	r10, r22
    5346:	b7 06       	cpc	r11, r23
    5348:	09 f4       	brne	.+2      	; 0x534c <create_chain+0x178>
    534a:	70 c1       	rjmp	.+736    	; 0x562c <create_chain+0x458>
    534c:	46 81       	ldd	r20, Z+6	; 0x06
    534e:	57 81       	ldd	r21, Z+7	; 0x07
    5350:	60 85       	ldd	r22, Z+8	; 0x08
    5352:	71 85       	ldd	r23, Z+9	; 0x09
    5354:	44 1a       	sub	r4, r20
    5356:	55 0a       	sbc	r5, r21
    5358:	66 0a       	sbc	r6, r22
    535a:	77 0a       	sbc	r7, r23
    535c:	42 8a       	std	Z+18, r4	; 0x12
    535e:	53 8a       	std	Z+19, r5	; 0x13
    5360:	64 8a       	std	Z+20, r6	; 0x14
    5362:	75 8a       	std	Z+21, r7	; 0x15
    5364:	93 e0       	ldi	r25, 0x03	; 3
    5366:	95 83       	std	Z+5, r25	; 0x05
    5368:	52 c1       	rjmp	.+676    	; 0x560e <create_chain+0x43a>
    536a:	f6 01       	movw	r30, r12
    536c:	46 89       	ldd	r20, Z+22	; 0x16
    536e:	57 89       	ldd	r21, Z+23	; 0x17
    5370:	60 8d       	ldd	r22, Z+24	; 0x18
    5372:	71 8d       	ldd	r23, Z+25	; 0x19
    5374:	41 15       	cp	r20, r1
    5376:	51 05       	cpc	r21, r1
    5378:	61 05       	cpc	r22, r1
    537a:	71 05       	cpc	r23, r1
    537c:	29 f0       	breq	.+10     	; 0x5388 <create_chain+0x1b4>
    537e:	4f 5f       	subi	r20, 0xFF	; 255
    5380:	5f 4f       	sbci	r21, 0xFF	; 255
    5382:	6f 4f       	sbci	r22, 0xFF	; 255
    5384:	7f 4f       	sbci	r23, 0xFF	; 255
    5386:	04 c0       	rjmp	.+8      	; 0x5390 <create_chain+0x1bc>
    5388:	42 e0       	ldi	r20, 0x02	; 2
    538a:	50 e0       	ldi	r21, 0x00	; 0
    538c:	60 e0       	ldi	r22, 0x00	; 0
    538e:	70 e0       	ldi	r23, 0x00	; 0
    5390:	d6 01       	movw	r26, r12
    5392:	56 96       	adiw	r26, 0x16	; 22
    5394:	4d 93       	st	X+, r20
    5396:	5d 93       	st	X+, r21
    5398:	6d 93       	st	X+, r22
    539a:	7c 93       	st	X, r23
    539c:	59 97       	sbiw	r26, 0x19	; 25
    539e:	88 23       	and	r24, r24
    53a0:	09 f4       	brne	.+2      	; 0x53a4 <create_chain+0x1d0>
    53a2:	d0 c0       	rjmp	.+416    	; 0x5544 <create_chain+0x370>
    53a4:	61 e0       	ldi	r22, 0x01	; 1
    53a6:	70 e0       	ldi	r23, 0x00	; 0
    53a8:	80 e0       	ldi	r24, 0x00	; 0
    53aa:	90 e0       	ldi	r25, 0x00	; 0
    53ac:	46 c1       	rjmp	.+652    	; 0x563a <create_chain+0x466>
    53ae:	f6 01       	movw	r30, r12
    53b0:	86 89       	ldd	r24, Z+22	; 0x16
    53b2:	97 89       	ldd	r25, Z+23	; 0x17
    53b4:	a0 8d       	ldd	r26, Z+24	; 0x18
    53b6:	b1 8d       	ldd	r27, Z+25	; 0x19
    53b8:	89 2b       	or	r24, r25
    53ba:	8a 2b       	or	r24, r26
    53bc:	8b 2b       	or	r24, r27
    53be:	41 f4       	brne	.+16     	; 0x53d0 <create_chain+0x1fc>
    53c0:	81 e0       	ldi	r24, 0x01	; 1
    53c2:	90 e0       	ldi	r25, 0x00	; 0
    53c4:	a0 e0       	ldi	r26, 0x00	; 0
    53c6:	b0 e0       	ldi	r27, 0x00	; 0
    53c8:	86 8b       	std	Z+22, r24	; 0x16
    53ca:	97 8b       	std	Z+23, r25	; 0x17
    53cc:	a0 8f       	std	Z+24, r26	; 0x18
    53ce:	b1 8f       	std	Z+25, r27	; 0x19
    53d0:	95 01       	movw	r18, r10
    53d2:	84 01       	movw	r16, r8
    53d4:	49 81       	ldd	r20, Y+1	; 0x01
    53d6:	5a 81       	ldd	r21, Y+2	; 0x02
    53d8:	6b 81       	ldd	r22, Y+3	; 0x03
    53da:	7c 81       	ldd	r23, Y+4	; 0x04
    53dc:	c6 01       	movw	r24, r12
    53de:	87 dc       	rcall	.-1778   	; 0x4cee <fill_last_frag>
    53e0:	81 11       	cpse	r24, r1
    53e2:	db c0       	rjmp	.+438    	; 0x559a <create_chain+0x3c6>
    53e4:	81 e0       	ldi	r24, 0x01	; 1
    53e6:	90 e0       	ldi	r25, 0x00	; 0
    53e8:	a0 e0       	ldi	r26, 0x00	; 0
    53ea:	b0 e0       	ldi	r27, 0x00	; 0
    53ec:	f6 01       	movw	r30, r12
    53ee:	86 8b       	std	Z+22, r24	; 0x16
    53f0:	97 8b       	std	Z+23, r25	; 0x17
    53f2:	a0 8f       	std	Z+24, r26	; 0x18
    53f4:	b1 8f       	std	Z+25, r27	; 0x19
    53f6:	a6 c0       	rjmp	.+332    	; 0x5544 <create_chain+0x370>
    53f8:	29 81       	ldd	r18, Y+1	; 0x01
    53fa:	3a 81       	ldd	r19, Y+2	; 0x02
    53fc:	4b 81       	ldd	r20, Y+3	; 0x03
    53fe:	5c 81       	ldd	r21, Y+4	; 0x04
    5400:	42 16       	cp	r4, r18
    5402:	53 06       	cpc	r5, r19
    5404:	64 06       	cpc	r6, r20
    5406:	75 06       	cpc	r7, r21
    5408:	09 f0       	breq	.+2      	; 0x540c <create_chain+0x238>
    540a:	48 c0       	rjmp	.+144    	; 0x549c <create_chain+0x2c8>
    540c:	53 01       	movw	r10, r6
    540e:	42 01       	movw	r8, r4
    5410:	3f ef       	ldi	r19, 0xFF	; 255
    5412:	83 1a       	sub	r8, r19
    5414:	93 0a       	sbc	r9, r19
    5416:	a3 0a       	sbc	r10, r19
    5418:	b3 0a       	sbc	r11, r19
    541a:	ed 81       	ldd	r30, Y+5	; 0x05
    541c:	fe 81       	ldd	r31, Y+6	; 0x06
    541e:	87 a1       	ldd	r24, Z+39	; 0x27
    5420:	90 a5       	ldd	r25, Z+40	; 0x28
    5422:	a1 a5       	ldd	r26, Z+41	; 0x29
    5424:	b2 a5       	ldd	r27, Z+42	; 0x2a
    5426:	88 16       	cp	r8, r24
    5428:	99 06       	cpc	r9, r25
    542a:	aa 06       	cpc	r10, r26
    542c:	bb 06       	cpc	r11, r27
    542e:	28 f0       	brcs	.+10     	; 0x543a <create_chain+0x266>
    5430:	81 2c       	mov	r8, r1
    5432:	91 2c       	mov	r9, r1
    5434:	54 01       	movw	r10, r8
    5436:	68 94       	set
    5438:	81 f8       	bld	r8, 1
    543a:	b5 01       	movw	r22, r10
    543c:	a4 01       	movw	r20, r8
    543e:	c6 01       	movw	r24, r12
    5440:	12 dd       	rcall	.-1500   	; 0x4e66 <get_fat>
    5442:	61 30       	cpi	r22, 0x01	; 1
    5444:	71 05       	cpc	r23, r1
    5446:	81 05       	cpc	r24, r1
    5448:	91 05       	cpc	r25, r1
    544a:	09 f4       	brne	.+2      	; 0x544e <create_chain+0x27a>
    544c:	c2 c0       	rjmp	.+388    	; 0x55d2 <create_chain+0x3fe>
    544e:	6f 3f       	cpi	r22, 0xFF	; 255
    5450:	ff ef       	ldi	r31, 0xFF	; 255
    5452:	7f 07       	cpc	r23, r31
    5454:	8f 07       	cpc	r24, r31
    5456:	9f 07       	cpc	r25, r31
    5458:	09 f4       	brne	.+2      	; 0x545c <create_chain+0x288>
    545a:	c0 c0       	rjmp	.+384    	; 0x55dc <create_chain+0x408>
    545c:	67 2b       	or	r22, r23
    545e:	68 2b       	or	r22, r24
    5460:	69 2b       	or	r22, r25
    5462:	b9 f0       	breq	.+46     	; 0x5492 <create_chain+0x2be>
    5464:	ed 81       	ldd	r30, Y+5	; 0x05
    5466:	fe 81       	ldd	r31, Y+6	; 0x06
    5468:	87 85       	ldd	r24, Z+15	; 0x0f
    546a:	90 89       	ldd	r25, Z+16	; 0x10
    546c:	a1 89       	ldd	r26, Z+17	; 0x11
    546e:	b2 89       	ldd	r27, Z+18	; 0x12
    5470:	82 30       	cpi	r24, 0x02	; 2
    5472:	91 05       	cpc	r25, r1
    5474:	a1 05       	cpc	r26, r1
    5476:	b1 05       	cpc	r27, r1
    5478:	88 f0       	brcs	.+34     	; 0x549c <create_chain+0x2c8>
    547a:	47 a1       	ldd	r20, Z+39	; 0x27
    547c:	50 a5       	ldd	r21, Z+40	; 0x28
    547e:	61 a5       	ldd	r22, Z+41	; 0x29
    5480:	72 a5       	ldd	r23, Z+42	; 0x2a
    5482:	84 17       	cp	r24, r20
    5484:	95 07       	cpc	r25, r21
    5486:	a6 07       	cpc	r26, r22
    5488:	b7 07       	cpc	r27, r23
    548a:	40 f4       	brcc	.+16     	; 0x549c <create_chain+0x2c8>
    548c:	2c 01       	movw	r4, r24
    548e:	3d 01       	movw	r6, r26
    5490:	05 c0       	rjmp	.+10     	; 0x549c <create_chain+0x2c8>
    5492:	81 14       	cp	r8, r1
    5494:	91 04       	cpc	r9, r1
    5496:	a1 04       	cpc	r10, r1
    5498:	b1 04       	cpc	r11, r1
    549a:	c9 f5       	brne	.+114    	; 0x550e <create_chain+0x33a>
    549c:	53 01       	movw	r10, r6
    549e:	42 01       	movw	r8, r4
    54a0:	ff ef       	ldi	r31, 0xFF	; 255
    54a2:	8f 1a       	sub	r8, r31
    54a4:	9f 0a       	sbc	r9, r31
    54a6:	af 0a       	sbc	r10, r31
    54a8:	bf 0a       	sbc	r11, r31
    54aa:	ed 81       	ldd	r30, Y+5	; 0x05
    54ac:	fe 81       	ldd	r31, Y+6	; 0x06
    54ae:	87 a1       	ldd	r24, Z+39	; 0x27
    54b0:	90 a5       	ldd	r25, Z+40	; 0x28
    54b2:	a1 a5       	ldd	r26, Z+41	; 0x29
    54b4:	b2 a5       	ldd	r27, Z+42	; 0x2a
    54b6:	88 16       	cp	r8, r24
    54b8:	99 06       	cpc	r9, r25
    54ba:	aa 06       	cpc	r10, r26
    54bc:	bb 06       	cpc	r11, r27
    54be:	60 f0       	brcs	.+24     	; 0x54d8 <create_chain+0x304>
    54c0:	f2 e0       	ldi	r31, 0x02	; 2
    54c2:	4f 16       	cp	r4, r31
    54c4:	51 04       	cpc	r5, r1
    54c6:	61 04       	cpc	r6, r1
    54c8:	71 04       	cpc	r7, r1
    54ca:	08 f4       	brcc	.+2      	; 0x54ce <create_chain+0x2fa>
    54cc:	8b c0       	rjmp	.+278    	; 0x55e4 <create_chain+0x410>
    54ce:	81 2c       	mov	r8, r1
    54d0:	91 2c       	mov	r9, r1
    54d2:	54 01       	movw	r10, r8
    54d4:	68 94       	set
    54d6:	81 f8       	bld	r8, 1
    54d8:	b5 01       	movw	r22, r10
    54da:	a4 01       	movw	r20, r8
    54dc:	c6 01       	movw	r24, r12
    54de:	c3 dc       	rcall	.-1658   	; 0x4e66 <get_fat>
    54e0:	61 15       	cp	r22, r1
    54e2:	71 05       	cpc	r23, r1
    54e4:	81 05       	cpc	r24, r1
    54e6:	91 05       	cpc	r25, r1
    54e8:	91 f0       	breq	.+36     	; 0x550e <create_chain+0x33a>
    54ea:	61 30       	cpi	r22, 0x01	; 1
    54ec:	71 05       	cpc	r23, r1
    54ee:	81 05       	cpc	r24, r1
    54f0:	91 05       	cpc	r25, r1
    54f2:	09 f4       	brne	.+2      	; 0x54f6 <create_chain+0x322>
    54f4:	7b c0       	rjmp	.+246    	; 0x55ec <create_chain+0x418>
    54f6:	6f 3f       	cpi	r22, 0xFF	; 255
    54f8:	7f 4f       	sbci	r23, 0xFF	; 255
    54fa:	8f 4f       	sbci	r24, 0xFF	; 255
    54fc:	9f 4f       	sbci	r25, 0xFF	; 255
    54fe:	09 f4       	brne	.+2      	; 0x5502 <create_chain+0x32e>
    5500:	7a c0       	rjmp	.+244    	; 0x55f6 <create_chain+0x422>
    5502:	84 14       	cp	r8, r4
    5504:	95 04       	cpc	r9, r5
    5506:	a6 04       	cpc	r10, r6
    5508:	b7 04       	cpc	r11, r7
    550a:	51 f6       	brne	.-108    	; 0x54a0 <create_chain+0x2cc>
    550c:	78 c0       	rjmp	.+240    	; 0x55fe <create_chain+0x42a>
    550e:	0f ef       	ldi	r16, 0xFF	; 255
    5510:	1f ef       	ldi	r17, 0xFF	; 255
    5512:	98 01       	movw	r18, r16
    5514:	b5 01       	movw	r22, r10
    5516:	a4 01       	movw	r20, r8
    5518:	8d 81       	ldd	r24, Y+5	; 0x05
    551a:	9e 81       	ldd	r25, Y+6	; 0x06
    551c:	bb da       	rcall	.-2698   	; 0x4a94 <put_fat>
    551e:	81 11       	cpse	r24, r1
    5520:	3c c0       	rjmp	.+120    	; 0x559a <create_chain+0x3c6>
    5522:	89 81       	ldd	r24, Y+1	; 0x01
    5524:	9a 81       	ldd	r25, Y+2	; 0x02
    5526:	ab 81       	ldd	r26, Y+3	; 0x03
    5528:	bc 81       	ldd	r27, Y+4	; 0x04
    552a:	00 97       	sbiw	r24, 0x00	; 0
    552c:	a1 05       	cpc	r26, r1
    552e:	b1 05       	cpc	r27, r1
    5530:	49 f0       	breq	.+18     	; 0x5544 <create_chain+0x370>
    5532:	95 01       	movw	r18, r10
    5534:	84 01       	movw	r16, r8
    5536:	ac 01       	movw	r20, r24
    5538:	bd 01       	movw	r22, r26
    553a:	8d 81       	ldd	r24, Y+5	; 0x05
    553c:	9e 81       	ldd	r25, Y+6	; 0x06
    553e:	aa da       	rcall	.-2732   	; 0x4a94 <put_fat>
    5540:	81 11       	cpse	r24, r1
    5542:	2b c0       	rjmp	.+86     	; 0x559a <create_chain+0x3c6>
    5544:	ad 81       	ldd	r26, Y+5	; 0x05
    5546:	be 81       	ldd	r27, Y+6	; 0x06
    5548:	1f 96       	adiw	r26, 0x0f	; 15
    554a:	8d 92       	st	X+, r8
    554c:	9d 92       	st	X+, r9
    554e:	ad 92       	st	X+, r10
    5550:	bc 92       	st	X, r11
    5552:	52 97       	sbiw	r26, 0x12	; 18
    5554:	53 96       	adiw	r26, 0x13	; 19
    5556:	4d 91       	ld	r20, X+
    5558:	5d 91       	ld	r21, X+
    555a:	6d 91       	ld	r22, X+
    555c:	7c 91       	ld	r23, X
    555e:	56 97       	sbiw	r26, 0x16	; 22
    5560:	fd 01       	movw	r30, r26
    5562:	87 a1       	ldd	r24, Z+39	; 0x27
    5564:	90 a5       	ldd	r25, Z+40	; 0x28
    5566:	a1 a5       	ldd	r26, Z+41	; 0x29
    5568:	b2 a5       	ldd	r27, Z+42	; 0x2a
    556a:	02 97       	sbiw	r24, 0x02	; 2
    556c:	a1 09       	sbc	r26, r1
    556e:	b1 09       	sbc	r27, r1
    5570:	84 17       	cp	r24, r20
    5572:	95 07       	cpc	r25, r21
    5574:	a6 07       	cpc	r26, r22
    5576:	b7 07       	cpc	r27, r23
    5578:	40 f0       	brcs	.+16     	; 0x558a <create_chain+0x3b6>
    557a:	41 50       	subi	r20, 0x01	; 1
    557c:	51 09       	sbc	r21, r1
    557e:	61 09       	sbc	r22, r1
    5580:	71 09       	sbc	r23, r1
    5582:	43 8b       	std	Z+19, r20	; 0x13
    5584:	54 8b       	std	Z+20, r21	; 0x14
    5586:	65 8b       	std	Z+21, r22	; 0x15
    5588:	76 8b       	std	Z+22, r23	; 0x16
    558a:	ed 81       	ldd	r30, Y+5	; 0x05
    558c:	fe 81       	ldd	r31, Y+6	; 0x06
    558e:	84 81       	ldd	r24, Z+4	; 0x04
    5590:	81 60       	ori	r24, 0x01	; 1
    5592:	84 83       	std	Z+4, r24	; 0x04
    5594:	c5 01       	movw	r24, r10
    5596:	b4 01       	movw	r22, r8
    5598:	50 c0       	rjmp	.+160    	; 0x563a <create_chain+0x466>
    559a:	81 30       	cpi	r24, 0x01	; 1
    559c:	a1 f1       	breq	.+104    	; 0x5606 <create_chain+0x432>
    559e:	61 e0       	ldi	r22, 0x01	; 1
    55a0:	70 e0       	ldi	r23, 0x00	; 0
    55a2:	80 e0       	ldi	r24, 0x00	; 0
    55a4:	90 e0       	ldi	r25, 0x00	; 0
    55a6:	49 c0       	rjmp	.+146    	; 0x563a <create_chain+0x466>
    55a8:	61 e0       	ldi	r22, 0x01	; 1
    55aa:	70 e0       	ldi	r23, 0x00	; 0
    55ac:	80 e0       	ldi	r24, 0x00	; 0
    55ae:	90 e0       	ldi	r25, 0x00	; 0
    55b0:	44 c0       	rjmp	.+136    	; 0x563a <create_chain+0x466>
    55b2:	6f ef       	ldi	r22, 0xFF	; 255
    55b4:	7f ef       	ldi	r23, 0xFF	; 255
    55b6:	cb 01       	movw	r24, r22
    55b8:	40 c0       	rjmp	.+128    	; 0x563a <create_chain+0x466>
    55ba:	c5 01       	movw	r24, r10
    55bc:	b4 01       	movw	r22, r8
    55be:	3d c0       	rjmp	.+122    	; 0x563a <create_chain+0x466>
    55c0:	61 e0       	ldi	r22, 0x01	; 1
    55c2:	70 e0       	ldi	r23, 0x00	; 0
    55c4:	80 e0       	ldi	r24, 0x00	; 0
    55c6:	90 e0       	ldi	r25, 0x00	; 0
    55c8:	38 c0       	rjmp	.+112    	; 0x563a <create_chain+0x466>
    55ca:	6f ef       	ldi	r22, 0xFF	; 255
    55cc:	7f ef       	ldi	r23, 0xFF	; 255
    55ce:	cb 01       	movw	r24, r22
    55d0:	34 c0       	rjmp	.+104    	; 0x563a <create_chain+0x466>
    55d2:	61 e0       	ldi	r22, 0x01	; 1
    55d4:	70 e0       	ldi	r23, 0x00	; 0
    55d6:	80 e0       	ldi	r24, 0x00	; 0
    55d8:	90 e0       	ldi	r25, 0x00	; 0
    55da:	2f c0       	rjmp	.+94     	; 0x563a <create_chain+0x466>
    55dc:	6f ef       	ldi	r22, 0xFF	; 255
    55de:	7f ef       	ldi	r23, 0xFF	; 255
    55e0:	cb 01       	movw	r24, r22
    55e2:	2b c0       	rjmp	.+86     	; 0x563a <create_chain+0x466>
    55e4:	60 e0       	ldi	r22, 0x00	; 0
    55e6:	70 e0       	ldi	r23, 0x00	; 0
    55e8:	cb 01       	movw	r24, r22
    55ea:	27 c0       	rjmp	.+78     	; 0x563a <create_chain+0x466>
    55ec:	61 e0       	ldi	r22, 0x01	; 1
    55ee:	70 e0       	ldi	r23, 0x00	; 0
    55f0:	80 e0       	ldi	r24, 0x00	; 0
    55f2:	90 e0       	ldi	r25, 0x00	; 0
    55f4:	22 c0       	rjmp	.+68     	; 0x563a <create_chain+0x466>
    55f6:	6f ef       	ldi	r22, 0xFF	; 255
    55f8:	7f ef       	ldi	r23, 0xFF	; 255
    55fa:	cb 01       	movw	r24, r22
    55fc:	1e c0       	rjmp	.+60     	; 0x563a <create_chain+0x466>
    55fe:	60 e0       	ldi	r22, 0x00	; 0
    5600:	70 e0       	ldi	r23, 0x00	; 0
    5602:	cb 01       	movw	r24, r22
    5604:	1a c0       	rjmp	.+52     	; 0x563a <create_chain+0x466>
    5606:	6f ef       	ldi	r22, 0xFF	; 255
    5608:	7f ef       	ldi	r23, 0xFF	; 255
    560a:	cb 01       	movw	r24, r22
    560c:	16 c0       	rjmp	.+44     	; 0x563a <create_chain+0x466>
    560e:	49 81       	ldd	r20, Y+1	; 0x01
    5610:	5a 81       	ldd	r21, Y+2	; 0x02
    5612:	6b 81       	ldd	r22, Y+3	; 0x03
    5614:	7c 81       	ldd	r23, Y+4	; 0x04
    5616:	4f 5f       	subi	r20, 0xFF	; 255
    5618:	5f 4f       	sbci	r21, 0xFF	; 255
    561a:	6f 4f       	sbci	r22, 0xFF	; 255
    561c:	7f 4f       	sbci	r23, 0xFF	; 255
    561e:	84 16       	cp	r8, r20
    5620:	95 06       	cpc	r9, r21
    5622:	a6 06       	cpc	r10, r22
    5624:	b7 06       	cpc	r11, r23
    5626:	09 f0       	breq	.+2      	; 0x562a <create_chain+0x456>
    5628:	c2 ce       	rjmp	.-636    	; 0x53ae <create_chain+0x1da>
    562a:	9f ce       	rjmp	.-706    	; 0x536a <create_chain+0x196>
    562c:	88 23       	and	r24, r24
    562e:	09 f4       	brne	.+2      	; 0x5632 <create_chain+0x45e>
    5630:	89 cf       	rjmp	.-238    	; 0x5544 <create_chain+0x370>
    5632:	61 e0       	ldi	r22, 0x01	; 1
    5634:	70 e0       	ldi	r23, 0x00	; 0
    5636:	80 e0       	ldi	r24, 0x00	; 0
    5638:	90 e0       	ldi	r25, 0x00	; 0
    563a:	26 96       	adiw	r28, 0x06	; 6
    563c:	0f b6       	in	r0, 0x3f	; 63
    563e:	f8 94       	cli
    5640:	de bf       	out	0x3e, r29	; 62
    5642:	0f be       	out	0x3f, r0	; 63
    5644:	cd bf       	out	0x3d, r28	; 61
    5646:	df 91       	pop	r29
    5648:	cf 91       	pop	r28
    564a:	1f 91       	pop	r17
    564c:	0f 91       	pop	r16
    564e:	ff 90       	pop	r15
    5650:	ef 90       	pop	r14
    5652:	df 90       	pop	r13
    5654:	cf 90       	pop	r12
    5656:	bf 90       	pop	r11
    5658:	af 90       	pop	r10
    565a:	9f 90       	pop	r9
    565c:	8f 90       	pop	r8
    565e:	7f 90       	pop	r7
    5660:	6f 90       	pop	r6
    5662:	5f 90       	pop	r5
    5664:	4f 90       	pop	r4
    5666:	08 95       	ret

00005668 <dir_sdi>:
    5668:	4f 92       	push	r4
    566a:	5f 92       	push	r5
    566c:	6f 92       	push	r6
    566e:	7f 92       	push	r7
    5670:	8f 92       	push	r8
    5672:	9f 92       	push	r9
    5674:	af 92       	push	r10
    5676:	bf 92       	push	r11
    5678:	cf 92       	push	r12
    567a:	df 92       	push	r13
    567c:	ef 92       	push	r14
    567e:	ff 92       	push	r15
    5680:	0f 93       	push	r16
    5682:	1f 93       	push	r17
    5684:	cf 93       	push	r28
    5686:	df 93       	push	r29
    5688:	8c 01       	movw	r16, r24
    568a:	6a 01       	movw	r12, r20
    568c:	7b 01       	movw	r14, r22
    568e:	fc 01       	movw	r30, r24
    5690:	c0 81       	ld	r28, Z
    5692:	d1 81       	ldd	r29, Z+1	; 0x01
    5694:	88 81       	ld	r24, Y
    5696:	84 30       	cpi	r24, 0x04	; 4
    5698:	29 f0       	breq	.+10     	; 0x56a4 <dir_sdi+0x3c>
    569a:	80 e0       	ldi	r24, 0x00	; 0
    569c:	90 e0       	ldi	r25, 0x00	; 0
    569e:	a0 e2       	ldi	r26, 0x20	; 32
    56a0:	b0 e0       	ldi	r27, 0x00	; 0
    56a2:	04 c0       	rjmp	.+8      	; 0x56ac <dir_sdi+0x44>
    56a4:	80 e0       	ldi	r24, 0x00	; 0
    56a6:	90 e0       	ldi	r25, 0x00	; 0
    56a8:	a0 e0       	ldi	r26, 0x00	; 0
    56aa:	b0 e1       	ldi	r27, 0x10	; 16
    56ac:	c8 16       	cp	r12, r24
    56ae:	d9 06       	cpc	r13, r25
    56b0:	ea 06       	cpc	r14, r26
    56b2:	fb 06       	cpc	r15, r27
    56b4:	08 f0       	brcs	.+2      	; 0x56b8 <dir_sdi+0x50>
    56b6:	b2 c0       	rjmp	.+356    	; 0x581c <dir_sdi+0x1b4>
    56b8:	d7 01       	movw	r26, r14
    56ba:	c6 01       	movw	r24, r12
    56bc:	8f 71       	andi	r24, 0x1F	; 31
    56be:	99 27       	eor	r25, r25
    56c0:	aa 27       	eor	r26, r26
    56c2:	bb 27       	eor	r27, r27
    56c4:	89 2b       	or	r24, r25
    56c6:	8a 2b       	or	r24, r26
    56c8:	8b 2b       	or	r24, r27
    56ca:	09 f0       	breq	.+2      	; 0x56ce <dir_sdi+0x66>
    56cc:	a9 c0       	rjmp	.+338    	; 0x5820 <dir_sdi+0x1b8>
    56ce:	f8 01       	movw	r30, r16
    56d0:	c6 a2       	std	Z+38, r12	; 0x26
    56d2:	d7 a2       	std	Z+39, r13	; 0x27
    56d4:	e0 a6       	std	Z+40, r14	; 0x28
    56d6:	f1 a6       	std	Z+41, r15	; 0x29
    56d8:	86 80       	ldd	r8, Z+6	; 0x06
    56da:	97 80       	ldd	r9, Z+7	; 0x07
    56dc:	a0 84       	ldd	r10, Z+8	; 0x08
    56de:	b1 84       	ldd	r11, Z+9	; 0x09
    56e0:	81 14       	cp	r8, r1
    56e2:	91 04       	cpc	r9, r1
    56e4:	a1 04       	cpc	r10, r1
    56e6:	b1 04       	cpc	r11, r1
    56e8:	61 f5       	brne	.+88     	; 0x5742 <dir_sdi+0xda>
    56ea:	88 81       	ld	r24, Y
    56ec:	83 30       	cpi	r24, 0x03	; 3
    56ee:	48 f0       	brcs	.+18     	; 0x5702 <dir_sdi+0x9a>
    56f0:	8f a9       	ldd	r24, Y+55	; 0x37
    56f2:	98 ad       	ldd	r25, Y+56	; 0x38
    56f4:	a9 ad       	ldd	r26, Y+57	; 0x39
    56f6:	ba ad       	ldd	r27, Y+58	; 0x3a
    56f8:	15 82       	std	Z+5, r1	; 0x05
    56fa:	00 97       	sbiw	r24, 0x00	; 0
    56fc:	a1 05       	cpc	r26, r1
    56fe:	b1 05       	cpc	r27, r1
    5700:	f1 f4       	brne	.+60     	; 0x573e <dir_sdi+0xd6>
    5702:	8f 81       	ldd	r24, Y+7	; 0x07
    5704:	98 85       	ldd	r25, Y+8	; 0x08
    5706:	a0 e0       	ldi	r26, 0x00	; 0
    5708:	b0 e0       	ldi	r27, 0x00	; 0
    570a:	b7 01       	movw	r22, r14
    570c:	a6 01       	movw	r20, r12
    570e:	68 94       	set
    5710:	14 f8       	bld	r1, 4
    5712:	76 95       	lsr	r23
    5714:	67 95       	ror	r22
    5716:	57 95       	ror	r21
    5718:	47 95       	ror	r20
    571a:	16 94       	lsr	r1
    571c:	d1 f7       	brne	.-12     	; 0x5712 <dir_sdi+0xaa>
    571e:	48 17       	cp	r20, r24
    5720:	59 07       	cpc	r21, r25
    5722:	6a 07       	cpc	r22, r26
    5724:	7b 07       	cpc	r23, r27
    5726:	08 f0       	brcs	.+2      	; 0x572a <dir_sdi+0xc2>
    5728:	7d c0       	rjmp	.+250    	; 0x5824 <dir_sdi+0x1bc>
    572a:	8f a9       	ldd	r24, Y+55	; 0x37
    572c:	98 ad       	ldd	r25, Y+56	; 0x38
    572e:	a9 ad       	ldd	r26, Y+57	; 0x39
    5730:	ba ad       	ldd	r27, Y+58	; 0x3a
    5732:	f8 01       	movw	r30, r16
    5734:	86 a7       	std	Z+46, r24	; 0x2e
    5736:	97 a7       	std	Z+47, r25	; 0x2f
    5738:	a0 ab       	std	Z+48, r26	; 0x30
    573a:	b1 ab       	std	Z+49, r27	; 0x31
    573c:	44 c0       	rjmp	.+136    	; 0x57c6 <dir_sdi+0x15e>
    573e:	4c 01       	movw	r8, r24
    5740:	5d 01       	movw	r10, r26
    5742:	49 84       	ldd	r4, Y+9	; 0x09
    5744:	5a 84       	ldd	r5, Y+10	; 0x0a
    5746:	61 2c       	mov	r6, r1
    5748:	71 2c       	mov	r7, r1
    574a:	03 2e       	mov	r0, r19
    574c:	39 e0       	ldi	r19, 0x09	; 9
    574e:	44 0c       	add	r4, r4
    5750:	55 1c       	adc	r5, r5
    5752:	66 1c       	adc	r6, r6
    5754:	77 1c       	adc	r7, r7
    5756:	3a 95       	dec	r19
    5758:	d1 f7       	brne	.-12     	; 0x574e <dir_sdi+0xe6>
    575a:	30 2d       	mov	r19, r0
    575c:	c4 14       	cp	r12, r4
    575e:	d5 04       	cpc	r13, r5
    5760:	e6 04       	cpc	r14, r6
    5762:	f7 04       	cpc	r15, r7
    5764:	30 f1       	brcs	.+76     	; 0x57b2 <dir_sdi+0x14a>
    5766:	b5 01       	movw	r22, r10
    5768:	a4 01       	movw	r20, r8
    576a:	c8 01       	movw	r24, r16
    576c:	7c db       	rcall	.-2312   	; 0x4e66 <get_fat>
    576e:	4b 01       	movw	r8, r22
    5770:	5c 01       	movw	r10, r24
    5772:	6f 3f       	cpi	r22, 0xFF	; 255
    5774:	7f 4f       	sbci	r23, 0xFF	; 255
    5776:	8f 4f       	sbci	r24, 0xFF	; 255
    5778:	9f 4f       	sbci	r25, 0xFF	; 255
    577a:	09 f4       	brne	.+2      	; 0x577e <dir_sdi+0x116>
    577c:	55 c0       	rjmp	.+170    	; 0x5828 <dir_sdi+0x1c0>
    577e:	82 e0       	ldi	r24, 0x02	; 2
    5780:	88 16       	cp	r8, r24
    5782:	91 04       	cpc	r9, r1
    5784:	a1 04       	cpc	r10, r1
    5786:	b1 04       	cpc	r11, r1
    5788:	08 f4       	brcc	.+2      	; 0x578c <dir_sdi+0x124>
    578a:	50 c0       	rjmp	.+160    	; 0x582c <dir_sdi+0x1c4>
    578c:	8f a1       	ldd	r24, Y+39	; 0x27
    578e:	98 a5       	ldd	r25, Y+40	; 0x28
    5790:	a9 a5       	ldd	r26, Y+41	; 0x29
    5792:	ba a5       	ldd	r27, Y+42	; 0x2a
    5794:	88 16       	cp	r8, r24
    5796:	99 06       	cpc	r9, r25
    5798:	aa 06       	cpc	r10, r26
    579a:	bb 06       	cpc	r11, r27
    579c:	08 f0       	brcs	.+2      	; 0x57a0 <dir_sdi+0x138>
    579e:	48 c0       	rjmp	.+144    	; 0x5830 <dir_sdi+0x1c8>
    57a0:	c4 18       	sub	r12, r4
    57a2:	d5 08       	sbc	r13, r5
    57a4:	e6 08       	sbc	r14, r6
    57a6:	f7 08       	sbc	r15, r7
    57a8:	c4 14       	cp	r12, r4
    57aa:	d5 04       	cpc	r13, r5
    57ac:	e6 04       	cpc	r14, r6
    57ae:	f7 04       	cpc	r15, r7
    57b0:	d0 f6       	brcc	.-76     	; 0x5766 <dir_sdi+0xfe>
    57b2:	b5 01       	movw	r22, r10
    57b4:	a4 01       	movw	r20, r8
    57b6:	ce 01       	movw	r24, r28
    57b8:	0e 94 12 21 	call	0x4224	; 0x4224 <clst2sect>
    57bc:	f8 01       	movw	r30, r16
    57be:	66 a7       	std	Z+46, r22	; 0x2e
    57c0:	77 a7       	std	Z+47, r23	; 0x2f
    57c2:	80 ab       	std	Z+48, r24	; 0x30
    57c4:	91 ab       	std	Z+49, r25	; 0x31
    57c6:	f8 01       	movw	r30, r16
    57c8:	82 a6       	std	Z+42, r8	; 0x2a
    57ca:	93 a6       	std	Z+43, r9	; 0x2b
    57cc:	a4 a6       	std	Z+44, r10	; 0x2c
    57ce:	b5 a6       	std	Z+45, r11	; 0x2d
    57d0:	86 a5       	ldd	r24, Z+46	; 0x2e
    57d2:	97 a5       	ldd	r25, Z+47	; 0x2f
    57d4:	a0 a9       	ldd	r26, Z+48	; 0x30
    57d6:	b1 a9       	ldd	r27, Z+49	; 0x31
    57d8:	00 97       	sbiw	r24, 0x00	; 0
    57da:	a1 05       	cpc	r26, r1
    57dc:	b1 05       	cpc	r27, r1
    57de:	51 f1       	breq	.+84     	; 0x5834 <dir_sdi+0x1cc>
    57e0:	b7 01       	movw	r22, r14
    57e2:	a6 01       	movw	r20, r12
    57e4:	03 2e       	mov	r0, r19
    57e6:	39 e0       	ldi	r19, 0x09	; 9
    57e8:	76 95       	lsr	r23
    57ea:	67 95       	ror	r22
    57ec:	57 95       	ror	r21
    57ee:	47 95       	ror	r20
    57f0:	3a 95       	dec	r19
    57f2:	d1 f7       	brne	.-12     	; 0x57e8 <dir_sdi+0x180>
    57f4:	30 2d       	mov	r19, r0
    57f6:	84 0f       	add	r24, r20
    57f8:	95 1f       	adc	r25, r21
    57fa:	a6 1f       	adc	r26, r22
    57fc:	b7 1f       	adc	r27, r23
    57fe:	86 a7       	std	Z+46, r24	; 0x2e
    5800:	97 a7       	std	Z+47, r25	; 0x2f
    5802:	a0 ab       	std	Z+48, r26	; 0x30
    5804:	b1 ab       	std	Z+49, r27	; 0x31
    5806:	c9 5b       	subi	r28, 0xB9	; 185
    5808:	df 4f       	sbci	r29, 0xFF	; 255
    580a:	f1 e0       	ldi	r31, 0x01	; 1
    580c:	df 22       	and	r13, r31
    580e:	cc 0e       	add	r12, r28
    5810:	dd 1e       	adc	r13, r29
    5812:	f8 01       	movw	r30, r16
    5814:	d3 aa       	std	Z+51, r13	; 0x33
    5816:	c2 aa       	std	Z+50, r12	; 0x32
    5818:	80 e0       	ldi	r24, 0x00	; 0
    581a:	0d c0       	rjmp	.+26     	; 0x5836 <dir_sdi+0x1ce>
    581c:	82 e0       	ldi	r24, 0x02	; 2
    581e:	0b c0       	rjmp	.+22     	; 0x5836 <dir_sdi+0x1ce>
    5820:	82 e0       	ldi	r24, 0x02	; 2
    5822:	09 c0       	rjmp	.+18     	; 0x5836 <dir_sdi+0x1ce>
    5824:	82 e0       	ldi	r24, 0x02	; 2
    5826:	07 c0       	rjmp	.+14     	; 0x5836 <dir_sdi+0x1ce>
    5828:	81 e0       	ldi	r24, 0x01	; 1
    582a:	05 c0       	rjmp	.+10     	; 0x5836 <dir_sdi+0x1ce>
    582c:	82 e0       	ldi	r24, 0x02	; 2
    582e:	03 c0       	rjmp	.+6      	; 0x5836 <dir_sdi+0x1ce>
    5830:	82 e0       	ldi	r24, 0x02	; 2
    5832:	01 c0       	rjmp	.+2      	; 0x5836 <dir_sdi+0x1ce>
    5834:	82 e0       	ldi	r24, 0x02	; 2
    5836:	df 91       	pop	r29
    5838:	cf 91       	pop	r28
    583a:	1f 91       	pop	r17
    583c:	0f 91       	pop	r16
    583e:	ff 90       	pop	r15
    5840:	ef 90       	pop	r14
    5842:	df 90       	pop	r13
    5844:	cf 90       	pop	r12
    5846:	bf 90       	pop	r11
    5848:	af 90       	pop	r10
    584a:	9f 90       	pop	r9
    584c:	8f 90       	pop	r8
    584e:	7f 90       	pop	r7
    5850:	6f 90       	pop	r6
    5852:	5f 90       	pop	r5
    5854:	4f 90       	pop	r4
    5856:	08 95       	ret

00005858 <remove_chain>:
    5858:	2f 92       	push	r2
    585a:	3f 92       	push	r3
    585c:	4f 92       	push	r4
    585e:	5f 92       	push	r5
    5860:	6f 92       	push	r6
    5862:	7f 92       	push	r7
    5864:	8f 92       	push	r8
    5866:	9f 92       	push	r9
    5868:	af 92       	push	r10
    586a:	bf 92       	push	r11
    586c:	cf 92       	push	r12
    586e:	df 92       	push	r13
    5870:	ef 92       	push	r14
    5872:	ff 92       	push	r15
    5874:	0f 93       	push	r16
    5876:	1f 93       	push	r17
    5878:	cf 93       	push	r28
    587a:	df 93       	push	r29
    587c:	00 d0       	rcall	.+0      	; 0x587e <remove_chain+0x26>
    587e:	00 d0       	rcall	.+0      	; 0x5880 <remove_chain+0x28>
    5880:	cd b7       	in	r28, 0x3d	; 61
    5882:	de b7       	in	r29, 0x3e	; 62
    5884:	1c 01       	movw	r2, r24
    5886:	6a 01       	movw	r12, r20
    5888:	7b 01       	movw	r14, r22
    588a:	28 01       	movw	r4, r16
    588c:	39 01       	movw	r6, r18
    588e:	42 30       	cpi	r20, 0x02	; 2
    5890:	51 05       	cpc	r21, r1
    5892:	61 05       	cpc	r22, r1
    5894:	71 05       	cpc	r23, r1
    5896:	08 f4       	brcc	.+2      	; 0x589a <remove_chain+0x42>
    5898:	1b c1       	rjmp	.+566    	; 0x5ad0 <remove_chain+0x278>
    589a:	dc 01       	movw	r26, r24
    589c:	0d 90       	ld	r0, X+
    589e:	bc 91       	ld	r27, X
    58a0:	a0 2d       	mov	r26, r0
    58a2:	be 83       	std	Y+6, r27	; 0x06
    58a4:	ad 83       	std	Y+5, r26	; 0x05
    58a6:	97 96       	adiw	r26, 0x27	; 39
    58a8:	8d 91       	ld	r24, X+
    58aa:	9d 91       	ld	r25, X+
    58ac:	0d 90       	ld	r0, X+
    58ae:	bc 91       	ld	r27, X
    58b0:	a0 2d       	mov	r26, r0
    58b2:	48 17       	cp	r20, r24
    58b4:	59 07       	cpc	r21, r25
    58b6:	6a 07       	cpc	r22, r26
    58b8:	7b 07       	cpc	r23, r27
    58ba:	08 f0       	brcs	.+2      	; 0x58be <remove_chain+0x66>
    58bc:	0b c1       	rjmp	.+534    	; 0x5ad4 <remove_chain+0x27c>
    58be:	41 14       	cp	r4, r1
    58c0:	51 04       	cpc	r5, r1
    58c2:	61 04       	cpc	r6, r1
    58c4:	71 04       	cpc	r7, r1
    58c6:	a1 f0       	breq	.+40     	; 0x58f0 <remove_chain+0x98>
    58c8:	ed 81       	ldd	r30, Y+5	; 0x05
    58ca:	fe 81       	ldd	r31, Y+6	; 0x06
    58cc:	80 81       	ld	r24, Z
    58ce:	84 30       	cpi	r24, 0x04	; 4
    58d0:	29 f4       	brne	.+10     	; 0x58dc <remove_chain+0x84>
    58d2:	d1 01       	movw	r26, r2
    58d4:	15 96       	adiw	r26, 0x05	; 5
    58d6:	8c 91       	ld	r24, X
    58d8:	82 30       	cpi	r24, 0x02	; 2
    58da:	51 f0       	breq	.+20     	; 0x58f0 <remove_chain+0x98>
    58dc:	0f ef       	ldi	r16, 0xFF	; 255
    58de:	1f ef       	ldi	r17, 0xFF	; 255
    58e0:	98 01       	movw	r18, r16
    58e2:	b3 01       	movw	r22, r6
    58e4:	a2 01       	movw	r20, r4
    58e6:	8d 81       	ldd	r24, Y+5	; 0x05
    58e8:	9e 81       	ldd	r25, Y+6	; 0x06
    58ea:	d4 d8       	rcall	.-3672   	; 0x4a94 <put_fat>
    58ec:	81 11       	cpse	r24, r1
    58ee:	05 c1       	rjmp	.+522    	; 0x5afa <remove_chain+0x2a2>
    58f0:	c9 82       	std	Y+1, r12	; 0x01
    58f2:	da 82       	std	Y+2, r13	; 0x02
    58f4:	eb 82       	std	Y+3, r14	; 0x03
    58f6:	fc 82       	std	Y+4, r15	; 0x04
    58f8:	b7 01       	movw	r22, r14
    58fa:	a6 01       	movw	r20, r12
    58fc:	c1 01       	movw	r24, r2
    58fe:	b3 da       	rcall	.-2714   	; 0x4e66 <get_fat>
    5900:	4b 01       	movw	r8, r22
    5902:	5c 01       	movw	r10, r24
    5904:	61 15       	cp	r22, r1
    5906:	71 05       	cpc	r23, r1
    5908:	81 05       	cpc	r24, r1
    590a:	91 05       	cpc	r25, r1
    590c:	09 f4       	brne	.+2      	; 0x5910 <remove_chain+0xb8>
    590e:	70 c0       	rjmp	.+224    	; 0x59f0 <remove_chain+0x198>
    5910:	61 30       	cpi	r22, 0x01	; 1
    5912:	71 05       	cpc	r23, r1
    5914:	81 05       	cpc	r24, r1
    5916:	91 05       	cpc	r25, r1
    5918:	09 f4       	brne	.+2      	; 0x591c <remove_chain+0xc4>
    591a:	de c0       	rjmp	.+444    	; 0x5ad8 <remove_chain+0x280>
    591c:	6f 3f       	cpi	r22, 0xFF	; 255
    591e:	7f 4f       	sbci	r23, 0xFF	; 255
    5920:	8f 4f       	sbci	r24, 0xFF	; 255
    5922:	9f 4f       	sbci	r25, 0xFF	; 255
    5924:	09 f4       	brne	.+2      	; 0x5928 <remove_chain+0xd0>
    5926:	da c0       	rjmp	.+436    	; 0x5adc <remove_chain+0x284>
    5928:	ad 81       	ldd	r26, Y+5	; 0x05
    592a:	be 81       	ldd	r27, Y+6	; 0x06
    592c:	8c 91       	ld	r24, X
    592e:	84 30       	cpi	r24, 0x04	; 4
    5930:	49 f0       	breq	.+18     	; 0x5944 <remove_chain+0xec>
    5932:	00 e0       	ldi	r16, 0x00	; 0
    5934:	10 e0       	ldi	r17, 0x00	; 0
    5936:	98 01       	movw	r18, r16
    5938:	b7 01       	movw	r22, r14
    593a:	a6 01       	movw	r20, r12
    593c:	cd 01       	movw	r24, r26
    593e:	aa d8       	rcall	.-3756   	; 0x4a94 <put_fat>
    5940:	81 11       	cpse	r24, r1
    5942:	db c0       	rjmp	.+438    	; 0x5afa <remove_chain+0x2a2>
    5944:	ed 81       	ldd	r30, Y+5	; 0x05
    5946:	fe 81       	ldd	r31, Y+6	; 0x06
    5948:	43 89       	ldd	r20, Z+19	; 0x13
    594a:	54 89       	ldd	r21, Z+20	; 0x14
    594c:	65 89       	ldd	r22, Z+21	; 0x15
    594e:	76 89       	ldd	r23, Z+22	; 0x16
    5950:	87 a1       	ldd	r24, Z+39	; 0x27
    5952:	90 a5       	ldd	r25, Z+40	; 0x28
    5954:	a1 a5       	ldd	r26, Z+41	; 0x29
    5956:	b2 a5       	ldd	r27, Z+42	; 0x2a
    5958:	02 97       	sbiw	r24, 0x02	; 2
    595a:	a1 09       	sbc	r26, r1
    595c:	b1 09       	sbc	r27, r1
    595e:	48 17       	cp	r20, r24
    5960:	59 07       	cpc	r21, r25
    5962:	6a 07       	cpc	r22, r26
    5964:	7b 07       	cpc	r23, r27
    5966:	58 f4       	brcc	.+22     	; 0x597e <remove_chain+0x126>
    5968:	4f 5f       	subi	r20, 0xFF	; 255
    596a:	5f 4f       	sbci	r21, 0xFF	; 255
    596c:	6f 4f       	sbci	r22, 0xFF	; 255
    596e:	7f 4f       	sbci	r23, 0xFF	; 255
    5970:	43 8b       	std	Z+19, r20	; 0x13
    5972:	54 8b       	std	Z+20, r21	; 0x14
    5974:	65 8b       	std	Z+21, r22	; 0x15
    5976:	76 8b       	std	Z+22, r23	; 0x16
    5978:	84 81       	ldd	r24, Z+4	; 0x04
    597a:	81 60       	ori	r24, 0x01	; 1
    597c:	84 83       	std	Z+4, r24	; 0x04
    597e:	bf ef       	ldi	r27, 0xFF	; 255
    5980:	cb 1a       	sub	r12, r27
    5982:	db 0a       	sbc	r13, r27
    5984:	eb 0a       	sbc	r14, r27
    5986:	fb 0a       	sbc	r15, r27
    5988:	8c 14       	cp	r8, r12
    598a:	9d 04       	cpc	r9, r13
    598c:	ae 04       	cpc	r10, r14
    598e:	bf 04       	cpc	r11, r15
    5990:	09 f1       	breq	.+66     	; 0x59d4 <remove_chain+0x17c>
    5992:	ed 81       	ldd	r30, Y+5	; 0x05
    5994:	fe 81       	ldd	r31, Y+6	; 0x06
    5996:	80 81       	ld	r24, Z
    5998:	84 30       	cpi	r24, 0x04	; 4
    599a:	c1 f4       	brne	.+48     	; 0x59cc <remove_chain+0x174>
    599c:	97 01       	movw	r18, r14
    599e:	86 01       	movw	r16, r12
    59a0:	89 81       	ldd	r24, Y+1	; 0x01
    59a2:	9a 81       	ldd	r25, Y+2	; 0x02
    59a4:	ab 81       	ldd	r26, Y+3	; 0x03
    59a6:	bc 81       	ldd	r27, Y+4	; 0x04
    59a8:	08 1b       	sub	r16, r24
    59aa:	19 0b       	sbc	r17, r25
    59ac:	2a 0b       	sbc	r18, r26
    59ae:	3b 0b       	sbc	r19, r27
    59b0:	e1 2c       	mov	r14, r1
    59b2:	f1 2c       	mov	r15, r1
    59b4:	ac 01       	movw	r20, r24
    59b6:	bd 01       	movw	r22, r26
    59b8:	cf 01       	movw	r24, r30
    59ba:	0e 94 bc 23 	call	0x4778	; 0x4778 <change_bitmap>
    59be:	81 11       	cpse	r24, r1
    59c0:	9c c0       	rjmp	.+312    	; 0x5afa <remove_chain+0x2a2>
    59c2:	89 82       	std	Y+1, r8	; 0x01
    59c4:	9a 82       	std	Y+2, r9	; 0x02
    59c6:	ab 82       	std	Y+3, r10	; 0x03
    59c8:	bc 82       	std	Y+4, r11	; 0x04
    59ca:	04 c0       	rjmp	.+8      	; 0x59d4 <remove_chain+0x17c>
    59cc:	89 82       	std	Y+1, r8	; 0x01
    59ce:	9a 82       	std	Y+2, r9	; 0x02
    59d0:	ab 82       	std	Y+3, r10	; 0x03
    59d2:	bc 82       	std	Y+4, r11	; 0x04
    59d4:	75 01       	movw	r14, r10
    59d6:	64 01       	movw	r12, r8
    59d8:	ed 81       	ldd	r30, Y+5	; 0x05
    59da:	fe 81       	ldd	r31, Y+6	; 0x06
    59dc:	87 a1       	ldd	r24, Z+39	; 0x27
    59de:	90 a5       	ldd	r25, Z+40	; 0x28
    59e0:	a1 a5       	ldd	r26, Z+41	; 0x29
    59e2:	b2 a5       	ldd	r27, Z+42	; 0x2a
    59e4:	88 16       	cp	r8, r24
    59e6:	99 06       	cpc	r9, r25
    59e8:	aa 06       	cpc	r10, r26
    59ea:	bb 06       	cpc	r11, r27
    59ec:	08 f4       	brcc	.+2      	; 0x59f0 <remove_chain+0x198>
    59ee:	84 cf       	rjmp	.-248    	; 0x58f8 <remove_chain+0xa0>
    59f0:	ad 81       	ldd	r26, Y+5	; 0x05
    59f2:	be 81       	ldd	r27, Y+6	; 0x06
    59f4:	8c 91       	ld	r24, X
    59f6:	84 30       	cpi	r24, 0x04	; 4
    59f8:	09 f0       	breq	.+2      	; 0x59fc <remove_chain+0x1a4>
    59fa:	72 c0       	rjmp	.+228    	; 0x5ae0 <remove_chain+0x288>
    59fc:	41 14       	cp	r4, r1
    59fe:	51 04       	cpc	r5, r1
    5a00:	61 04       	cpc	r6, r1
    5a02:	71 04       	cpc	r7, r1
    5a04:	21 f4       	brne	.+8      	; 0x5a0e <remove_chain+0x1b6>
    5a06:	f1 01       	movw	r30, r2
    5a08:	15 82       	std	Z+5, r1	; 0x05
    5a0a:	80 e0       	ldi	r24, 0x00	; 0
    5a0c:	76 c0       	rjmp	.+236    	; 0x5afa <remove_chain+0x2a2>
    5a0e:	d1 01       	movw	r26, r2
    5a10:	15 96       	adiw	r26, 0x05	; 5
    5a12:	8c 91       	ld	r24, X
    5a14:	15 97       	sbiw	r26, 0x05	; 5
    5a16:	81 11       	cpse	r24, r1
    5a18:	39 c0       	rjmp	.+114    	; 0x5a8c <remove_chain+0x234>
    5a1a:	16 96       	adiw	r26, 0x06	; 6
    5a1c:	cd 90       	ld	r12, X+
    5a1e:	dd 90       	ld	r13, X+
    5a20:	ed 90       	ld	r14, X+
    5a22:	fc 90       	ld	r15, X
    5a24:	19 97       	sbiw	r26, 0x09	; 9
    5a26:	4c 14       	cp	r4, r12
    5a28:	5d 04       	cpc	r5, r13
    5a2a:	6e 04       	cpc	r6, r14
    5a2c:	7f 04       	cpc	r7, r15
    5a2e:	49 f1       	breq	.+82     	; 0x5a82 <remove_chain+0x22a>
    5a30:	b7 01       	movw	r22, r14
    5a32:	a6 01       	movw	r20, r12
    5a34:	c1 01       	movw	r24, r2
    5a36:	17 da       	rcall	.-3026   	; 0x4e66 <get_fat>
    5a38:	62 30       	cpi	r22, 0x02	; 2
    5a3a:	71 05       	cpc	r23, r1
    5a3c:	81 05       	cpc	r24, r1
    5a3e:	91 05       	cpc	r25, r1
    5a40:	08 f4       	brcc	.+2      	; 0x5a44 <remove_chain+0x1ec>
    5a42:	50 c0       	rjmp	.+160    	; 0x5ae4 <remove_chain+0x28c>
    5a44:	6f 3f       	cpi	r22, 0xFF	; 255
    5a46:	bf ef       	ldi	r27, 0xFF	; 255
    5a48:	7b 07       	cpc	r23, r27
    5a4a:	8b 07       	cpc	r24, r27
    5a4c:	9b 07       	cpc	r25, r27
    5a4e:	09 f4       	brne	.+2      	; 0x5a52 <remove_chain+0x1fa>
    5a50:	4b c0       	rjmp	.+150    	; 0x5ae8 <remove_chain+0x290>
    5a52:	97 01       	movw	r18, r14
    5a54:	86 01       	movw	r16, r12
    5a56:	0f 5f       	subi	r16, 0xFF	; 255
    5a58:	1f 4f       	sbci	r17, 0xFF	; 255
    5a5a:	2f 4f       	sbci	r18, 0xFF	; 255
    5a5c:	3f 4f       	sbci	r19, 0xFF	; 255
    5a5e:	60 17       	cp	r22, r16
    5a60:	71 07       	cpc	r23, r17
    5a62:	82 07       	cpc	r24, r18
    5a64:	93 07       	cpc	r25, r19
    5a66:	41 f4       	brne	.+16     	; 0x5a78 <remove_chain+0x220>
    5a68:	6b 01       	movw	r12, r22
    5a6a:	7c 01       	movw	r14, r24
    5a6c:	46 16       	cp	r4, r22
    5a6e:	57 06       	cpc	r5, r23
    5a70:	68 06       	cpc	r6, r24
    5a72:	79 06       	cpc	r7, r25
    5a74:	e9 f6       	brne	.-70     	; 0x5a30 <remove_chain+0x1d8>
    5a76:	05 c0       	rjmp	.+10     	; 0x5a82 <remove_chain+0x22a>
    5a78:	4c 14       	cp	r4, r12
    5a7a:	5d 04       	cpc	r5, r13
    5a7c:	6e 04       	cpc	r6, r14
    5a7e:	7f 04       	cpc	r7, r15
    5a80:	a9 f5       	brne	.+106    	; 0x5aec <remove_chain+0x294>
    5a82:	82 e0       	ldi	r24, 0x02	; 2
    5a84:	f1 01       	movw	r30, r2
    5a86:	85 83       	std	Z+5, r24	; 0x05
    5a88:	80 e0       	ldi	r24, 0x00	; 0
    5a8a:	37 c0       	rjmp	.+110    	; 0x5afa <remove_chain+0x2a2>
    5a8c:	83 30       	cpi	r24, 0x03	; 3
    5a8e:	81 f5       	brne	.+96     	; 0x5af0 <remove_chain+0x298>
    5a90:	d1 01       	movw	r26, r2
    5a92:	16 96       	adiw	r26, 0x06	; 6
    5a94:	4d 91       	ld	r20, X+
    5a96:	5d 91       	ld	r21, X+
    5a98:	6d 91       	ld	r22, X+
    5a9a:	7c 91       	ld	r23, X
    5a9c:	19 97       	sbiw	r26, 0x09	; 9
    5a9e:	44 16       	cp	r4, r20
    5aa0:	55 06       	cpc	r5, r21
    5aa2:	66 06       	cpc	r6, r22
    5aa4:	77 06       	cpc	r7, r23
    5aa6:	30 f1       	brcs	.+76     	; 0x5af4 <remove_chain+0x29c>
    5aa8:	52 96       	adiw	r26, 0x12	; 18
    5aaa:	8d 91       	ld	r24, X+
    5aac:	9d 91       	ld	r25, X+
    5aae:	0d 90       	ld	r0, X+
    5ab0:	bc 91       	ld	r27, X
    5ab2:	a0 2d       	mov	r26, r0
    5ab4:	84 0f       	add	r24, r20
    5ab6:	95 1f       	adc	r25, r21
    5ab8:	a6 1f       	adc	r26, r22
    5aba:	b7 1f       	adc	r27, r23
    5abc:	84 15       	cp	r24, r4
    5abe:	95 05       	cpc	r25, r5
    5ac0:	a6 05       	cpc	r26, r6
    5ac2:	b7 05       	cpc	r27, r7
    5ac4:	c8 f0       	brcs	.+50     	; 0x5af8 <remove_chain+0x2a0>
    5ac6:	82 e0       	ldi	r24, 0x02	; 2
    5ac8:	f1 01       	movw	r30, r2
    5aca:	85 83       	std	Z+5, r24	; 0x05
    5acc:	80 e0       	ldi	r24, 0x00	; 0
    5ace:	15 c0       	rjmp	.+42     	; 0x5afa <remove_chain+0x2a2>
    5ad0:	82 e0       	ldi	r24, 0x02	; 2
    5ad2:	13 c0       	rjmp	.+38     	; 0x5afa <remove_chain+0x2a2>
    5ad4:	82 e0       	ldi	r24, 0x02	; 2
    5ad6:	11 c0       	rjmp	.+34     	; 0x5afa <remove_chain+0x2a2>
    5ad8:	82 e0       	ldi	r24, 0x02	; 2
    5ada:	0f c0       	rjmp	.+30     	; 0x5afa <remove_chain+0x2a2>
    5adc:	81 e0       	ldi	r24, 0x01	; 1
    5ade:	0d c0       	rjmp	.+26     	; 0x5afa <remove_chain+0x2a2>
    5ae0:	80 e0       	ldi	r24, 0x00	; 0
    5ae2:	0b c0       	rjmp	.+22     	; 0x5afa <remove_chain+0x2a2>
    5ae4:	82 e0       	ldi	r24, 0x02	; 2
    5ae6:	09 c0       	rjmp	.+18     	; 0x5afa <remove_chain+0x2a2>
    5ae8:	81 e0       	ldi	r24, 0x01	; 1
    5aea:	07 c0       	rjmp	.+14     	; 0x5afa <remove_chain+0x2a2>
    5aec:	80 e0       	ldi	r24, 0x00	; 0
    5aee:	05 c0       	rjmp	.+10     	; 0x5afa <remove_chain+0x2a2>
    5af0:	80 e0       	ldi	r24, 0x00	; 0
    5af2:	03 c0       	rjmp	.+6      	; 0x5afa <remove_chain+0x2a2>
    5af4:	80 e0       	ldi	r24, 0x00	; 0
    5af6:	01 c0       	rjmp	.+2      	; 0x5afa <remove_chain+0x2a2>
    5af8:	80 e0       	ldi	r24, 0x00	; 0
    5afa:	26 96       	adiw	r28, 0x06	; 6
    5afc:	0f b6       	in	r0, 0x3f	; 63
    5afe:	f8 94       	cli
    5b00:	de bf       	out	0x3e, r29	; 62
    5b02:	0f be       	out	0x3f, r0	; 63
    5b04:	cd bf       	out	0x3d, r28	; 61
    5b06:	df 91       	pop	r29
    5b08:	cf 91       	pop	r28
    5b0a:	1f 91       	pop	r17
    5b0c:	0f 91       	pop	r16
    5b0e:	ff 90       	pop	r15
    5b10:	ef 90       	pop	r14
    5b12:	df 90       	pop	r13
    5b14:	cf 90       	pop	r12
    5b16:	bf 90       	pop	r11
    5b18:	af 90       	pop	r10
    5b1a:	9f 90       	pop	r9
    5b1c:	8f 90       	pop	r8
    5b1e:	7f 90       	pop	r7
    5b20:	6f 90       	pop	r6
    5b22:	5f 90       	pop	r5
    5b24:	4f 90       	pop	r4
    5b26:	3f 90       	pop	r3
    5b28:	2f 90       	pop	r2
    5b2a:	08 95       	ret

00005b2c <dir_next>:
    5b2c:	4f 92       	push	r4
    5b2e:	5f 92       	push	r5
    5b30:	6f 92       	push	r6
    5b32:	7f 92       	push	r7
    5b34:	af 92       	push	r10
    5b36:	bf 92       	push	r11
    5b38:	cf 92       	push	r12
    5b3a:	df 92       	push	r13
    5b3c:	ef 92       	push	r14
    5b3e:	ff 92       	push	r15
    5b40:	0f 93       	push	r16
    5b42:	1f 93       	push	r17
    5b44:	cf 93       	push	r28
    5b46:	df 93       	push	r29
    5b48:	fc 01       	movw	r30, r24
    5b4a:	c0 81       	ld	r28, Z
    5b4c:	d1 81       	ldd	r29, Z+1	; 0x01
    5b4e:	c6 a0       	ldd	r12, Z+38	; 0x26
    5b50:	d7 a0       	ldd	r13, Z+39	; 0x27
    5b52:	e0 a4       	ldd	r14, Z+40	; 0x28
    5b54:	f1 a4       	ldd	r15, Z+41	; 0x29
    5b56:	80 e2       	ldi	r24, 0x20	; 32
    5b58:	c8 0e       	add	r12, r24
    5b5a:	d1 1c       	adc	r13, r1
    5b5c:	e1 1c       	adc	r14, r1
    5b5e:	f1 1c       	adc	r15, r1
    5b60:	88 81       	ld	r24, Y
    5b62:	84 30       	cpi	r24, 0x04	; 4
    5b64:	29 f0       	breq	.+10     	; 0x5b70 <dir_next+0x44>
    5b66:	80 e0       	ldi	r24, 0x00	; 0
    5b68:	90 e0       	ldi	r25, 0x00	; 0
    5b6a:	a0 e2       	ldi	r26, 0x20	; 32
    5b6c:	b0 e0       	ldi	r27, 0x00	; 0
    5b6e:	04 c0       	rjmp	.+8      	; 0x5b78 <dir_next+0x4c>
    5b70:	80 e0       	ldi	r24, 0x00	; 0
    5b72:	90 e0       	ldi	r25, 0x00	; 0
    5b74:	a0 e0       	ldi	r26, 0x00	; 0
    5b76:	b0 e1       	ldi	r27, 0x10	; 16
    5b78:	c8 16       	cp	r12, r24
    5b7a:	d9 06       	cpc	r13, r25
    5b7c:	ea 06       	cpc	r14, r26
    5b7e:	fb 06       	cpc	r15, r27
    5b80:	30 f0       	brcs	.+12     	; 0x5b8e <dir_next+0x62>
    5b82:	16 a6       	std	Z+46, r1	; 0x2e
    5b84:	17 a6       	std	Z+47, r1	; 0x2f
    5b86:	10 aa       	std	Z+48, r1	; 0x30
    5b88:	11 aa       	std	Z+49, r1	; 0x31
    5b8a:	84 e0       	ldi	r24, 0x04	; 4
    5b8c:	cb c0       	rjmp	.+406    	; 0x5d24 <dir_next+0x1f8>
    5b8e:	86 a5       	ldd	r24, Z+46	; 0x2e
    5b90:	97 a5       	ldd	r25, Z+47	; 0x2f
    5b92:	a0 a9       	ldd	r26, Z+48	; 0x30
    5b94:	b1 a9       	ldd	r27, Z+49	; 0x31
    5b96:	00 97       	sbiw	r24, 0x00	; 0
    5b98:	a1 05       	cpc	r26, r1
    5b9a:	b1 05       	cpc	r27, r1
    5b9c:	09 f4       	brne	.+2      	; 0x5ba0 <dir_next+0x74>
    5b9e:	b5 c0       	rjmp	.+362    	; 0x5d0a <dir_next+0x1de>
    5ba0:	8b 01       	movw	r16, r22
    5ba2:	5f 01       	movw	r10, r30
    5ba4:	b7 01       	movw	r22, r14
    5ba6:	a6 01       	movw	r20, r12
    5ba8:	51 70       	andi	r21, 0x01	; 1
    5baa:	66 27       	eor	r22, r22
    5bac:	77 27       	eor	r23, r23
    5bae:	45 2b       	or	r20, r21
    5bb0:	46 2b       	or	r20, r22
    5bb2:	47 2b       	or	r20, r23
    5bb4:	09 f0       	breq	.+2      	; 0x5bb8 <dir_next+0x8c>
    5bb6:	99 c0       	rjmp	.+306    	; 0x5cea <dir_next+0x1be>
    5bb8:	01 96       	adiw	r24, 0x01	; 1
    5bba:	a1 1d       	adc	r26, r1
    5bbc:	b1 1d       	adc	r27, r1
    5bbe:	86 a7       	std	Z+46, r24	; 0x2e
    5bc0:	97 a7       	std	Z+47, r25	; 0x2f
    5bc2:	a0 ab       	std	Z+48, r26	; 0x30
    5bc4:	b1 ab       	std	Z+49, r27	; 0x31
    5bc6:	42 a5       	ldd	r20, Z+42	; 0x2a
    5bc8:	53 a5       	ldd	r21, Z+43	; 0x2b
    5bca:	64 a5       	ldd	r22, Z+44	; 0x2c
    5bcc:	75 a5       	ldd	r23, Z+45	; 0x2d
    5bce:	41 15       	cp	r20, r1
    5bd0:	51 05       	cpc	r21, r1
    5bd2:	61 05       	cpc	r22, r1
    5bd4:	71 05       	cpc	r23, r1
    5bd6:	d1 f4       	brne	.+52     	; 0x5c0c <dir_next+0xe0>
    5bd8:	8f 81       	ldd	r24, Y+7	; 0x07
    5bda:	98 85       	ldd	r25, Y+8	; 0x08
    5bdc:	a0 e0       	ldi	r26, 0x00	; 0
    5bde:	b0 e0       	ldi	r27, 0x00	; 0
    5be0:	b7 01       	movw	r22, r14
    5be2:	a6 01       	movw	r20, r12
    5be4:	68 94       	set
    5be6:	14 f8       	bld	r1, 4
    5be8:	76 95       	lsr	r23
    5bea:	67 95       	ror	r22
    5bec:	57 95       	ror	r21
    5bee:	47 95       	ror	r20
    5bf0:	16 94       	lsr	r1
    5bf2:	d1 f7       	brne	.-12     	; 0x5be8 <dir_next+0xbc>
    5bf4:	48 17       	cp	r20, r24
    5bf6:	59 07       	cpc	r21, r25
    5bf8:	6a 07       	cpc	r22, r26
    5bfa:	7b 07       	cpc	r23, r27
    5bfc:	08 f4       	brcc	.+2      	; 0x5c00 <dir_next+0xd4>
    5bfe:	75 c0       	rjmp	.+234    	; 0x5cea <dir_next+0x1be>
    5c00:	16 a6       	std	Z+46, r1	; 0x2e
    5c02:	17 a6       	std	Z+47, r1	; 0x2f
    5c04:	10 aa       	std	Z+48, r1	; 0x30
    5c06:	11 aa       	std	Z+49, r1	; 0x31
    5c08:	84 e0       	ldi	r24, 0x04	; 4
    5c0a:	8c c0       	rjmp	.+280    	; 0x5d24 <dir_next+0x1f8>
    5c0c:	89 85       	ldd	r24, Y+9	; 0x09
    5c0e:	9a 85       	ldd	r25, Y+10	; 0x0a
    5c10:	01 97       	sbiw	r24, 0x01	; 1
    5c12:	a0 e0       	ldi	r26, 0x00	; 0
    5c14:	b0 e0       	ldi	r27, 0x00	; 0
    5c16:	26 01       	movw	r4, r12
    5c18:	37 01       	movw	r6, r14
    5c1a:	03 2e       	mov	r0, r19
    5c1c:	39 e0       	ldi	r19, 0x09	; 9
    5c1e:	76 94       	lsr	r7
    5c20:	67 94       	ror	r6
    5c22:	57 94       	ror	r5
    5c24:	47 94       	ror	r4
    5c26:	3a 95       	dec	r19
    5c28:	d1 f7       	brne	.-12     	; 0x5c1e <dir_next+0xf2>
    5c2a:	30 2d       	mov	r19, r0
    5c2c:	84 21       	and	r24, r4
    5c2e:	95 21       	and	r25, r5
    5c30:	a6 21       	and	r26, r6
    5c32:	b7 21       	and	r27, r7
    5c34:	89 2b       	or	r24, r25
    5c36:	8a 2b       	or	r24, r26
    5c38:	8b 2b       	or	r24, r27
    5c3a:	09 f0       	breq	.+2      	; 0x5c3e <dir_next+0x112>
    5c3c:	56 c0       	rjmp	.+172    	; 0x5cea <dir_next+0x1be>
    5c3e:	cf 01       	movw	r24, r30
    5c40:	12 d9       	rcall	.-3548   	; 0x4e66 <get_fat>
    5c42:	2b 01       	movw	r4, r22
    5c44:	3c 01       	movw	r6, r24
    5c46:	62 30       	cpi	r22, 0x02	; 2
    5c48:	71 05       	cpc	r23, r1
    5c4a:	81 05       	cpc	r24, r1
    5c4c:	91 05       	cpc	r25, r1
    5c4e:	08 f4       	brcc	.+2      	; 0x5c52 <dir_next+0x126>
    5c50:	5e c0       	rjmp	.+188    	; 0x5d0e <dir_next+0x1e2>
    5c52:	8f ef       	ldi	r24, 0xFF	; 255
    5c54:	48 16       	cp	r4, r24
    5c56:	58 06       	cpc	r5, r24
    5c58:	68 06       	cpc	r6, r24
    5c5a:	78 06       	cpc	r7, r24
    5c5c:	09 f4       	brne	.+2      	; 0x5c60 <dir_next+0x134>
    5c5e:	59 c0       	rjmp	.+178    	; 0x5d12 <dir_next+0x1e6>
    5c60:	8f a1       	ldd	r24, Y+39	; 0x27
    5c62:	98 a5       	ldd	r25, Y+40	; 0x28
    5c64:	a9 a5       	ldd	r26, Y+41	; 0x29
    5c66:	ba a5       	ldd	r27, Y+42	; 0x2a
    5c68:	48 16       	cp	r4, r24
    5c6a:	59 06       	cpc	r5, r25
    5c6c:	6a 06       	cpc	r6, r26
    5c6e:	7b 06       	cpc	r7, r27
    5c70:	68 f1       	brcs	.+90     	; 0x5ccc <dir_next+0x1a0>
    5c72:	01 2b       	or	r16, r17
    5c74:	39 f4       	brne	.+14     	; 0x5c84 <dir_next+0x158>
    5c76:	f5 01       	movw	r30, r10
    5c78:	16 a6       	std	Z+46, r1	; 0x2e
    5c7a:	17 a6       	std	Z+47, r1	; 0x2f
    5c7c:	10 aa       	std	Z+48, r1	; 0x30
    5c7e:	11 aa       	std	Z+49, r1	; 0x31
    5c80:	84 e0       	ldi	r24, 0x04	; 4
    5c82:	50 c0       	rjmp	.+160    	; 0x5d24 <dir_next+0x1f8>
    5c84:	f5 01       	movw	r30, r10
    5c86:	42 a5       	ldd	r20, Z+42	; 0x2a
    5c88:	53 a5       	ldd	r21, Z+43	; 0x2b
    5c8a:	64 a5       	ldd	r22, Z+44	; 0x2c
    5c8c:	75 a5       	ldd	r23, Z+45	; 0x2d
    5c8e:	c5 01       	movw	r24, r10
    5c90:	a1 da       	rcall	.-2750   	; 0x51d4 <create_chain>
    5c92:	2b 01       	movw	r4, r22
    5c94:	3c 01       	movw	r6, r24
    5c96:	61 15       	cp	r22, r1
    5c98:	71 05       	cpc	r23, r1
    5c9a:	81 05       	cpc	r24, r1
    5c9c:	91 05       	cpc	r25, r1
    5c9e:	d9 f1       	breq	.+118    	; 0x5d16 <dir_next+0x1ea>
    5ca0:	61 30       	cpi	r22, 0x01	; 1
    5ca2:	71 05       	cpc	r23, r1
    5ca4:	81 05       	cpc	r24, r1
    5ca6:	91 05       	cpc	r25, r1
    5ca8:	c1 f1       	breq	.+112    	; 0x5d1a <dir_next+0x1ee>
    5caa:	8f ef       	ldi	r24, 0xFF	; 255
    5cac:	48 16       	cp	r4, r24
    5cae:	58 06       	cpc	r5, r24
    5cb0:	68 06       	cpc	r6, r24
    5cb2:	78 06       	cpc	r7, r24
    5cb4:	a1 f1       	breq	.+104    	; 0x5d1e <dir_next+0x1f2>
    5cb6:	b3 01       	movw	r22, r6
    5cb8:	a2 01       	movw	r20, r4
    5cba:	ce 01       	movw	r24, r28
    5cbc:	0e 94 54 24 	call	0x48a8	; 0x48a8 <dir_clear>
    5cc0:	81 11       	cpse	r24, r1
    5cc2:	2f c0       	rjmp	.+94     	; 0x5d22 <dir_next+0x1f6>
    5cc4:	f5 01       	movw	r30, r10
    5cc6:	85 81       	ldd	r24, Z+5	; 0x05
    5cc8:	84 60       	ori	r24, 0x04	; 4
    5cca:	85 83       	std	Z+5, r24	; 0x05
    5ccc:	f5 01       	movw	r30, r10
    5cce:	42 a6       	std	Z+42, r4	; 0x2a
    5cd0:	53 a6       	std	Z+43, r5	; 0x2b
    5cd2:	64 a6       	std	Z+44, r6	; 0x2c
    5cd4:	75 a6       	std	Z+45, r7	; 0x2d
    5cd6:	b3 01       	movw	r22, r6
    5cd8:	a2 01       	movw	r20, r4
    5cda:	ce 01       	movw	r24, r28
    5cdc:	0e 94 12 21 	call	0x4224	; 0x4224 <clst2sect>
    5ce0:	f5 01       	movw	r30, r10
    5ce2:	66 a7       	std	Z+46, r22	; 0x2e
    5ce4:	77 a7       	std	Z+47, r23	; 0x2f
    5ce6:	80 ab       	std	Z+48, r24	; 0x30
    5ce8:	91 ab       	std	Z+49, r25	; 0x31
    5cea:	f5 01       	movw	r30, r10
    5cec:	c6 a2       	std	Z+38, r12	; 0x26
    5cee:	d7 a2       	std	Z+39, r13	; 0x27
    5cf0:	e0 a6       	std	Z+40, r14	; 0x28
    5cf2:	f1 a6       	std	Z+41, r15	; 0x29
    5cf4:	c9 5b       	subi	r28, 0xB9	; 185
    5cf6:	df 4f       	sbci	r29, 0xFF	; 255
    5cf8:	f1 e0       	ldi	r31, 0x01	; 1
    5cfa:	df 22       	and	r13, r31
    5cfc:	cc 0e       	add	r12, r28
    5cfe:	dd 1e       	adc	r13, r29
    5d00:	f5 01       	movw	r30, r10
    5d02:	d3 aa       	std	Z+51, r13	; 0x33
    5d04:	c2 aa       	std	Z+50, r12	; 0x32
    5d06:	80 e0       	ldi	r24, 0x00	; 0
    5d08:	0d c0       	rjmp	.+26     	; 0x5d24 <dir_next+0x1f8>
    5d0a:	84 e0       	ldi	r24, 0x04	; 4
    5d0c:	0b c0       	rjmp	.+22     	; 0x5d24 <dir_next+0x1f8>
    5d0e:	82 e0       	ldi	r24, 0x02	; 2
    5d10:	09 c0       	rjmp	.+18     	; 0x5d24 <dir_next+0x1f8>
    5d12:	81 e0       	ldi	r24, 0x01	; 1
    5d14:	07 c0       	rjmp	.+14     	; 0x5d24 <dir_next+0x1f8>
    5d16:	87 e0       	ldi	r24, 0x07	; 7
    5d18:	05 c0       	rjmp	.+10     	; 0x5d24 <dir_next+0x1f8>
    5d1a:	82 e0       	ldi	r24, 0x02	; 2
    5d1c:	03 c0       	rjmp	.+6      	; 0x5d24 <dir_next+0x1f8>
    5d1e:	81 e0       	ldi	r24, 0x01	; 1
    5d20:	01 c0       	rjmp	.+2      	; 0x5d24 <dir_next+0x1f8>
    5d22:	81 e0       	ldi	r24, 0x01	; 1
    5d24:	df 91       	pop	r29
    5d26:	cf 91       	pop	r28
    5d28:	1f 91       	pop	r17
    5d2a:	0f 91       	pop	r16
    5d2c:	ff 90       	pop	r15
    5d2e:	ef 90       	pop	r14
    5d30:	df 90       	pop	r13
    5d32:	cf 90       	pop	r12
    5d34:	bf 90       	pop	r11
    5d36:	af 90       	pop	r10
    5d38:	7f 90       	pop	r7
    5d3a:	6f 90       	pop	r6
    5d3c:	5f 90       	pop	r5
    5d3e:	4f 90       	pop	r4
    5d40:	08 95       	ret

00005d42 <load_xdir>:
    5d42:	cf 92       	push	r12
    5d44:	df 92       	push	r13
    5d46:	ef 92       	push	r14
    5d48:	ff 92       	push	r15
    5d4a:	0f 93       	push	r16
    5d4c:	1f 93       	push	r17
    5d4e:	cf 93       	push	r28
    5d50:	df 93       	push	r29
    5d52:	ec 01       	movw	r28, r24
    5d54:	88 81       	ld	r24, Y
    5d56:	99 81       	ldd	r25, Y+1	; 0x01
    5d58:	fc 01       	movw	r30, r24
    5d5a:	05 85       	ldd	r16, Z+13	; 0x0d
    5d5c:	16 85       	ldd	r17, Z+14	; 0x0e
    5d5e:	4e a5       	ldd	r20, Y+46	; 0x2e
    5d60:	5f a5       	ldd	r21, Y+47	; 0x2f
    5d62:	68 a9       	ldd	r22, Y+48	; 0x30
    5d64:	79 a9       	ldd	r23, Y+49	; 0x31
    5d66:	0e 94 8f 22 	call	0x451e	; 0x451e <move_window>
    5d6a:	81 11       	cpse	r24, r1
    5d6c:	ac c0       	rjmp	.+344    	; 0x5ec6 <load_xdir+0x184>
    5d6e:	ea a9       	ldd	r30, Y+50	; 0x32
    5d70:	fb a9       	ldd	r31, Y+51	; 0x33
    5d72:	80 81       	ld	r24, Z
    5d74:	85 38       	cpi	r24, 0x85	; 133
    5d76:	09 f0       	breq	.+2      	; 0x5d7a <load_xdir+0x38>
    5d78:	95 c0       	rjmp	.+298    	; 0x5ea4 <load_xdir+0x162>
    5d7a:	40 e2       	ldi	r20, 0x20	; 32
    5d7c:	50 e0       	ldi	r21, 0x00	; 0
    5d7e:	bf 01       	movw	r22, r30
    5d80:	c8 01       	movw	r24, r16
    5d82:	0e 94 ee 20 	call	0x41dc	; 0x41dc <mem_cpy>
    5d86:	f8 01       	movw	r30, r16
    5d88:	e1 80       	ldd	r14, Z+1	; 0x01
    5d8a:	f1 2c       	mov	r15, r1
    5d8c:	ff ef       	ldi	r31, 0xFF	; 255
    5d8e:	ef 1a       	sub	r14, r31
    5d90:	ff 0a       	sbc	r15, r31
    5d92:	ee 0c       	add	r14, r14
    5d94:	ff 1c       	adc	r15, r15
    5d96:	ee 0c       	add	r14, r14
    5d98:	ff 1c       	adc	r15, r15
    5d9a:	ee 0c       	add	r14, r14
    5d9c:	ff 1c       	adc	r15, r15
    5d9e:	ee 0c       	add	r14, r14
    5da0:	ff 1c       	adc	r15, r15
    5da2:	ee 0c       	add	r14, r14
    5da4:	ff 1c       	adc	r15, r15
    5da6:	c7 01       	movw	r24, r14
    5da8:	80 56       	subi	r24, 0x60	; 96
    5daa:	91 09       	sbc	r25, r1
    5dac:	81 30       	cpi	r24, 0x01	; 1
    5dae:	92 40       	sbci	r25, 0x02	; 2
    5db0:	08 f0       	brcs	.+2      	; 0x5db4 <load_xdir+0x72>
    5db2:	7a c0       	rjmp	.+244    	; 0x5ea8 <load_xdir+0x166>
    5db4:	60 e0       	ldi	r22, 0x00	; 0
    5db6:	70 e0       	ldi	r23, 0x00	; 0
    5db8:	ce 01       	movw	r24, r28
    5dba:	b8 de       	rcall	.-656    	; 0x5b2c <dir_next>
    5dbc:	84 30       	cpi	r24, 0x04	; 4
    5dbe:	09 f4       	brne	.+2      	; 0x5dc2 <load_xdir+0x80>
    5dc0:	75 c0       	rjmp	.+234    	; 0x5eac <load_xdir+0x16a>
    5dc2:	81 11       	cpse	r24, r1
    5dc4:	80 c0       	rjmp	.+256    	; 0x5ec6 <load_xdir+0x184>
    5dc6:	4e a5       	ldd	r20, Y+46	; 0x2e
    5dc8:	5f a5       	ldd	r21, Y+47	; 0x2f
    5dca:	68 a9       	ldd	r22, Y+48	; 0x30
    5dcc:	79 a9       	ldd	r23, Y+49	; 0x31
    5dce:	88 81       	ld	r24, Y
    5dd0:	99 81       	ldd	r25, Y+1	; 0x01
    5dd2:	0e 94 8f 22 	call	0x451e	; 0x451e <move_window>
    5dd6:	81 11       	cpse	r24, r1
    5dd8:	76 c0       	rjmp	.+236    	; 0x5ec6 <load_xdir+0x184>
    5dda:	6a a9       	ldd	r22, Y+50	; 0x32
    5ddc:	7b a9       	ldd	r23, Y+51	; 0x33
    5dde:	fb 01       	movw	r30, r22
    5de0:	80 81       	ld	r24, Z
    5de2:	80 3c       	cpi	r24, 0xC0	; 192
    5de4:	09 f0       	breq	.+2      	; 0x5de8 <load_xdir+0xa6>
    5de6:	64 c0       	rjmp	.+200    	; 0x5eb0 <load_xdir+0x16e>
    5de8:	40 e2       	ldi	r20, 0x20	; 32
    5dea:	50 e0       	ldi	r21, 0x00	; 0
    5dec:	c8 01       	movw	r24, r16
    5dee:	80 96       	adiw	r24, 0x20	; 32
    5df0:	0e 94 ee 20 	call	0x41dc	; 0x41dc <mem_cpy>
    5df4:	f8 01       	movw	r30, r16
    5df6:	83 a1       	ldd	r24, Z+35	; 0x23
    5df8:	90 e0       	ldi	r25, 0x00	; 0
    5dfa:	8c 96       	adiw	r24, 0x2c	; 44
    5dfc:	6f e0       	ldi	r22, 0x0F	; 15
    5dfe:	70 e0       	ldi	r23, 0x00	; 0
    5e00:	0e 94 ae 4b 	call	0x975c	; 0x975c <__udivmodhi4>
    5e04:	cb 01       	movw	r24, r22
    5e06:	88 0f       	add	r24, r24
    5e08:	99 1f       	adc	r25, r25
    5e0a:	82 95       	swap	r24
    5e0c:	92 95       	swap	r25
    5e0e:	90 7f       	andi	r25, 0xF0	; 240
    5e10:	98 27       	eor	r25, r24
    5e12:	80 7f       	andi	r24, 0xF0	; 240
    5e14:	98 27       	eor	r25, r24
    5e16:	e8 16       	cp	r14, r24
    5e18:	f9 06       	cpc	r15, r25
    5e1a:	08 f4       	brcc	.+2      	; 0x5e1e <load_xdir+0xdc>
    5e1c:	4b c0       	rjmp	.+150    	; 0x5eb4 <load_xdir+0x172>
    5e1e:	68 94       	set
    5e20:	cc 24       	eor	r12, r12
    5e22:	c6 f8       	bld	r12, 6
    5e24:	d1 2c       	mov	r13, r1
    5e26:	60 e0       	ldi	r22, 0x00	; 0
    5e28:	70 e0       	ldi	r23, 0x00	; 0
    5e2a:	ce 01       	movw	r24, r28
    5e2c:	7f de       	rcall	.-770    	; 0x5b2c <dir_next>
    5e2e:	84 30       	cpi	r24, 0x04	; 4
    5e30:	09 f4       	brne	.+2      	; 0x5e34 <load_xdir+0xf2>
    5e32:	42 c0       	rjmp	.+132    	; 0x5eb8 <load_xdir+0x176>
    5e34:	81 11       	cpse	r24, r1
    5e36:	47 c0       	rjmp	.+142    	; 0x5ec6 <load_xdir+0x184>
    5e38:	4e a5       	ldd	r20, Y+46	; 0x2e
    5e3a:	5f a5       	ldd	r21, Y+47	; 0x2f
    5e3c:	68 a9       	ldd	r22, Y+48	; 0x30
    5e3e:	79 a9       	ldd	r23, Y+49	; 0x31
    5e40:	88 81       	ld	r24, Y
    5e42:	99 81       	ldd	r25, Y+1	; 0x01
    5e44:	0e 94 8f 22 	call	0x451e	; 0x451e <move_window>
    5e48:	81 11       	cpse	r24, r1
    5e4a:	3d c0       	rjmp	.+122    	; 0x5ec6 <load_xdir+0x184>
    5e4c:	6a a9       	ldd	r22, Y+50	; 0x32
    5e4e:	7b a9       	ldd	r23, Y+51	; 0x33
    5e50:	fb 01       	movw	r30, r22
    5e52:	80 81       	ld	r24, Z
    5e54:	81 3c       	cpi	r24, 0xC1	; 193
    5e56:	91 f5       	brne	.+100    	; 0x5ebc <load_xdir+0x17a>
    5e58:	f0 e6       	ldi	r31, 0x60	; 96
    5e5a:	cf 16       	cp	r12, r31
    5e5c:	f1 e0       	ldi	r31, 0x01	; 1
    5e5e:	df 06       	cpc	r13, r31
    5e60:	38 f4       	brcc	.+14     	; 0x5e70 <load_xdir+0x12e>
    5e62:	40 e2       	ldi	r20, 0x20	; 32
    5e64:	50 e0       	ldi	r21, 0x00	; 0
    5e66:	c8 01       	movw	r24, r16
    5e68:	8c 0d       	add	r24, r12
    5e6a:	9d 1d       	adc	r25, r13
    5e6c:	0e 94 ee 20 	call	0x41dc	; 0x41dc <mem_cpy>
    5e70:	20 e2       	ldi	r18, 0x20	; 32
    5e72:	c2 0e       	add	r12, r18
    5e74:	d1 1c       	adc	r13, r1
    5e76:	ce 14       	cp	r12, r14
    5e78:	df 04       	cpc	r13, r15
    5e7a:	a8 f2       	brcs	.-86     	; 0x5e26 <load_xdir+0xe4>
    5e7c:	81 e6       	ldi	r24, 0x61	; 97
    5e7e:	c8 16       	cp	r12, r24
    5e80:	81 e0       	ldi	r24, 0x01	; 1
    5e82:	d8 06       	cpc	r13, r24
    5e84:	e8 f4       	brcc	.+58     	; 0x5ec0 <load_xdir+0x17e>
    5e86:	c8 01       	movw	r24, r16
    5e88:	0e 94 48 21 	call	0x4290	; 0x4290 <xdir_sum>
    5e8c:	f8 01       	movw	r30, r16
    5e8e:	23 81       	ldd	r18, Z+3	; 0x03
    5e90:	30 e0       	ldi	r19, 0x00	; 0
    5e92:	32 2f       	mov	r19, r18
    5e94:	22 27       	eor	r18, r18
    5e96:	42 81       	ldd	r20, Z+2	; 0x02
    5e98:	24 2b       	or	r18, r20
    5e9a:	82 17       	cp	r24, r18
    5e9c:	93 07       	cpc	r25, r19
    5e9e:	91 f4       	brne	.+36     	; 0x5ec4 <load_xdir+0x182>
    5ea0:	80 e0       	ldi	r24, 0x00	; 0
    5ea2:	11 c0       	rjmp	.+34     	; 0x5ec6 <load_xdir+0x184>
    5ea4:	82 e0       	ldi	r24, 0x02	; 2
    5ea6:	0f c0       	rjmp	.+30     	; 0x5ec6 <load_xdir+0x184>
    5ea8:	82 e0       	ldi	r24, 0x02	; 2
    5eaa:	0d c0       	rjmp	.+26     	; 0x5ec6 <load_xdir+0x184>
    5eac:	82 e0       	ldi	r24, 0x02	; 2
    5eae:	0b c0       	rjmp	.+22     	; 0x5ec6 <load_xdir+0x184>
    5eb0:	82 e0       	ldi	r24, 0x02	; 2
    5eb2:	09 c0       	rjmp	.+18     	; 0x5ec6 <load_xdir+0x184>
    5eb4:	82 e0       	ldi	r24, 0x02	; 2
    5eb6:	07 c0       	rjmp	.+14     	; 0x5ec6 <load_xdir+0x184>
    5eb8:	82 e0       	ldi	r24, 0x02	; 2
    5eba:	05 c0       	rjmp	.+10     	; 0x5ec6 <load_xdir+0x184>
    5ebc:	82 e0       	ldi	r24, 0x02	; 2
    5ebe:	03 c0       	rjmp	.+6      	; 0x5ec6 <load_xdir+0x184>
    5ec0:	80 e0       	ldi	r24, 0x00	; 0
    5ec2:	01 c0       	rjmp	.+2      	; 0x5ec6 <load_xdir+0x184>
    5ec4:	82 e0       	ldi	r24, 0x02	; 2
    5ec6:	df 91       	pop	r29
    5ec8:	cf 91       	pop	r28
    5eca:	1f 91       	pop	r17
    5ecc:	0f 91       	pop	r16
    5ece:	ff 90       	pop	r15
    5ed0:	ef 90       	pop	r14
    5ed2:	df 90       	pop	r13
    5ed4:	cf 90       	pop	r12
    5ed6:	08 95       	ret

00005ed8 <load_obj_xdir>:
    5ed8:	0f 93       	push	r16
    5eda:	1f 93       	push	r17
    5edc:	cf 93       	push	r28
    5ede:	df 93       	push	r29
    5ee0:	ec 01       	movw	r28, r24
    5ee2:	fb 01       	movw	r30, r22
    5ee4:	80 81       	ld	r24, Z
    5ee6:	91 81       	ldd	r25, Z+1	; 0x01
    5ee8:	99 83       	std	Y+1, r25	; 0x01
    5eea:	88 83       	st	Y, r24
    5eec:	82 8d       	ldd	r24, Z+26	; 0x1a
    5eee:	93 8d       	ldd	r25, Z+27	; 0x1b
    5ef0:	a4 8d       	ldd	r26, Z+28	; 0x1c
    5ef2:	b5 8d       	ldd	r27, Z+29	; 0x1d
    5ef4:	8e 83       	std	Y+6, r24	; 0x06
    5ef6:	9f 83       	std	Y+7, r25	; 0x07
    5ef8:	a8 87       	std	Y+8, r26	; 0x08
    5efa:	b9 87       	std	Y+9, r27	; 0x09
    5efc:	86 8d       	ldd	r24, Z+30	; 0x1e
    5efe:	8d 83       	std	Y+5, r24	; 0x05
    5f00:	06 8d       	ldd	r16, Z+30	; 0x1e
    5f02:	17 8d       	ldd	r17, Z+31	; 0x1f
    5f04:	20 a1       	ldd	r18, Z+32	; 0x20
    5f06:	31 a1       	ldd	r19, Z+33	; 0x21
    5f08:	00 27       	eor	r16, r16
    5f0a:	0a 87       	std	Y+10, r16	; 0x0a
    5f0c:	1b 87       	std	Y+11, r17	; 0x0b
    5f0e:	2c 87       	std	Y+12, r18	; 0x0c
    5f10:	3d 87       	std	Y+13, r19	; 0x0d
    5f12:	1e 86       	std	Y+14, r1	; 0x0e
    5f14:	1f 86       	std	Y+15, r1	; 0x0f
    5f16:	18 8a       	std	Y+16, r1	; 0x10
    5f18:	19 8a       	std	Y+17, r1	; 0x11
    5f1a:	1e 8a       	std	Y+22, r1	; 0x16
    5f1c:	1f 8a       	std	Y+23, r1	; 0x17
    5f1e:	18 8e       	std	Y+24, r1	; 0x18
    5f20:	19 8e       	std	Y+25, r1	; 0x19
    5f22:	42 a1       	ldd	r20, Z+34	; 0x22
    5f24:	53 a1       	ldd	r21, Z+35	; 0x23
    5f26:	64 a1       	ldd	r22, Z+36	; 0x24
    5f28:	75 a1       	ldd	r23, Z+37	; 0x25
    5f2a:	fe 01       	movw	r30, r28
    5f2c:	e0 5c       	subi	r30, 0xC0	; 192
    5f2e:	ff 4f       	sbci	r31, 0xFF	; 255
    5f30:	40 83       	st	Z, r20
    5f32:	51 83       	std	Z+1, r21	; 0x01
    5f34:	62 83       	std	Z+2, r22	; 0x02
    5f36:	73 83       	std	Z+3, r23	; 0x03
    5f38:	ce 01       	movw	r24, r28
    5f3a:	96 db       	rcall	.-2260   	; 0x5668 <dir_sdi>
    5f3c:	81 11       	cpse	r24, r1
    5f3e:	02 c0       	rjmp	.+4      	; 0x5f44 <load_obj_xdir+0x6c>
    5f40:	ce 01       	movw	r24, r28
    5f42:	ff de       	rcall	.-514    	; 0x5d42 <load_xdir>
    5f44:	df 91       	pop	r29
    5f46:	cf 91       	pop	r28
    5f48:	1f 91       	pop	r17
    5f4a:	0f 91       	pop	r16
    5f4c:	08 95       	ret

00005f4e <dir_alloc>:
    5f4e:	8f 92       	push	r8
    5f50:	9f 92       	push	r9
    5f52:	af 92       	push	r10
    5f54:	bf 92       	push	r11
    5f56:	cf 92       	push	r12
    5f58:	df 92       	push	r13
    5f5a:	ef 92       	push	r14
    5f5c:	ff 92       	push	r15
    5f5e:	0f 93       	push	r16
    5f60:	1f 93       	push	r17
    5f62:	cf 93       	push	r28
    5f64:	df 93       	push	r29
    5f66:	ec 01       	movw	r28, r24
    5f68:	6b 01       	movw	r12, r22
    5f6a:	e8 80       	ld	r14, Y
    5f6c:	f9 80       	ldd	r15, Y+1	; 0x01
    5f6e:	40 e0       	ldi	r20, 0x00	; 0
    5f70:	50 e0       	ldi	r21, 0x00	; 0
    5f72:	ba 01       	movw	r22, r20
    5f74:	79 db       	rcall	.-2318   	; 0x5668 <dir_sdi>
    5f76:	81 11       	cpse	r24, r1
    5f78:	39 c0       	rjmp	.+114    	; 0x5fec <dir_alloc+0x9e>
    5f7a:	00 e0       	ldi	r16, 0x00	; 0
    5f7c:	10 e0       	ldi	r17, 0x00	; 0
    5f7e:	88 24       	eor	r8, r8
    5f80:	83 94       	inc	r8
    5f82:	bb 24       	eor	r11, r11
    5f84:	b3 94       	inc	r11
    5f86:	a1 2c       	mov	r10, r1
    5f88:	91 2c       	mov	r9, r1
    5f8a:	4e a5       	ldd	r20, Y+46	; 0x2e
    5f8c:	5f a5       	ldd	r21, Y+47	; 0x2f
    5f8e:	68 a9       	ldd	r22, Y+48	; 0x30
    5f90:	79 a9       	ldd	r23, Y+49	; 0x31
    5f92:	c7 01       	movw	r24, r14
    5f94:	0e 94 8f 22 	call	0x451e	; 0x451e <move_window>
    5f98:	81 11       	cpse	r24, r1
    5f9a:	28 c0       	rjmp	.+80     	; 0x5fec <dir_alloc+0x9e>
    5f9c:	f7 01       	movw	r30, r14
    5f9e:	90 81       	ld	r25, Z
    5fa0:	94 30       	cpi	r25, 0x04	; 4
    5fa2:	41 f4       	brne	.+16     	; 0x5fb4 <dir_alloc+0x66>
    5fa4:	ea a9       	ldd	r30, Y+50	; 0x32
    5fa6:	fb a9       	ldd	r31, Y+51	; 0x33
    5fa8:	90 81       	ld	r25, Z
    5faa:	90 95       	com	r25
    5fac:	99 1f       	adc	r25, r25
    5fae:	99 27       	eor	r25, r25
    5fb0:	99 1f       	adc	r25, r25
    5fb2:	0c c0       	rjmp	.+24     	; 0x5fcc <dir_alloc+0x7e>
    5fb4:	ea a9       	ldd	r30, Y+50	; 0x32
    5fb6:	fb a9       	ldd	r31, Y+51	; 0x33
    5fb8:	20 81       	ld	r18, Z
    5fba:	25 3e       	cpi	r18, 0xE5	; 229
    5fbc:	29 f0       	breq	.+10     	; 0x5fc8 <dir_alloc+0x7a>
    5fbe:	9b 2d       	mov	r25, r11
    5fc0:	22 23       	and	r18, r18
    5fc2:	19 f0       	breq	.+6      	; 0x5fca <dir_alloc+0x7c>
    5fc4:	99 2d       	mov	r25, r9
    5fc6:	01 c0       	rjmp	.+2      	; 0x5fca <dir_alloc+0x7c>
    5fc8:	98 2d       	mov	r25, r8
    5fca:	91 70       	andi	r25, 0x01	; 1
    5fcc:	99 23       	and	r25, r25
    5fce:	31 f0       	breq	.+12     	; 0x5fdc <dir_alloc+0x8e>
    5fd0:	0f 5f       	subi	r16, 0xFF	; 255
    5fd2:	1f 4f       	sbci	r17, 0xFF	; 255
    5fd4:	0c 15       	cp	r16, r12
    5fd6:	1d 05       	cpc	r17, r13
    5fd8:	19 f4       	brne	.+6      	; 0x5fe0 <dir_alloc+0x92>
    5fda:	0b c0       	rjmp	.+22     	; 0x5ff2 <dir_alloc+0xa4>
    5fdc:	00 e0       	ldi	r16, 0x00	; 0
    5fde:	10 e0       	ldi	r17, 0x00	; 0
    5fe0:	6b 2d       	mov	r22, r11
    5fe2:	7a 2d       	mov	r23, r10
    5fe4:	ce 01       	movw	r24, r28
    5fe6:	a2 dd       	rcall	.-1212   	; 0x5b2c <dir_next>
    5fe8:	88 23       	and	r24, r24
    5fea:	79 f2       	breq	.-98     	; 0x5f8a <dir_alloc+0x3c>
    5fec:	84 30       	cpi	r24, 0x04	; 4
    5fee:	09 f4       	brne	.+2      	; 0x5ff2 <dir_alloc+0xa4>
    5ff0:	87 e0       	ldi	r24, 0x07	; 7
    5ff2:	df 91       	pop	r29
    5ff4:	cf 91       	pop	r28
    5ff6:	1f 91       	pop	r17
    5ff8:	0f 91       	pop	r16
    5ffa:	ff 90       	pop	r15
    5ffc:	ef 90       	pop	r14
    5ffe:	df 90       	pop	r13
    6000:	cf 90       	pop	r12
    6002:	bf 90       	pop	r11
    6004:	af 90       	pop	r10
    6006:	9f 90       	pop	r9
    6008:	8f 90       	pop	r8
    600a:	08 95       	ret

0000600c <store_xdir>:
    600c:	af 92       	push	r10
    600e:	bf 92       	push	r11
    6010:	cf 92       	push	r12
    6012:	df 92       	push	r13
    6014:	ef 92       	push	r14
    6016:	ff 92       	push	r15
    6018:	0f 93       	push	r16
    601a:	1f 93       	push	r17
    601c:	cf 93       	push	r28
    601e:	df 93       	push	r29
    6020:	ec 01       	movw	r28, r24
    6022:	e8 81       	ld	r30, Y
    6024:	f9 81       	ldd	r31, Y+1	; 0x01
    6026:	e5 84       	ldd	r14, Z+13	; 0x0d
    6028:	f6 84       	ldd	r15, Z+14	; 0x0e
    602a:	c7 01       	movw	r24, r14
    602c:	0e 94 48 21 	call	0x4290	; 0x4290 <xdir_sum>
    6030:	f7 01       	movw	r30, r14
    6032:	82 83       	std	Z+2, r24	; 0x02
    6034:	93 83       	std	Z+3, r25	; 0x03
    6036:	a1 80       	ldd	r10, Z+1	; 0x01
    6038:	fe 01       	movw	r30, r28
    603a:	e0 5c       	subi	r30, 0xC0	; 192
    603c:	ff 4f       	sbci	r31, 0xFF	; 255
    603e:	40 81       	ld	r20, Z
    6040:	51 81       	ldd	r21, Z+1	; 0x01
    6042:	62 81       	ldd	r22, Z+2	; 0x02
    6044:	73 81       	ldd	r23, Z+3	; 0x03
    6046:	ce 01       	movw	r24, r28
    6048:	0f db       	rcall	.-2530   	; 0x5668 <dir_sdi>
    604a:	18 2f       	mov	r17, r24
    604c:	81 11       	cpse	r24, r1
    604e:	29 c0       	rjmp	.+82     	; 0x60a2 <store_xdir+0x96>
    6050:	b1 2c       	mov	r11, r1
    6052:	c1 2c       	mov	r12, r1
    6054:	d1 2c       	mov	r13, r1
    6056:	01 e0       	ldi	r16, 0x01	; 1
    6058:	4e a5       	ldd	r20, Y+46	; 0x2e
    605a:	5f a5       	ldd	r21, Y+47	; 0x2f
    605c:	68 a9       	ldd	r22, Y+48	; 0x30
    605e:	79 a9       	ldd	r23, Y+49	; 0x31
    6060:	88 81       	ld	r24, Y
    6062:	99 81       	ldd	r25, Y+1	; 0x01
    6064:	0e 94 8f 22 	call	0x451e	; 0x451e <move_window>
    6068:	18 2f       	mov	r17, r24
    606a:	81 11       	cpse	r24, r1
    606c:	1a c0       	rjmp	.+52     	; 0x60a2 <store_xdir+0x96>
    606e:	40 e2       	ldi	r20, 0x20	; 32
    6070:	50 e0       	ldi	r21, 0x00	; 0
    6072:	b7 01       	movw	r22, r14
    6074:	8a a9       	ldd	r24, Y+50	; 0x32
    6076:	9b a9       	ldd	r25, Y+51	; 0x33
    6078:	0e 94 ee 20 	call	0x41dc	; 0x41dc <mem_cpy>
    607c:	e8 81       	ld	r30, Y
    607e:	f9 81       	ldd	r31, Y+1	; 0x01
    6080:	03 83       	std	Z+3, r16	; 0x03
    6082:	ca 14       	cp	r12, r10
    6084:	db 04       	cpc	r13, r11
    6086:	69 f0       	breq	.+26     	; 0x60a2 <store_xdir+0x96>
    6088:	f0 e2       	ldi	r31, 0x20	; 32
    608a:	ef 0e       	add	r14, r31
    608c:	f1 1c       	adc	r15, r1
    608e:	60 e0       	ldi	r22, 0x00	; 0
    6090:	70 e0       	ldi	r23, 0x00	; 0
    6092:	ce 01       	movw	r24, r28
    6094:	4b dd       	rcall	.-1386   	; 0x5b2c <dir_next>
    6096:	18 2f       	mov	r17, r24
    6098:	8f ef       	ldi	r24, 0xFF	; 255
    609a:	c8 1a       	sub	r12, r24
    609c:	d8 0a       	sbc	r13, r24
    609e:	11 23       	and	r17, r17
    60a0:	d9 f2       	breq	.-74     	; 0x6058 <store_xdir+0x4c>
    60a2:	81 2f       	mov	r24, r17
    60a4:	13 30       	cpi	r17, 0x03	; 3
    60a6:	08 f0       	brcs	.+2      	; 0x60aa <store_xdir+0x9e>
    60a8:	82 e0       	ldi	r24, 0x02	; 2
    60aa:	df 91       	pop	r29
    60ac:	cf 91       	pop	r28
    60ae:	1f 91       	pop	r17
    60b0:	0f 91       	pop	r16
    60b2:	ff 90       	pop	r15
    60b4:	ef 90       	pop	r14
    60b6:	df 90       	pop	r13
    60b8:	cf 90       	pop	r12
    60ba:	bf 90       	pop	r11
    60bc:	af 90       	pop	r10
    60be:	08 95       	ret

000060c0 <check_fs>:
    60c0:	cf 93       	push	r28
    60c2:	df 93       	push	r29
    60c4:	ec 01       	movw	r28, r24
    60c6:	1b 82       	std	Y+3, r1	; 0x03
    60c8:	fc 01       	movw	r30, r24
    60ca:	ed 5b       	subi	r30, 0xBD	; 189
    60cc:	ff 4f       	sbci	r31, 0xFF	; 255
    60ce:	8f ef       	ldi	r24, 0xFF	; 255
    60d0:	9f ef       	ldi	r25, 0xFF	; 255
    60d2:	dc 01       	movw	r26, r24
    60d4:	80 83       	st	Z, r24
    60d6:	91 83       	std	Z+1, r25	; 0x01
    60d8:	a2 83       	std	Z+2, r26	; 0x02
    60da:	b3 83       	std	Z+3, r27	; 0x03
    60dc:	ce 01       	movw	r24, r28
    60de:	0e 94 8f 22 	call	0x451e	; 0x451e <move_window>
    60e2:	81 11       	cpse	r24, r1
    60e4:	39 c0       	rjmp	.+114    	; 0x6158 <check_fs+0x98>
    60e6:	fe 01       	movw	r30, r28
    60e8:	ea 5b       	subi	r30, 0xBA	; 186
    60ea:	fd 4f       	sbci	r31, 0xFD	; 253
    60ec:	80 81       	ld	r24, Z
    60ee:	90 e0       	ldi	r25, 0x00	; 0
    60f0:	98 2f       	mov	r25, r24
    60f2:	88 27       	eor	r24, r24
    60f4:	31 97       	sbiw	r30, 0x01	; 1
    60f6:	20 81       	ld	r18, Z
    60f8:	82 2b       	or	r24, r18
    60fa:	85 35       	cpi	r24, 0x55	; 85
    60fc:	9a 4a       	sbci	r25, 0xAA	; 170
    60fe:	71 f5       	brne	.+92     	; 0x615c <check_fs+0x9c>
    6100:	4b e0       	ldi	r20, 0x0B	; 11
    6102:	50 e0       	ldi	r21, 0x00	; 0
    6104:	61 e0       	ldi	r22, 0x01	; 1
    6106:	72 e0       	ldi	r23, 0x02	; 2
    6108:	ce 01       	movw	r24, r28
    610a:	89 5b       	subi	r24, 0xB9	; 185
    610c:	9f 4f       	sbci	r25, 0xFF	; 255
    610e:	0e 94 04 21 	call	0x4208	; 0x4208 <mem_cmp>
    6112:	89 2b       	or	r24, r25
    6114:	29 f1       	breq	.+74     	; 0x6160 <check_fs+0xa0>
    6116:	fe 01       	movw	r30, r28
    6118:	e9 5b       	subi	r30, 0xB9	; 185
    611a:	ff 4f       	sbci	r31, 0xFF	; 255
    611c:	80 81       	ld	r24, Z
    611e:	8b 3e       	cpi	r24, 0xEB	; 235
    6120:	19 f0       	breq	.+6      	; 0x6128 <check_fs+0x68>
    6122:	88 5e       	subi	r24, 0xE8	; 232
    6124:	82 30       	cpi	r24, 0x02	; 2
    6126:	f0 f4       	brcc	.+60     	; 0x6164 <check_fs+0xa4>
    6128:	43 e0       	ldi	r20, 0x03	; 3
    612a:	50 e0       	ldi	r21, 0x00	; 0
    612c:	6d e0       	ldi	r22, 0x0D	; 13
    612e:	72 e0       	ldi	r23, 0x02	; 2
    6130:	ce 01       	movw	r24, r28
    6132:	83 58       	subi	r24, 0x83	; 131
    6134:	9f 4f       	sbci	r25, 0xFF	; 255
    6136:	0e 94 04 21 	call	0x4208	; 0x4208 <mem_cmp>
    613a:	89 2b       	or	r24, r25
    613c:	a9 f0       	breq	.+42     	; 0x6168 <check_fs+0xa8>
    613e:	45 e0       	ldi	r20, 0x05	; 5
    6140:	50 e0       	ldi	r21, 0x00	; 0
    6142:	61 e1       	ldi	r22, 0x11	; 17
    6144:	72 e0       	ldi	r23, 0x02	; 2
    6146:	ce 01       	movw	r24, r28
    6148:	87 56       	subi	r24, 0x67	; 103
    614a:	9f 4f       	sbci	r25, 0xFF	; 255
    614c:	0e 94 04 21 	call	0x4208	; 0x4208 <mem_cmp>
    6150:	89 2b       	or	r24, r25
    6152:	61 f0       	breq	.+24     	; 0x616c <check_fs+0xac>
    6154:	82 e0       	ldi	r24, 0x02	; 2
    6156:	0b c0       	rjmp	.+22     	; 0x616e <check_fs+0xae>
    6158:	84 e0       	ldi	r24, 0x04	; 4
    615a:	09 c0       	rjmp	.+18     	; 0x616e <check_fs+0xae>
    615c:	83 e0       	ldi	r24, 0x03	; 3
    615e:	07 c0       	rjmp	.+14     	; 0x616e <check_fs+0xae>
    6160:	81 e0       	ldi	r24, 0x01	; 1
    6162:	05 c0       	rjmp	.+10     	; 0x616e <check_fs+0xae>
    6164:	82 e0       	ldi	r24, 0x02	; 2
    6166:	03 c0       	rjmp	.+6      	; 0x616e <check_fs+0xae>
    6168:	80 e0       	ldi	r24, 0x00	; 0
    616a:	01 c0       	rjmp	.+2      	; 0x616e <check_fs+0xae>
    616c:	80 e0       	ldi	r24, 0x00	; 0
    616e:	df 91       	pop	r29
    6170:	cf 91       	pop	r28
    6172:	08 95       	ret

00006174 <find_volume>:
    6174:	2f 92       	push	r2
    6176:	3f 92       	push	r3
    6178:	4f 92       	push	r4
    617a:	5f 92       	push	r5
    617c:	6f 92       	push	r6
    617e:	7f 92       	push	r7
    6180:	8f 92       	push	r8
    6182:	9f 92       	push	r9
    6184:	af 92       	push	r10
    6186:	bf 92       	push	r11
    6188:	cf 92       	push	r12
    618a:	df 92       	push	r13
    618c:	ef 92       	push	r14
    618e:	ff 92       	push	r15
    6190:	0f 93       	push	r16
    6192:	1f 93       	push	r17
    6194:	cf 93       	push	r28
    6196:	df 93       	push	r29
    6198:	cd b7       	in	r28, 0x3d	; 61
    619a:	de b7       	in	r29, 0x3e	; 62
    619c:	a7 97       	sbiw	r28, 0x27	; 39
    619e:	0f b6       	in	r0, 0x3f	; 63
    61a0:	f8 94       	cli
    61a2:	de bf       	out	0x3e, r29	; 62
    61a4:	0f be       	out	0x3f, r0	; 63
    61a6:	cd bf       	out	0x3d, r28	; 61
    61a8:	7b 01       	movw	r14, r22
    61aa:	d4 2e       	mov	r13, r20
    61ac:	db 01       	movw	r26, r22
    61ae:	1d 92       	st	X+, r1
    61b0:	1c 92       	st	X, r1
    61b2:	0e 94 b3 21 	call	0x4366	; 0x4366 <get_ldnumber>
    61b6:	8c 01       	movw	r16, r24
    61b8:	99 23       	and	r25, r25
    61ba:	0c f4       	brge	.+2      	; 0x61be <find_volume+0x4a>
    61bc:	1f c4       	rjmp	.+2110   	; 0x69fc <find_volume+0x888>
    61be:	fc 01       	movw	r30, r24
    61c0:	ee 0f       	add	r30, r30
    61c2:	ff 1f       	adc	r31, r31
    61c4:	e1 5a       	subi	r30, 0xA1	; 161
    61c6:	fa 4f       	sbci	r31, 0xFA	; 250
    61c8:	80 80       	ld	r8, Z
    61ca:	91 80       	ldd	r9, Z+1	; 0x01
    61cc:	81 14       	cp	r8, r1
    61ce:	91 04       	cpc	r9, r1
    61d0:	09 f4       	brne	.+2      	; 0x61d4 <find_volume+0x60>
    61d2:	16 c4       	rjmp	.+2092   	; 0x6a00 <find_volume+0x88c>
    61d4:	f7 01       	movw	r30, r14
    61d6:	91 82       	std	Z+1, r9	; 0x01
    61d8:	80 82       	st	Z, r8
    61da:	fd 2d       	mov	r31, r13
    61dc:	fe 7f       	andi	r31, 0xFE	; 254
    61de:	df 2e       	mov	r13, r31
    61e0:	d4 01       	movw	r26, r8
    61e2:	8c 91       	ld	r24, X
    61e4:	88 23       	and	r24, r24
    61e6:	69 f0       	breq	.+26     	; 0x6202 <find_volume+0x8e>
    61e8:	11 96       	adiw	r26, 0x01	; 1
    61ea:	8c 91       	ld	r24, X
    61ec:	0e 94 4f 20 	call	0x409e	; 0x409e <disk_status>
    61f0:	80 fd       	sbrc	r24, 0
    61f2:	07 c0       	rjmp	.+14     	; 0x6202 <find_volume+0x8e>
    61f4:	dd 20       	and	r13, r13
    61f6:	09 f4       	brne	.+2      	; 0x61fa <find_volume+0x86>
    61f8:	05 c4       	rjmp	.+2058   	; 0x6a04 <find_volume+0x890>
    61fa:	82 ff       	sbrs	r24, 2
    61fc:	05 c4       	rjmp	.+2058   	; 0x6a08 <find_volume+0x894>
    61fe:	8a e0       	ldi	r24, 0x0A	; 10
    6200:	e4 c4       	rjmp	.+2504   	; 0x6bca <find_volume+0xa56>
    6202:	f4 01       	movw	r30, r8
    6204:	10 82       	st	Z, r1
    6206:	01 83       	std	Z+1, r16	; 0x01
    6208:	80 2f       	mov	r24, r16
    620a:	0e 94 56 20 	call	0x40ac	; 0x40ac <disk_initialize>
    620e:	80 fd       	sbrc	r24, 0
    6210:	fd c3       	rjmp	.+2042   	; 0x6a0c <find_volume+0x898>
    6212:	dd 20       	and	r13, r13
    6214:	09 f4       	brne	.+2      	; 0x6218 <find_volume+0xa4>
    6216:	3c c4       	rjmp	.+2168   	; 0x6a90 <find_volume+0x91c>
    6218:	82 fd       	sbrc	r24, 2
    621a:	fa c3       	rjmp	.+2036   	; 0x6a10 <find_volume+0x89c>
    621c:	39 c4       	rjmp	.+2162   	; 0x6a90 <find_volume+0x91c>
    621e:	f8 01       	movw	r30, r16
    6220:	34 97       	sbiw	r30, 0x04	; 4
    6222:	80 81       	ld	r24, Z
    6224:	88 23       	and	r24, r24
    6226:	21 f0       	breq	.+8      	; 0x6230 <find_volume+0xbc>
    6228:	c8 01       	movw	r24, r16
    622a:	0e 94 7d 20 	call	0x40fa	; 0x40fa <ld_dword>
    622e:	04 c0       	rjmp	.+8      	; 0x6238 <find_volume+0xc4>
    6230:	64 2d       	mov	r22, r4
    6232:	75 2d       	mov	r23, r5
    6234:	86 2d       	mov	r24, r6
    6236:	97 2d       	mov	r25, r7
    6238:	d6 01       	movw	r26, r12
    623a:	6d 93       	st	X+, r22
    623c:	7d 93       	st	X+, r23
    623e:	8d 93       	st	X+, r24
    6240:	9d 93       	st	X+, r25
    6242:	6d 01       	movw	r12, r26
    6244:	00 5f       	subi	r16, 0xF0	; 240
    6246:	1f 4f       	sbci	r17, 0xFF	; 255
    6248:	0a 15       	cp	r16, r10
    624a:	1b 05       	cpc	r17, r11
    624c:	41 f7       	brne	.-48     	; 0x621e <find_volume+0xaa>
    624e:	8e 01       	movw	r16, r28
    6250:	0f 5e       	subi	r16, 0xEF	; 239
    6252:	1f 4f       	sbci	r17, 0xFF	; 255
    6254:	0f 2e       	mov	r0, r31
    6256:	f3 e0       	ldi	r31, 0x03	; 3
    6258:	df 2e       	mov	r13, r31
    625a:	f0 2d       	mov	r31, r0
    625c:	f7 01       	movw	r30, r14
    625e:	41 90       	ld	r4, Z+
    6260:	51 90       	ld	r5, Z+
    6262:	61 90       	ld	r6, Z+
    6264:	71 90       	ld	r7, Z+
    6266:	7f 01       	movw	r14, r30
    6268:	41 14       	cp	r4, r1
    626a:	51 04       	cpc	r5, r1
    626c:	61 04       	cpc	r6, r1
    626e:	71 04       	cpc	r7, r1
    6270:	39 f0       	breq	.+14     	; 0x6280 <find_volume+0x10c>
    6272:	b3 01       	movw	r22, r6
    6274:	a2 01       	movw	r20, r4
    6276:	c4 01       	movw	r24, r8
    6278:	23 df       	rcall	.-442    	; 0x60c0 <check_fs>
    627a:	82 30       	cpi	r24, 0x02	; 2
    627c:	10 f4       	brcc	.+4      	; 0x6282 <find_volume+0x10e>
    627e:	22 c4       	rjmp	.+2116   	; 0x6ac4 <find_volume+0x950>
    6280:	8d 2d       	mov	r24, r13
    6282:	e0 16       	cp	r14, r16
    6284:	f1 06       	cpc	r15, r17
    6286:	51 f7       	brne	.-44     	; 0x625c <find_volume+0xe8>
    6288:	03 c0       	rjmp	.+6      	; 0x6290 <find_volume+0x11c>
    628a:	41 2c       	mov	r4, r1
    628c:	51 2c       	mov	r5, r1
    628e:	32 01       	movw	r6, r4
    6290:	84 30       	cpi	r24, 0x04	; 4
    6292:	09 f4       	brne	.+2      	; 0x6296 <find_volume+0x122>
    6294:	bf c3       	rjmp	.+1918   	; 0x6a14 <find_volume+0x8a0>
    6296:	82 30       	cpi	r24, 0x02	; 2
    6298:	08 f0       	brcs	.+2      	; 0x629c <find_volume+0x128>
    629a:	be c3       	rjmp	.+1916   	; 0x6a18 <find_volume+0x8a4>
    629c:	81 30       	cpi	r24, 0x01	; 1
    629e:	09 f0       	breq	.+2      	; 0x62a2 <find_volume+0x12e>
    62a0:	bc c1       	rjmp	.+888    	; 0x661a <find_volume+0x4a6>
    62a2:	f4 01       	movw	r30, r8
    62a4:	ee 5a       	subi	r30, 0xAE	; 174
    62a6:	ff 4f       	sbci	r31, 0xFF	; 255
    62a8:	80 81       	ld	r24, Z
    62aa:	81 11       	cpse	r24, r1
    62ac:	b7 c3       	rjmp	.+1902   	; 0x6a1c <find_volume+0x8a8>
    62ae:	31 96       	adiw	r30, 0x01	; 1
    62b0:	94 01       	movw	r18, r8
    62b2:	29 57       	subi	r18, 0x79	; 121
    62b4:	3f 4f       	sbci	r19, 0xFF	; 255
    62b6:	04 c0       	rjmp	.+8      	; 0x62c0 <find_volume+0x14c>
    62b8:	e2 17       	cp	r30, r18
    62ba:	f3 07       	cpc	r31, r19
    62bc:	09 f4       	brne	.+2      	; 0x62c0 <find_volume+0x14c>
    62be:	06 c4       	rjmp	.+2060   	; 0x6acc <find_volume+0x958>
    62c0:	81 91       	ld	r24, Z+
    62c2:	88 23       	and	r24, r24
    62c4:	c9 f3       	breq	.-14     	; 0x62b8 <find_volume+0x144>
    62c6:	8d e0       	ldi	r24, 0x0D	; 13
    62c8:	80 c4       	rjmp	.+2304   	; 0x6bca <find_volume+0xa56>
    62ca:	81 e0       	ldi	r24, 0x01	; 1
    62cc:	90 e0       	ldi	r25, 0x00	; 0
    62ce:	f4 01       	movw	r30, r8
    62d0:	ed 54       	subi	r30, 0x4D	; 77
    62d2:	ff 4f       	sbci	r31, 0xFF	; 255
    62d4:	00 80       	ld	r0, Z
    62d6:	02 c0       	rjmp	.+4      	; 0x62dc <find_volume+0x168>
    62d8:	88 0f       	add	r24, r24
    62da:	99 1f       	adc	r25, r25
    62dc:	0a 94       	dec	r0
    62de:	e2 f7       	brpl	.-8      	; 0x62d8 <find_volume+0x164>
    62e0:	81 15       	cp	r24, r1
    62e2:	92 40       	sbci	r25, 0x02	; 2
    62e4:	09 f0       	breq	.+2      	; 0x62e8 <find_volume+0x174>
    62e6:	9c c3       	rjmp	.+1848   	; 0x6a20 <find_volume+0x8ac>
    62e8:	c4 01       	movw	r24, r8
    62ea:	81 57       	subi	r24, 0x71	; 113
    62ec:	9f 4f       	sbci	r25, 0xFF	; 255
    62ee:	0e 94 98 20 	call	0x4130	; 0x4130 <ld_qword>
    62f2:	a2 2e       	mov	r10, r18
    62f4:	b3 2e       	mov	r11, r19
    62f6:	c4 2e       	mov	r12, r20
    62f8:	d5 2e       	mov	r13, r21
    62fa:	e6 2e       	mov	r14, r22
    62fc:	f7 2e       	mov	r15, r23
    62fe:	08 2f       	mov	r16, r24
    6300:	19 2f       	mov	r17, r25
    6302:	a3 01       	movw	r20, r6
    6304:	92 01       	movw	r18, r4
    6306:	60 e0       	ldi	r22, 0x00	; 0
    6308:	70 e0       	ldi	r23, 0x00	; 0
    630a:	cb 01       	movw	r24, r22
    630c:	49 8a       	std	Y+17, r4	; 0x11
    630e:	3a 8b       	std	Y+18, r19	; 0x12
    6310:	4b 8b       	std	Y+19, r20	; 0x13
    6312:	5c 8b       	std	Y+20, r21	; 0x14
    6314:	6d 8b       	std	Y+21, r22	; 0x15
    6316:	7e 8b       	std	Y+22, r23	; 0x16
    6318:	8f 8b       	std	Y+23, r24	; 0x17
    631a:	98 8f       	std	Y+24, r25	; 0x18
    631c:	60 e0       	ldi	r22, 0x00	; 0
    631e:	70 e0       	ldi	r23, 0x00	; 0
    6320:	80 e0       	ldi	r24, 0x00	; 0
    6322:	90 e0       	ldi	r25, 0x00	; 0
    6324:	0e 94 3c 4c 	call	0x9878	; 0x9878 <__adddi3>
    6328:	29 8f       	std	Y+25, r18	; 0x19
    632a:	3d 8f       	std	Y+29, r19	; 0x1d
    632c:	49 a3       	std	Y+33, r20	; 0x21
    632e:	5d a3       	std	Y+37, r21	; 0x25
    6330:	36 2e       	mov	r3, r22
    6332:	27 2e       	mov	r2, r23
    6334:	8e a3       	std	Y+38, r24	; 0x26
    6336:	9f a3       	std	Y+39, r25	; 0x27
    6338:	2f 3f       	cpi	r18, 0xFF	; 255
    633a:	3f 4f       	sbci	r19, 0xFF	; 255
    633c:	4f 4f       	sbci	r20, 0xFF	; 255
    633e:	5f 4f       	sbci	r21, 0xFF	; 255
    6340:	61 05       	cpc	r22, r1
    6342:	71 05       	cpc	r23, r1
    6344:	81 05       	cpc	r24, r1
    6346:	91 05       	cpc	r25, r1
    6348:	11 f0       	breq	.+4      	; 0x634e <find_volume+0x1da>
    634a:	08 f0       	brcs	.+2      	; 0x634e <find_volume+0x1da>
    634c:	6b c3       	rjmp	.+1750   	; 0x6a24 <find_volume+0x8b0>
    634e:	c4 01       	movw	r24, r8
    6350:	85 56       	subi	r24, 0x65	; 101
    6352:	9f 4f       	sbci	r25, 0xFF	; 255
    6354:	0e 94 7d 20 	call	0x40fa	; 0x40fa <ld_dword>
    6358:	f4 01       	movw	r30, r8
    635a:	63 a7       	std	Z+43, r22	; 0x2b
    635c:	74 a7       	std	Z+44, r23	; 0x2c
    635e:	85 a7       	std	Z+45, r24	; 0x2d
    6360:	96 a7       	std	Z+46, r25	; 0x2e
    6362:	eb 54       	subi	r30, 0x4B	; 75
    6364:	ff 4f       	sbci	r31, 0xFF	; 255
    6366:	80 81       	ld	r24, Z
    6368:	d4 01       	movw	r26, r8
    636a:	12 96       	adiw	r26, 0x02	; 2
    636c:	8c 93       	st	X, r24
    636e:	81 30       	cpi	r24, 0x01	; 1
    6370:	09 f0       	breq	.+2      	; 0x6374 <find_volume+0x200>
    6372:	5a c3       	rjmp	.+1716   	; 0x6a28 <find_volume+0x8b4>
    6374:	01 e0       	ldi	r16, 0x01	; 1
    6376:	10 e0       	ldi	r17, 0x00	; 0
    6378:	31 97       	sbiw	r30, 0x01	; 1
    637a:	00 80       	ld	r0, Z
    637c:	02 c0       	rjmp	.+4      	; 0x6382 <find_volume+0x20e>
    637e:	00 0f       	add	r16, r16
    6380:	11 1f       	adc	r17, r17
    6382:	0a 94       	dec	r0
    6384:	e2 f7       	brpl	.-8      	; 0x637e <find_volume+0x20a>
    6386:	f4 01       	movw	r30, r8
    6388:	12 87       	std	Z+10, r17	; 0x0a
    638a:	01 87       	std	Z+9, r16	; 0x09
    638c:	01 15       	cp	r16, r1
    638e:	11 05       	cpc	r17, r1
    6390:	09 f4       	brne	.+2      	; 0x6394 <find_volume+0x220>
    6392:	4c c3       	rjmp	.+1688   	; 0x6a2c <find_volume+0x8b8>
    6394:	c4 01       	movw	r24, r8
    6396:	8d 55       	subi	r24, 0x5D	; 93
    6398:	9f 4f       	sbci	r25, 0xFF	; 255
    639a:	0e 94 7d 20 	call	0x40fa	; 0x40fa <ld_dword>
    639e:	6b 01       	movw	r12, r22
    63a0:	7c 01       	movw	r14, r24
    63a2:	6e 3f       	cpi	r22, 0xFE	; 254
    63a4:	ff ef       	ldi	r31, 0xFF	; 255
    63a6:	7f 07       	cpc	r23, r31
    63a8:	8f 07       	cpc	r24, r31
    63aa:	ff e7       	ldi	r31, 0x7F	; 127
    63ac:	9f 07       	cpc	r25, r31
    63ae:	08 f0       	brcs	.+2      	; 0x63b2 <find_volume+0x23e>
    63b0:	3f c3       	rjmp	.+1662   	; 0x6a30 <find_volume+0x8bc>
    63b2:	dc 01       	movw	r26, r24
    63b4:	cb 01       	movw	r24, r22
    63b6:	02 96       	adiw	r24, 0x02	; 2
    63b8:	a1 1d       	adc	r26, r1
    63ba:	b1 1d       	adc	r27, r1
    63bc:	f4 01       	movw	r30, r8
    63be:	87 a3       	std	Z+39, r24	; 0x27
    63c0:	90 a7       	std	Z+40, r25	; 0x28
    63c2:	a1 a7       	std	Z+41, r26	; 0x29
    63c4:	b2 a7       	std	Z+42, r27	; 0x2a
    63c6:	47 a6       	std	Z+47, r4	; 0x2f
    63c8:	50 aa       	std	Z+48, r5	; 0x30
    63ca:	61 aa       	std	Z+49, r6	; 0x31
    63cc:	72 aa       	std	Z+50, r7	; 0x32
    63ce:	c4 01       	movw	r24, r8
    63d0:	81 56       	subi	r24, 0x61	; 97
    63d2:	9f 4f       	sbci	r25, 0xFF	; 255
    63d4:	0e 94 7d 20 	call	0x40fa	; 0x40fa <ld_dword>
    63d8:	9b 01       	movw	r18, r22
    63da:	ac 01       	movw	r20, r24
    63dc:	24 0d       	add	r18, r4
    63de:	35 1d       	adc	r19, r5
    63e0:	46 1d       	adc	r20, r6
    63e2:	57 1d       	adc	r21, r7
    63e4:	29 8b       	std	Y+17, r18	; 0x11
    63e6:	3a 8b       	std	Y+18, r19	; 0x12
    63e8:	4b 8b       	std	Y+19, r20	; 0x13
    63ea:	5c 8b       	std	Y+20, r21	; 0x14
    63ec:	d4 01       	movw	r26, r8
    63ee:	db 96       	adiw	r26, 0x3b	; 59
    63f0:	2d 93       	st	X+, r18
    63f2:	3d 93       	st	X+, r19
    63f4:	4d 93       	st	X+, r20
    63f6:	5c 93       	st	X, r21
    63f8:	de 97       	sbiw	r26, 0x3e	; 62
    63fa:	c4 01       	movw	r24, r8
    63fc:	89 56       	subi	r24, 0x69	; 105
    63fe:	9f 4f       	sbci	r25, 0xFF	; 255
    6400:	0e 94 7d 20 	call	0x40fa	; 0x40fa <ld_dword>
    6404:	dc 01       	movw	r26, r24
    6406:	cb 01       	movw	r24, r22
    6408:	84 0d       	add	r24, r4
    640a:	95 1d       	adc	r25, r5
    640c:	a6 1d       	adc	r26, r6
    640e:	b7 1d       	adc	r27, r7
    6410:	f4 01       	movw	r30, r8
    6412:	83 ab       	std	Z+51, r24	; 0x33
    6414:	94 ab       	std	Z+52, r25	; 0x34
    6416:	a5 ab       	std	Z+53, r26	; 0x35
    6418:	b6 ab       	std	Z+54, r27	; 0x36
    641a:	d8 01       	movw	r26, r16
    641c:	a7 01       	movw	r20, r14
    641e:	96 01       	movw	r18, r12
    6420:	0e 94 fb 4b 	call	0x97f6	; 0x97f6 <__muluhisi3>
    6424:	5b 01       	movw	r10, r22
    6426:	6c 01       	movw	r12, r24
    6428:	49 89       	ldd	r20, Y+17	; 0x11
    642a:	5a 89       	ldd	r21, Y+18	; 0x12
    642c:	6b 89       	ldd	r22, Y+19	; 0x13
    642e:	7c 89       	ldd	r23, Y+20	; 0x14
    6430:	9a 01       	movw	r18, r20
    6432:	ab 01       	movw	r20, r22
    6434:	60 e0       	ldi	r22, 0x00	; 0
    6436:	70 e0       	ldi	r23, 0x00	; 0
    6438:	cb 01       	movw	r24, r22
    643a:	29 8b       	std	Y+17, r18	; 0x11
    643c:	3a 8b       	std	Y+18, r19	; 0x12
    643e:	4b 8b       	std	Y+19, r20	; 0x13
    6440:	5c 8b       	std	Y+20, r21	; 0x14
    6442:	6d 8b       	std	Y+21, r22	; 0x15
    6444:	7e 8b       	std	Y+22, r23	; 0x16
    6446:	8f 8b       	std	Y+23, r24	; 0x17
    6448:	98 8f       	std	Y+24, r25	; 0x18
    644a:	2a 2d       	mov	r18, r10
    644c:	3b 2d       	mov	r19, r11
    644e:	4c 2d       	mov	r20, r12
    6450:	5d 2d       	mov	r21, r13
    6452:	60 e0       	ldi	r22, 0x00	; 0
    6454:	70 e0       	ldi	r23, 0x00	; 0
    6456:	80 e0       	ldi	r24, 0x00	; 0
    6458:	90 e0       	ldi	r25, 0x00	; 0
    645a:	a9 88       	ldd	r10, Y+17	; 0x11
    645c:	ba 88       	ldd	r11, Y+18	; 0x12
    645e:	cb 88       	ldd	r12, Y+19	; 0x13
    6460:	dc 88       	ldd	r13, Y+20	; 0x14
    6462:	e1 2c       	mov	r14, r1
    6464:	f1 2c       	mov	r15, r1
    6466:	00 e0       	ldi	r16, 0x00	; 0
    6468:	10 e0       	ldi	r17, 0x00	; 0
    646a:	0e 94 3c 4c 	call	0x9878	; 0x9878 <__adddi3>
    646e:	a2 2e       	mov	r10, r18
    6470:	b3 2e       	mov	r11, r19
    6472:	c4 2e       	mov	r12, r20
    6474:	d5 2e       	mov	r13, r21
    6476:	e6 2e       	mov	r14, r22
    6478:	f7 2e       	mov	r15, r23
    647a:	08 2f       	mov	r16, r24
    647c:	19 2f       	mov	r17, r25
    647e:	29 8d       	ldd	r18, Y+25	; 0x19
    6480:	3d 8d       	ldd	r19, Y+29	; 0x1d
    6482:	49 a1       	ldd	r20, Y+33	; 0x21
    6484:	5d a1       	ldd	r21, Y+37	; 0x25
    6486:	63 2d       	mov	r22, r3
    6488:	72 2d       	mov	r23, r2
    648a:	8e a1       	ldd	r24, Y+38	; 0x26
    648c:	9f a1       	ldd	r25, Y+39	; 0x27
    648e:	0e 94 5a 4c 	call	0x98b4	; 0x98b4 <__cmpdi2>
    6492:	08 f4       	brcc	.+2      	; 0x6496 <find_volume+0x322>
    6494:	cf c2       	rjmp	.+1438   	; 0x6a34 <find_volume+0x8c0>
    6496:	c4 01       	movw	r24, r8
    6498:	89 55       	subi	r24, 0x59	; 89
    649a:	9f 4f       	sbci	r25, 0xFF	; 255
    649c:	0e 94 7d 20 	call	0x40fa	; 0x40fa <ld_dword>
    64a0:	d4 01       	movw	r26, r8
    64a2:	d7 96       	adiw	r26, 0x37	; 55
    64a4:	6d 93       	st	X+, r22
    64a6:	7d 93       	st	X+, r23
    64a8:	8d 93       	st	X+, r24
    64aa:	9c 93       	st	X, r25
    64ac:	da 97       	sbiw	r26, 0x3a	; 58
    64ae:	c1 2c       	mov	r12, r1
    64b0:	d1 2c       	mov	r13, r1
    64b2:	76 01       	movw	r14, r12
    64b4:	00 e0       	ldi	r16, 0x00	; 0
    64b6:	10 e0       	ldi	r17, 0x00	; 0
    64b8:	01 15       	cp	r16, r1
    64ba:	11 05       	cpc	r17, r1
    64bc:	11 f5       	brne	.+68     	; 0x6502 <find_volume+0x38e>
    64be:	f4 01       	movw	r30, r8
    64c0:	81 85       	ldd	r24, Z+9	; 0x09
    64c2:	92 85       	ldd	r25, Z+10	; 0x0a
    64c4:	a0 e0       	ldi	r26, 0x00	; 0
    64c6:	b0 e0       	ldi	r27, 0x00	; 0
    64c8:	c8 16       	cp	r12, r24
    64ca:	d9 06       	cpc	r13, r25
    64cc:	ea 06       	cpc	r14, r26
    64ce:	fb 06       	cpc	r15, r27
    64d0:	08 f0       	brcs	.+2      	; 0x64d4 <find_volume+0x360>
    64d2:	b2 c2       	rjmp	.+1380   	; 0x6a38 <find_volume+0x8c4>
    64d4:	47 a9       	ldd	r20, Z+55	; 0x37
    64d6:	50 ad       	ldd	r21, Z+56	; 0x38
    64d8:	61 ad       	ldd	r22, Z+57	; 0x39
    64da:	72 ad       	ldd	r23, Z+58	; 0x3a
    64dc:	c4 01       	movw	r24, r8
    64de:	0e 94 12 21 	call	0x4224	; 0x4224 <clst2sect>
    64e2:	ab 01       	movw	r20, r22
    64e4:	bc 01       	movw	r22, r24
    64e6:	4c 0d       	add	r20, r12
    64e8:	5d 1d       	adc	r21, r13
    64ea:	6e 1d       	adc	r22, r14
    64ec:	7f 1d       	adc	r23, r15
    64ee:	c4 01       	movw	r24, r8
    64f0:	0e 94 8f 22 	call	0x451e	; 0x451e <move_window>
    64f4:	81 11       	cpse	r24, r1
    64f6:	a2 c2       	rjmp	.+1348   	; 0x6a3c <find_volume+0x8c8>
    64f8:	ff ef       	ldi	r31, 0xFF	; 255
    64fa:	cf 1a       	sub	r12, r31
    64fc:	df 0a       	sbc	r13, r31
    64fe:	ef 0a       	sbc	r14, r31
    6500:	ff 0a       	sbc	r15, r31
    6502:	f4 01       	movw	r30, r8
    6504:	e0 0f       	add	r30, r16
    6506:	f1 1f       	adc	r31, r17
    6508:	e9 5b       	subi	r30, 0xB9	; 185
    650a:	ff 4f       	sbci	r31, 0xFF	; 255
    650c:	80 81       	ld	r24, Z
    650e:	81 38       	cpi	r24, 0x81	; 129
    6510:	21 f0       	breq	.+8      	; 0x651a <find_volume+0x3a6>
    6512:	00 5e       	subi	r16, 0xE0	; 224
    6514:	1f 4f       	sbci	r17, 0xFF	; 255
    6516:	11 70       	andi	r17, 0x01	; 1
    6518:	cf cf       	rjmp	.-98     	; 0x64b8 <find_volume+0x344>
    651a:	54 01       	movw	r10, r8
    651c:	27 e4       	ldi	r18, 0x47	; 71
    651e:	a2 0e       	add	r10, r18
    6520:	b1 1c       	adc	r11, r1
    6522:	c8 01       	movw	r24, r16
    6524:	44 96       	adiw	r24, 0x14	; 20
    6526:	8a 0d       	add	r24, r10
    6528:	9b 1d       	adc	r25, r11
    652a:	0e 94 7d 20 	call	0x40fa	; 0x40fa <ld_dword>
    652e:	6b 01       	movw	r12, r22
    6530:	7c 01       	movw	r14, r24
    6532:	62 30       	cpi	r22, 0x02	; 2
    6534:	71 05       	cpc	r23, r1
    6536:	81 05       	cpc	r24, r1
    6538:	91 05       	cpc	r25, r1
    653a:	08 f4       	brcc	.+2      	; 0x653e <find_volume+0x3ca>
    653c:	81 c2       	rjmp	.+1282   	; 0x6a40 <find_volume+0x8cc>
    653e:	f4 01       	movw	r30, r8
    6540:	87 a1       	ldd	r24, Z+39	; 0x27
    6542:	90 a5       	ldd	r25, Z+40	; 0x28
    6544:	a1 a5       	ldd	r26, Z+41	; 0x29
    6546:	b2 a5       	ldd	r27, Z+42	; 0x2a
    6548:	c8 16       	cp	r12, r24
    654a:	d9 06       	cpc	r13, r25
    654c:	ea 06       	cpc	r14, r26
    654e:	fb 06       	cpc	r15, r27
    6550:	08 f0       	brcs	.+2      	; 0x6554 <find_volume+0x3e0>
    6552:	78 c2       	rjmp	.+1264   	; 0x6a44 <find_volume+0x8d0>
    6554:	34 01       	movw	r6, r8
    6556:	ff e3       	ldi	r31, 0x3F	; 63
    6558:	6f 0e       	add	r6, r31
    655a:	71 1c       	adc	r7, r1
    655c:	f4 01       	movw	r30, r8
    655e:	a1 85       	ldd	r26, Z+9	; 0x09
    6560:	b2 85       	ldd	r27, Z+10	; 0x0a
    6562:	a7 01       	movw	r20, r14
    6564:	96 01       	movw	r18, r12
    6566:	22 50       	subi	r18, 0x02	; 2
    6568:	31 09       	sbc	r19, r1
    656a:	41 09       	sbc	r20, r1
    656c:	51 09       	sbc	r21, r1
    656e:	0e 94 fb 4b 	call	0x97f6	; 0x97f6 <__muluhisi3>
    6572:	03 ad       	ldd	r16, Z+59	; 0x3b
    6574:	14 ad       	ldd	r17, Z+60	; 0x3c
    6576:	25 ad       	ldd	r18, Z+61	; 0x3d
    6578:	36 ad       	ldd	r19, Z+62	; 0x3e
    657a:	dc 01       	movw	r26, r24
    657c:	cb 01       	movw	r24, r22
    657e:	80 0f       	add	r24, r16
    6580:	91 1f       	adc	r25, r17
    6582:	a2 1f       	adc	r26, r18
    6584:	b3 1f       	adc	r27, r19
    6586:	f3 01       	movw	r30, r6
    6588:	80 83       	st	Z, r24
    658a:	91 83       	std	Z+1, r25	; 0x01
    658c:	a2 83       	std	Z+2, r26	; 0x02
    658e:	b3 83       	std	Z+3, r27	; 0x03
    6590:	f4 01       	movw	r30, r8
    6592:	83 a9       	ldd	r24, Z+51	; 0x33
    6594:	94 a9       	ldd	r25, Z+52	; 0x34
    6596:	a5 a9       	ldd	r26, Z+53	; 0x35
    6598:	b6 a9       	ldd	r27, Z+54	; 0x36
    659a:	b7 01       	movw	r22, r14
    659c:	a6 01       	movw	r20, r12
    659e:	68 94       	set
    65a0:	16 f8       	bld	r1, 6
    65a2:	76 95       	lsr	r23
    65a4:	67 95       	ror	r22
    65a6:	57 95       	ror	r21
    65a8:	47 95       	ror	r20
    65aa:	16 94       	lsr	r1
    65ac:	d1 f7       	brne	.-12     	; 0x65a2 <find_volume+0x42e>
    65ae:	48 0f       	add	r20, r24
    65b0:	59 1f       	adc	r21, r25
    65b2:	6a 1f       	adc	r22, r26
    65b4:	7b 1f       	adc	r23, r27
    65b6:	c4 01       	movw	r24, r8
    65b8:	0e 94 8f 22 	call	0x451e	; 0x451e <move_window>
    65bc:	81 11       	cpse	r24, r1
    65be:	44 c2       	rjmp	.+1160   	; 0x6a48 <find_volume+0x8d4>
    65c0:	c6 01       	movw	r24, r12
    65c2:	8f 77       	andi	r24, 0x7F	; 127
    65c4:	99 27       	eor	r25, r25
    65c6:	88 0f       	add	r24, r24
    65c8:	99 1f       	adc	r25, r25
    65ca:	88 0f       	add	r24, r24
    65cc:	99 1f       	adc	r25, r25
    65ce:	8a 0d       	add	r24, r10
    65d0:	9b 1d       	adc	r25, r11
    65d2:	0e 94 7d 20 	call	0x40fa	; 0x40fa <ld_dword>
    65d6:	6f 3f       	cpi	r22, 0xFF	; 255
    65d8:	ff ef       	ldi	r31, 0xFF	; 255
    65da:	7f 07       	cpc	r23, r31
    65dc:	8f 07       	cpc	r24, r31
    65de:	9f 07       	cpc	r25, r31
    65e0:	71 f0       	breq	.+28     	; 0x65fe <find_volume+0x48a>
    65e2:	2f ef       	ldi	r18, 0xFF	; 255
    65e4:	c2 1a       	sub	r12, r18
    65e6:	d2 0a       	sbc	r13, r18
    65e8:	e2 0a       	sbc	r14, r18
    65ea:	f2 0a       	sbc	r15, r18
    65ec:	6c 15       	cp	r22, r12
    65ee:	7d 05       	cpc	r23, r13
    65f0:	8e 05       	cpc	r24, r14
    65f2:	9f 05       	cpc	r25, r15
    65f4:	09 f0       	breq	.+2      	; 0x65f8 <find_volume+0x484>
    65f6:	2a c2       	rjmp	.+1108   	; 0x6a4c <find_volume+0x8d8>
    65f8:	6b 01       	movw	r12, r22
    65fa:	7c 01       	movw	r14, r24
    65fc:	c9 cf       	rjmp	.-110    	; 0x6590 <find_volume+0x41c>
    65fe:	8f ef       	ldi	r24, 0xFF	; 255
    6600:	9f ef       	ldi	r25, 0xFF	; 255
    6602:	dc 01       	movw	r26, r24
    6604:	f4 01       	movw	r30, r8
    6606:	83 8b       	std	Z+19, r24	; 0x13
    6608:	94 8b       	std	Z+20, r25	; 0x14
    660a:	a5 8b       	std	Z+21, r26	; 0x15
    660c:	b6 8b       	std	Z+22, r27	; 0x16
    660e:	87 87       	std	Z+15, r24	; 0x0f
    6610:	90 8b       	std	Z+16, r25	; 0x10
    6612:	a1 8b       	std	Z+17, r26	; 0x11
    6614:	b2 8b       	std	Z+18, r27	; 0x12
    6616:	14 e0       	ldi	r17, 0x04	; 4
    6618:	cf c1       	rjmp	.+926    	; 0x69b8 <find_volume+0x844>
    661a:	f4 01       	movw	r30, r8
    661c:	ed 5a       	subi	r30, 0xAD	; 173
    661e:	ff 4f       	sbci	r31, 0xFF	; 255
    6620:	80 81       	ld	r24, Z
    6622:	90 e0       	ldi	r25, 0x00	; 0
    6624:	98 2f       	mov	r25, r24
    6626:	88 27       	eor	r24, r24
    6628:	31 97       	sbiw	r30, 0x01	; 1
    662a:	20 81       	ld	r18, Z
    662c:	82 2b       	or	r24, r18
    662e:	81 15       	cp	r24, r1
    6630:	92 40       	sbci	r25, 0x02	; 2
    6632:	09 f0       	breq	.+2      	; 0x6636 <find_volume+0x4c2>
    6634:	0d c2       	rjmp	.+1050   	; 0x6a50 <find_volume+0x8dc>
    6636:	f4 01       	movw	r30, r8
    6638:	e2 5a       	subi	r30, 0xA2	; 162
    663a:	ff 4f       	sbci	r31, 0xFF	; 255
    663c:	80 81       	ld	r24, Z
    663e:	90 e0       	ldi	r25, 0x00	; 0
    6640:	38 2f       	mov	r19, r24
    6642:	22 27       	eor	r18, r18
    6644:	31 97       	sbiw	r30, 0x01	; 1
    6646:	80 81       	ld	r24, Z
    6648:	a9 01       	movw	r20, r18
    664a:	48 2b       	or	r20, r24
    664c:	ca 01       	movw	r24, r20
    664e:	9c 01       	movw	r18, r24
    6650:	40 e0       	ldi	r20, 0x00	; 0
    6652:	50 e0       	ldi	r21, 0x00	; 0
    6654:	29 8b       	std	Y+17, r18	; 0x11
    6656:	3a 8b       	std	Y+18, r19	; 0x12
    6658:	4b 8b       	std	Y+19, r20	; 0x13
    665a:	5c 8b       	std	Y+20, r21	; 0x14
    665c:	23 2b       	or	r18, r19
    665e:	24 2b       	or	r18, r20
    6660:	25 2b       	or	r18, r21
    6662:	49 f4       	brne	.+18     	; 0x6676 <find_volume+0x502>
    6664:	c4 01       	movw	r24, r8
    6666:	85 59       	subi	r24, 0x95	; 149
    6668:	9f 4f       	sbci	r25, 0xFF	; 255
    666a:	0e 94 7d 20 	call	0x40fa	; 0x40fa <ld_dword>
    666e:	69 8b       	std	Y+17, r22	; 0x11
    6670:	7a 8b       	std	Y+18, r23	; 0x12
    6672:	8b 8b       	std	Y+19, r24	; 0x13
    6674:	9c 8b       	std	Y+20, r25	; 0x14
    6676:	49 89       	ldd	r20, Y+17	; 0x11
    6678:	5a 89       	ldd	r21, Y+18	; 0x12
    667a:	6b 89       	ldd	r22, Y+19	; 0x13
    667c:	7c 89       	ldd	r23, Y+20	; 0x14
    667e:	d4 01       	movw	r26, r8
    6680:	9b 96       	adiw	r26, 0x2b	; 43
    6682:	4d 93       	st	X+, r20
    6684:	5d 93       	st	X+, r21
    6686:	6d 93       	st	X+, r22
    6688:	7c 93       	st	X, r23
    668a:	9e 97       	sbiw	r26, 0x2e	; 46
    668c:	f4 01       	movw	r30, r8
    668e:	e9 5a       	subi	r30, 0xA9	; 169
    6690:	ff 4f       	sbci	r31, 0xFF	; 255
    6692:	00 81       	ld	r16, Z
    6694:	f4 01       	movw	r30, r8
    6696:	02 83       	std	Z+2, r16	; 0x02
    6698:	8f ef       	ldi	r24, 0xFF	; 255
    669a:	80 0f       	add	r24, r16
    669c:	82 30       	cpi	r24, 0x02	; 2
    669e:	08 f0       	brcs	.+2      	; 0x66a2 <find_volume+0x52e>
    66a0:	d9 c1       	rjmp	.+946    	; 0x6a54 <find_volume+0x8e0>
    66a2:	ec 5a       	subi	r30, 0xAC	; 172
    66a4:	ff 4f       	sbci	r31, 0xFF	; 255
    66a6:	10 81       	ld	r17, Z
    66a8:	81 2f       	mov	r24, r17
    66aa:	90 e0       	ldi	r25, 0x00	; 0
    66ac:	1a 96       	adiw	r26, 0x0a	; 10
    66ae:	9c 93       	st	X, r25
    66b0:	8e 93       	st	-X, r24
    66b2:	19 97       	sbiw	r26, 0x09	; 9
    66b4:	00 97       	sbiw	r24, 0x00	; 0
    66b6:	09 f4       	brne	.+2      	; 0x66ba <find_volume+0x546>
    66b8:	cf c1       	rjmp	.+926    	; 0x6a58 <find_volume+0x8e4>
    66ba:	9c 01       	movw	r18, r24
    66bc:	21 50       	subi	r18, 0x01	; 1
    66be:	31 09       	sbc	r19, r1
    66c0:	82 23       	and	r24, r18
    66c2:	93 23       	and	r25, r19
    66c4:	89 2b       	or	r24, r25
    66c6:	09 f0       	breq	.+2      	; 0x66ca <find_volume+0x556>
    66c8:	c9 c1       	rjmp	.+914    	; 0x6a5c <find_volume+0x8e8>
    66ca:	35 96       	adiw	r30, 0x05	; 5
    66cc:	a0 80       	ld	r10, Z
    66ce:	b1 2c       	mov	r11, r1
    66d0:	ba 2c       	mov	r11, r10
    66d2:	aa 24       	eor	r10, r10
    66d4:	31 97       	sbiw	r30, 0x01	; 1
    66d6:	80 81       	ld	r24, Z
    66d8:	a8 2a       	or	r10, r24
    66da:	f4 01       	movw	r30, r8
    66dc:	b0 86       	std	Z+8, r11	; 0x08
    66de:	a7 82       	std	Z+7, r10	; 0x07
    66e0:	c5 01       	movw	r24, r10
    66e2:	8f 70       	andi	r24, 0x0F	; 15
    66e4:	99 27       	eor	r25, r25
    66e6:	89 2b       	or	r24, r25
    66e8:	09 f0       	breq	.+2      	; 0x66ec <find_volume+0x578>
    66ea:	ba c1       	rjmp	.+884    	; 0x6a60 <find_volume+0x8ec>
    66ec:	e5 5a       	subi	r30, 0xA5	; 165
    66ee:	ff 4f       	sbci	r31, 0xFF	; 255
    66f0:	c0 80       	ld	r12, Z
    66f2:	d1 2c       	mov	r13, r1
    66f4:	dc 2c       	mov	r13, r12
    66f6:	cc 24       	eor	r12, r12
    66f8:	31 97       	sbiw	r30, 0x01	; 1
    66fa:	80 81       	ld	r24, Z
    66fc:	c8 2a       	or	r12, r24
    66fe:	e1 2c       	mov	r14, r1
    6700:	f1 2c       	mov	r15, r1
    6702:	c1 14       	cp	r12, r1
    6704:	d1 04       	cpc	r13, r1
    6706:	e1 04       	cpc	r14, r1
    6708:	f1 04       	cpc	r15, r1
    670a:	39 f4       	brne	.+14     	; 0x671a <find_volume+0x5a6>
    670c:	c4 01       	movw	r24, r8
    670e:	89 59       	subi	r24, 0x99	; 153
    6710:	9f 4f       	sbci	r25, 0xFF	; 255
    6712:	0e 94 7d 20 	call	0x40fa	; 0x40fa <ld_dword>
    6716:	6b 01       	movw	r12, r22
    6718:	7c 01       	movw	r14, r24
    671a:	f4 01       	movw	r30, r8
    671c:	ea 5a       	subi	r30, 0xAA	; 170
    671e:	ff 4f       	sbci	r31, 0xFF	; 255
    6720:	e0 81       	ld	r30, Z
    6722:	f0 e0       	ldi	r31, 0x00	; 0
    6724:	fe 2f       	mov	r31, r30
    6726:	ee 27       	eor	r30, r30
    6728:	d4 01       	movw	r26, r8
    672a:	ab 5a       	subi	r26, 0xAB	; 171
    672c:	bf 4f       	sbci	r27, 0xFF	; 255
    672e:	8c 91       	ld	r24, X
    6730:	e8 2b       	or	r30, r24
    6732:	30 97       	sbiw	r30, 0x00	; 0
    6734:	09 f4       	brne	.+2      	; 0x6738 <find_volume+0x5c4>
    6736:	96 c1       	rjmp	.+812    	; 0x6a64 <find_volume+0x8f0>
    6738:	a0 2f       	mov	r26, r16
    673a:	b0 e0       	ldi	r27, 0x00	; 0
    673c:	29 89       	ldd	r18, Y+17	; 0x11
    673e:	3a 89       	ldd	r19, Y+18	; 0x12
    6740:	4b 89       	ldd	r20, Y+19	; 0x13
    6742:	5c 89       	ldd	r21, Y+20	; 0x14
    6744:	0e 94 fb 4b 	call	0x97f6	; 0x97f6 <__muluhisi3>
    6748:	69 a3       	std	Y+33, r22	; 0x21
    674a:	7a a3       	std	Y+34, r23	; 0x22
    674c:	8b a3       	std	Y+35, r24	; 0x23
    674e:	9c a3       	std	Y+36, r25	; 0x24
    6750:	9f 01       	movw	r18, r30
    6752:	40 e0       	ldi	r20, 0x00	; 0
    6754:	50 e0       	ldi	r21, 0x00	; 0
    6756:	2d 8f       	std	Y+29, r18	; 0x1d
    6758:	3e 8f       	std	Y+30, r19	; 0x1e
    675a:	4f 8f       	std	Y+31, r20	; 0x1f
    675c:	58 a3       	std	Y+32, r21	; 0x20
    675e:	c5 01       	movw	r24, r10
    6760:	92 95       	swap	r25
    6762:	82 95       	swap	r24
    6764:	8f 70       	andi	r24, 0x0F	; 15
    6766:	89 27       	eor	r24, r25
    6768:	9f 70       	andi	r25, 0x0F	; 15
    676a:	89 27       	eor	r24, r25
    676c:	28 0f       	add	r18, r24
    676e:	39 1f       	adc	r19, r25
    6770:	41 1d       	adc	r20, r1
    6772:	51 1d       	adc	r21, r1
    6774:	da 01       	movw	r26, r20
    6776:	c9 01       	movw	r24, r18
    6778:	49 a1       	ldd	r20, Y+33	; 0x21
    677a:	5a a1       	ldd	r21, Y+34	; 0x22
    677c:	6b a1       	ldd	r22, Y+35	; 0x23
    677e:	7c a1       	ldd	r23, Y+36	; 0x24
    6780:	48 0f       	add	r20, r24
    6782:	59 1f       	adc	r21, r25
    6784:	6a 1f       	adc	r22, r26
    6786:	7b 1f       	adc	r23, r27
    6788:	49 8f       	std	Y+25, r20	; 0x19
    678a:	5a 8f       	std	Y+26, r21	; 0x1a
    678c:	6b 8f       	std	Y+27, r22	; 0x1b
    678e:	7c 8f       	std	Y+28, r23	; 0x1c
    6790:	c4 16       	cp	r12, r20
    6792:	d5 06       	cpc	r13, r21
    6794:	e6 06       	cpc	r14, r22
    6796:	f7 06       	cpc	r15, r23
    6798:	08 f4       	brcc	.+2      	; 0x679c <find_volume+0x628>
    679a:	66 c1       	rjmp	.+716    	; 0x6a68 <find_volume+0x8f4>
    679c:	c7 01       	movw	r24, r14
    679e:	b6 01       	movw	r22, r12
    67a0:	29 8d       	ldd	r18, Y+25	; 0x19
    67a2:	3a 8d       	ldd	r19, Y+26	; 0x1a
    67a4:	4b 8d       	ldd	r20, Y+27	; 0x1b
    67a6:	5c 8d       	ldd	r21, Y+28	; 0x1c
    67a8:	62 1b       	sub	r22, r18
    67aa:	73 0b       	sbc	r23, r19
    67ac:	84 0b       	sbc	r24, r20
    67ae:	95 0b       	sbc	r25, r21
    67b0:	21 2f       	mov	r18, r17
    67b2:	30 e0       	ldi	r19, 0x00	; 0
    67b4:	40 e0       	ldi	r20, 0x00	; 0
    67b6:	50 e0       	ldi	r21, 0x00	; 0
    67b8:	0e 94 c2 4b 	call	0x9784	; 0x9784 <__udivmodsi4>
    67bc:	da 01       	movw	r26, r20
    67be:	c9 01       	movw	r24, r18
    67c0:	21 15       	cp	r18, r1
    67c2:	31 05       	cpc	r19, r1
    67c4:	41 05       	cpc	r20, r1
    67c6:	51 05       	cpc	r21, r1
    67c8:	09 f4       	brne	.+2      	; 0x67cc <find_volume+0x658>
    67ca:	50 c1       	rjmp	.+672    	; 0x6a6c <find_volume+0x8f8>
    67cc:	26 3f       	cpi	r18, 0xF6	; 246
    67ce:	6f ef       	ldi	r22, 0xFF	; 255
    67d0:	36 07       	cpc	r19, r22
    67d2:	46 07       	cpc	r20, r22
    67d4:	6f e0       	ldi	r22, 0x0F	; 15
    67d6:	56 07       	cpc	r21, r22
    67d8:	10 f4       	brcc	.+4      	; 0x67de <find_volume+0x66a>
    67da:	13 e0       	ldi	r17, 0x03	; 3
    67dc:	01 c0       	rjmp	.+2      	; 0x67e0 <find_volume+0x66c>
    67de:	10 e0       	ldi	r17, 0x00	; 0
    67e0:	86 3f       	cpi	r24, 0xF6	; 246
    67e2:	7f ef       	ldi	r23, 0xFF	; 255
    67e4:	97 07       	cpc	r25, r23
    67e6:	a1 05       	cpc	r26, r1
    67e8:	b1 05       	cpc	r27, r1
    67ea:	08 f4       	brcc	.+2      	; 0x67ee <find_volume+0x67a>
    67ec:	12 e0       	ldi	r17, 0x02	; 2
    67ee:	86 3f       	cpi	r24, 0xF6	; 246
    67f0:	9f 40       	sbci	r25, 0x0F	; 15
    67f2:	a1 05       	cpc	r26, r1
    67f4:	b1 05       	cpc	r27, r1
    67f6:	08 f4       	brcc	.+2      	; 0x67fa <find_volume+0x686>
    67f8:	bb c1       	rjmp	.+886    	; 0x6b70 <find_volume+0x9fc>
    67fa:	11 23       	and	r17, r17
    67fc:	09 f4       	brne	.+2      	; 0x6800 <find_volume+0x68c>
    67fe:	38 c1       	rjmp	.+624    	; 0x6a70 <find_volume+0x8fc>
    6800:	69 01       	movw	r12, r18
    6802:	7a 01       	movw	r14, r20
    6804:	f2 e0       	ldi	r31, 0x02	; 2
    6806:	cf 0e       	add	r12, r31
    6808:	d1 1c       	adc	r13, r1
    680a:	e1 1c       	adc	r14, r1
    680c:	f1 1c       	adc	r15, r1
    680e:	d4 01       	movw	r26, r8
    6810:	97 96       	adiw	r26, 0x27	; 39
    6812:	cd 92       	st	X+, r12
    6814:	dd 92       	st	X+, r13
    6816:	ed 92       	st	X+, r14
    6818:	fc 92       	st	X, r15
    681a:	9a 97       	sbiw	r26, 0x2a	; 42
    681c:	f4 01       	movw	r30, r8
    681e:	47 a6       	std	Z+47, r4	; 0x2f
    6820:	50 aa       	std	Z+48, r5	; 0x30
    6822:	61 aa       	std	Z+49, r6	; 0x31
    6824:	72 aa       	std	Z+50, r7	; 0x32
    6826:	8d 8d       	ldd	r24, Y+29	; 0x1d
    6828:	9e 8d       	ldd	r25, Y+30	; 0x1e
    682a:	af 8d       	ldd	r26, Y+31	; 0x1f
    682c:	b8 a1       	ldd	r27, Y+32	; 0x20
    682e:	84 0d       	add	r24, r4
    6830:	95 1d       	adc	r25, r5
    6832:	a6 1d       	adc	r26, r6
    6834:	b7 1d       	adc	r27, r7
    6836:	83 ab       	std	Z+51, r24	; 0x33
    6838:	94 ab       	std	Z+52, r25	; 0x34
    683a:	a5 ab       	std	Z+53, r26	; 0x35
    683c:	b6 ab       	std	Z+54, r27	; 0x36
    683e:	49 8d       	ldd	r20, Y+25	; 0x19
    6840:	5a 8d       	ldd	r21, Y+26	; 0x1a
    6842:	6b 8d       	ldd	r22, Y+27	; 0x1b
    6844:	7c 8d       	ldd	r23, Y+28	; 0x1c
    6846:	44 0d       	add	r20, r4
    6848:	55 1d       	adc	r21, r5
    684a:	66 1d       	adc	r22, r6
    684c:	77 1d       	adc	r23, r7
    684e:	43 af       	std	Z+59, r20	; 0x3b
    6850:	54 af       	std	Z+60, r21	; 0x3c
    6852:	65 af       	std	Z+61, r22	; 0x3d
    6854:	76 af       	std	Z+62, r23	; 0x3e
    6856:	13 30       	cpi	r17, 0x03	; 3
    6858:	e9 f5       	brne	.+122    	; 0x68d4 <find_volume+0x760>
    685a:	ee 58       	subi	r30, 0x8E	; 142
    685c:	ff 4f       	sbci	r31, 0xFF	; 255
    685e:	80 81       	ld	r24, Z
    6860:	90 e0       	ldi	r25, 0x00	; 0
    6862:	98 2f       	mov	r25, r24
    6864:	88 27       	eor	r24, r24
    6866:	31 97       	sbiw	r30, 0x01	; 1
    6868:	20 81       	ld	r18, Z
    686a:	82 2b       	or	r24, r18
    686c:	89 2b       	or	r24, r25
    686e:	09 f0       	breq	.+2      	; 0x6872 <find_volume+0x6fe>
    6870:	01 c1       	rjmp	.+514    	; 0x6a74 <find_volume+0x900>
    6872:	ab 28       	or	r10, r11
    6874:	09 f0       	breq	.+2      	; 0x6878 <find_volume+0x704>
    6876:	00 c1       	rjmp	.+512    	; 0x6a78 <find_volume+0x904>
    6878:	c4 01       	movw	r24, r8
    687a:	8d 58       	subi	r24, 0x8D	; 141
    687c:	9f 4f       	sbci	r25, 0xFF	; 255
    687e:	0e 94 7d 20 	call	0x40fa	; 0x40fa <ld_dword>
    6882:	d4 01       	movw	r26, r8
    6884:	d7 96       	adiw	r26, 0x37	; 55
    6886:	6d 93       	st	X+, r22
    6888:	7d 93       	st	X+, r23
    688a:	8d 93       	st	X+, r24
    688c:	9c 93       	st	X, r25
    688e:	da 97       	sbiw	r26, 0x3a	; 58
    6890:	cc 0c       	add	r12, r12
    6892:	dd 1c       	adc	r13, r13
    6894:	ee 1c       	adc	r14, r14
    6896:	ff 1c       	adc	r15, r15
    6898:	cc 0c       	add	r12, r12
    689a:	dd 1c       	adc	r13, r13
    689c:	ee 1c       	adc	r14, r14
    689e:	ff 1c       	adc	r15, r15
    68a0:	bf ef       	ldi	r27, 0xFF	; 255
    68a2:	cb 0e       	add	r12, r27
    68a4:	b1 e0       	ldi	r27, 0x01	; 1
    68a6:	db 1e       	adc	r13, r27
    68a8:	e1 1c       	adc	r14, r1
    68aa:	f1 1c       	adc	r15, r1
    68ac:	0b 2e       	mov	r0, r27
    68ae:	b9 e0       	ldi	r27, 0x09	; 9
    68b0:	f6 94       	lsr	r15
    68b2:	e7 94       	ror	r14
    68b4:	d7 94       	ror	r13
    68b6:	c7 94       	ror	r12
    68b8:	ba 95       	dec	r27
    68ba:	d1 f7       	brne	.-12     	; 0x68b0 <find_volume+0x73c>
    68bc:	b0 2d       	mov	r27, r0
    68be:	29 89       	ldd	r18, Y+17	; 0x11
    68c0:	3a 89       	ldd	r19, Y+18	; 0x12
    68c2:	4b 89       	ldd	r20, Y+19	; 0x13
    68c4:	5c 89       	ldd	r21, Y+20	; 0x14
    68c6:	2c 15       	cp	r18, r12
    68c8:	3d 05       	cpc	r19, r13
    68ca:	4e 05       	cpc	r20, r14
    68cc:	5f 05       	cpc	r21, r15
    68ce:	08 f4       	brcc	.+2      	; 0x68d2 <find_volume+0x75e>
    68d0:	d5 c0       	rjmp	.+426    	; 0x6a7c <find_volume+0x908>
    68d2:	33 c1       	rjmp	.+614    	; 0x6b3a <find_volume+0x9c6>
    68d4:	ab 28       	or	r10, r11
    68d6:	09 f4       	brne	.+2      	; 0x68da <find_volume+0x766>
    68d8:	d3 c0       	rjmp	.+422    	; 0x6a80 <find_volume+0x90c>
    68da:	49 a1       	ldd	r20, Y+33	; 0x21
    68dc:	5a a1       	ldd	r21, Y+34	; 0x22
    68de:	6b a1       	ldd	r22, Y+35	; 0x23
    68e0:	7c a1       	ldd	r23, Y+36	; 0x24
    68e2:	84 0f       	add	r24, r20
    68e4:	95 1f       	adc	r25, r21
    68e6:	a6 1f       	adc	r26, r22
    68e8:	b7 1f       	adc	r27, r23
    68ea:	f4 01       	movw	r30, r8
    68ec:	87 ab       	std	Z+55, r24	; 0x37
    68ee:	90 af       	std	Z+56, r25	; 0x38
    68f0:	a1 af       	std	Z+57, r26	; 0x39
    68f2:	b2 af       	std	Z+58, r27	; 0x3a
    68f4:	12 30       	cpi	r17, 0x02	; 2
    68f6:	29 f4       	brne	.+10     	; 0x6902 <find_volume+0x78e>
    68f8:	cc 0c       	add	r12, r12
    68fa:	dd 1c       	adc	r13, r13
    68fc:	ee 1c       	adc	r14, r14
    68fe:	ff 1c       	adc	r15, r15
    6900:	02 c1       	rjmp	.+516    	; 0x6b06 <find_volume+0x992>
    6902:	a3 e0       	ldi	r26, 0x03	; 3
    6904:	b0 e0       	ldi	r27, 0x00	; 0
    6906:	a7 01       	movw	r20, r14
    6908:	96 01       	movw	r18, r12
    690a:	0e 94 fb 4b 	call	0x97f6	; 0x97f6 <__muluhisi3>
    690e:	dc 01       	movw	r26, r24
    6910:	cb 01       	movw	r24, r22
    6912:	b6 95       	lsr	r27
    6914:	a7 95       	ror	r26
    6916:	97 95       	ror	r25
    6918:	87 95       	ror	r24
    691a:	f1 e0       	ldi	r31, 0x01	; 1
    691c:	cf 22       	and	r12, r31
    691e:	dd 24       	eor	r13, r13
    6920:	ee 24       	eor	r14, r14
    6922:	ff 24       	eor	r15, r15
    6924:	c8 0e       	add	r12, r24
    6926:	d9 1e       	adc	r13, r25
    6928:	ea 1e       	adc	r14, r26
    692a:	fb 1e       	adc	r15, r27
    692c:	ec c0       	rjmp	.+472    	; 0x6b06 <find_volume+0x992>
    692e:	b3 01       	movw	r22, r6
    6930:	a2 01       	movw	r20, r4
    6932:	4f 5f       	subi	r20, 0xFF	; 255
    6934:	5f 4f       	sbci	r21, 0xFF	; 255
    6936:	6f 4f       	sbci	r22, 0xFF	; 255
    6938:	7f 4f       	sbci	r23, 0xFF	; 255
    693a:	c4 01       	movw	r24, r8
    693c:	0e 94 8f 22 	call	0x451e	; 0x451e <move_window>
    6940:	81 11       	cpse	r24, r1
    6942:	3a c0       	rjmp	.+116    	; 0x69b8 <find_volume+0x844>
    6944:	d4 01       	movw	r26, r8
    6946:	14 96       	adiw	r26, 0x04	; 4
    6948:	1c 92       	st	X, r1
    694a:	f4 01       	movw	r30, r8
    694c:	ea 5b       	subi	r30, 0xBA	; 186
    694e:	fd 4f       	sbci	r31, 0xFD	; 253
    6950:	80 81       	ld	r24, Z
    6952:	90 e0       	ldi	r25, 0x00	; 0
    6954:	98 2f       	mov	r25, r24
    6956:	88 27       	eor	r24, r24
    6958:	31 97       	sbiw	r30, 0x01	; 1
    695a:	20 81       	ld	r18, Z
    695c:	82 2b       	or	r24, r18
    695e:	85 35       	cpi	r24, 0x55	; 85
    6960:	9a 4a       	sbci	r25, 0xAA	; 170
    6962:	51 f5       	brne	.+84     	; 0x69b8 <find_volume+0x844>
    6964:	c4 01       	movw	r24, r8
    6966:	89 5b       	subi	r24, 0xB9	; 185
    6968:	9f 4f       	sbci	r25, 0xFF	; 255
    696a:	0e 94 7d 20 	call	0x40fa	; 0x40fa <ld_dword>
    696e:	62 35       	cpi	r22, 0x52	; 82
    6970:	72 45       	sbci	r23, 0x52	; 82
    6972:	81 46       	sbci	r24, 0x61	; 97
    6974:	91 44       	sbci	r25, 0x41	; 65
    6976:	01 f5       	brne	.+64     	; 0x69b8 <find_volume+0x844>
    6978:	c4 01       	movw	r24, r8
    697a:	85 5d       	subi	r24, 0xD5	; 213
    697c:	9d 4f       	sbci	r25, 0xFD	; 253
    697e:	0e 94 7d 20 	call	0x40fa	; 0x40fa <ld_dword>
    6982:	62 37       	cpi	r22, 0x72	; 114
    6984:	72 47       	sbci	r23, 0x72	; 114
    6986:	81 44       	sbci	r24, 0x41	; 65
    6988:	91 46       	sbci	r25, 0x61	; 97
    698a:	b1 f4       	brne	.+44     	; 0x69b8 <find_volume+0x844>
    698c:	c4 01       	movw	r24, r8
    698e:	81 5d       	subi	r24, 0xD1	; 209
    6990:	9d 4f       	sbci	r25, 0xFD	; 253
    6992:	0e 94 7d 20 	call	0x40fa	; 0x40fa <ld_dword>
    6996:	d4 01       	movw	r26, r8
    6998:	53 96       	adiw	r26, 0x13	; 19
    699a:	6d 93       	st	X+, r22
    699c:	7d 93       	st	X+, r23
    699e:	8d 93       	st	X+, r24
    69a0:	9c 93       	st	X, r25
    69a2:	56 97       	sbiw	r26, 0x16	; 22
    69a4:	c4 01       	movw	r24, r8
    69a6:	8d 5c       	subi	r24, 0xCD	; 205
    69a8:	9d 4f       	sbci	r25, 0xFD	; 253
    69aa:	0e 94 7d 20 	call	0x40fa	; 0x40fa <ld_dword>
    69ae:	f4 01       	movw	r30, r8
    69b0:	67 87       	std	Z+15, r22	; 0x0f
    69b2:	70 8b       	std	Z+16, r23	; 0x10
    69b4:	81 8b       	std	Z+17, r24	; 0x11
    69b6:	92 8b       	std	Z+18, r25	; 0x12
    69b8:	d4 01       	movw	r26, r8
    69ba:	1c 93       	st	X, r17
    69bc:	80 91 5d 05 	lds	r24, 0x055D	; 0x80055d <Fsid>
    69c0:	90 91 5e 05 	lds	r25, 0x055E	; 0x80055e <Fsid+0x1>
    69c4:	01 96       	adiw	r24, 0x01	; 1
    69c6:	90 93 5e 05 	sts	0x055E, r25	; 0x80055e <Fsid+0x1>
    69ca:	80 93 5d 05 	sts	0x055D, r24	; 0x80055d <Fsid>
    69ce:	16 96       	adiw	r26, 0x06	; 6
    69d0:	9c 93       	st	X, r25
    69d2:	8e 93       	st	-X, r24
    69d4:	15 97       	sbiw	r26, 0x05	; 5
    69d6:	8a ef       	ldi	r24, 0xFA	; 250
    69d8:	92 e0       	ldi	r25, 0x02	; 2
    69da:	1c 96       	adiw	r26, 0x0c	; 12
    69dc:	9c 93       	st	X, r25
    69de:	8e 93       	st	-X, r24
    69e0:	1b 97       	sbiw	r26, 0x0b	; 11
    69e2:	8c ef       	ldi	r24, 0xFC	; 252
    69e4:	93 e0       	ldi	r25, 0x03	; 3
    69e6:	1e 96       	adiw	r26, 0x0e	; 14
    69e8:	9c 93       	st	X, r25
    69ea:	8e 93       	st	-X, r24
    69ec:	1d 97       	sbiw	r26, 0x0d	; 13
    69ee:	f4 01       	movw	r30, r8
    69f0:	17 8a       	std	Z+23, r1	; 0x17
    69f2:	10 8e       	std	Z+24, r1	; 0x18
    69f4:	11 8e       	std	Z+25, r1	; 0x19
    69f6:	12 8e       	std	Z+26, r1	; 0x1a
    69f8:	80 e0       	ldi	r24, 0x00	; 0
    69fa:	e7 c0       	rjmp	.+462    	; 0x6bca <find_volume+0xa56>
    69fc:	8b e0       	ldi	r24, 0x0B	; 11
    69fe:	e5 c0       	rjmp	.+458    	; 0x6bca <find_volume+0xa56>
    6a00:	8c e0       	ldi	r24, 0x0C	; 12
    6a02:	e3 c0       	rjmp	.+454    	; 0x6bca <find_volume+0xa56>
    6a04:	80 e0       	ldi	r24, 0x00	; 0
    6a06:	e1 c0       	rjmp	.+450    	; 0x6bca <find_volume+0xa56>
    6a08:	80 e0       	ldi	r24, 0x00	; 0
    6a0a:	df c0       	rjmp	.+446    	; 0x6bca <find_volume+0xa56>
    6a0c:	83 e0       	ldi	r24, 0x03	; 3
    6a0e:	dd c0       	rjmp	.+442    	; 0x6bca <find_volume+0xa56>
    6a10:	8a e0       	ldi	r24, 0x0A	; 10
    6a12:	db c0       	rjmp	.+438    	; 0x6bca <find_volume+0xa56>
    6a14:	81 e0       	ldi	r24, 0x01	; 1
    6a16:	d9 c0       	rjmp	.+434    	; 0x6bca <find_volume+0xa56>
    6a18:	8d e0       	ldi	r24, 0x0D	; 13
    6a1a:	d7 c0       	rjmp	.+430    	; 0x6bca <find_volume+0xa56>
    6a1c:	8d e0       	ldi	r24, 0x0D	; 13
    6a1e:	d5 c0       	rjmp	.+426    	; 0x6bca <find_volume+0xa56>
    6a20:	8d e0       	ldi	r24, 0x0D	; 13
    6a22:	d3 c0       	rjmp	.+422    	; 0x6bca <find_volume+0xa56>
    6a24:	8d e0       	ldi	r24, 0x0D	; 13
    6a26:	d1 c0       	rjmp	.+418    	; 0x6bca <find_volume+0xa56>
    6a28:	8d e0       	ldi	r24, 0x0D	; 13
    6a2a:	cf c0       	rjmp	.+414    	; 0x6bca <find_volume+0xa56>
    6a2c:	8d e0       	ldi	r24, 0x0D	; 13
    6a2e:	cd c0       	rjmp	.+410    	; 0x6bca <find_volume+0xa56>
    6a30:	8d e0       	ldi	r24, 0x0D	; 13
    6a32:	cb c0       	rjmp	.+406    	; 0x6bca <find_volume+0xa56>
    6a34:	8d e0       	ldi	r24, 0x0D	; 13
    6a36:	c9 c0       	rjmp	.+402    	; 0x6bca <find_volume+0xa56>
    6a38:	8d e0       	ldi	r24, 0x0D	; 13
    6a3a:	c7 c0       	rjmp	.+398    	; 0x6bca <find_volume+0xa56>
    6a3c:	81 e0       	ldi	r24, 0x01	; 1
    6a3e:	c5 c0       	rjmp	.+394    	; 0x6bca <find_volume+0xa56>
    6a40:	8d e0       	ldi	r24, 0x0D	; 13
    6a42:	c3 c0       	rjmp	.+390    	; 0x6bca <find_volume+0xa56>
    6a44:	8d e0       	ldi	r24, 0x0D	; 13
    6a46:	c1 c0       	rjmp	.+386    	; 0x6bca <find_volume+0xa56>
    6a48:	81 e0       	ldi	r24, 0x01	; 1
    6a4a:	bf c0       	rjmp	.+382    	; 0x6bca <find_volume+0xa56>
    6a4c:	8d e0       	ldi	r24, 0x0D	; 13
    6a4e:	bd c0       	rjmp	.+378    	; 0x6bca <find_volume+0xa56>
    6a50:	8d e0       	ldi	r24, 0x0D	; 13
    6a52:	bb c0       	rjmp	.+374    	; 0x6bca <find_volume+0xa56>
    6a54:	8d e0       	ldi	r24, 0x0D	; 13
    6a56:	b9 c0       	rjmp	.+370    	; 0x6bca <find_volume+0xa56>
    6a58:	8d e0       	ldi	r24, 0x0D	; 13
    6a5a:	b7 c0       	rjmp	.+366    	; 0x6bca <find_volume+0xa56>
    6a5c:	8d e0       	ldi	r24, 0x0D	; 13
    6a5e:	b5 c0       	rjmp	.+362    	; 0x6bca <find_volume+0xa56>
    6a60:	8d e0       	ldi	r24, 0x0D	; 13
    6a62:	b3 c0       	rjmp	.+358    	; 0x6bca <find_volume+0xa56>
    6a64:	8d e0       	ldi	r24, 0x0D	; 13
    6a66:	b1 c0       	rjmp	.+354    	; 0x6bca <find_volume+0xa56>
    6a68:	8d e0       	ldi	r24, 0x0D	; 13
    6a6a:	af c0       	rjmp	.+350    	; 0x6bca <find_volume+0xa56>
    6a6c:	8d e0       	ldi	r24, 0x0D	; 13
    6a6e:	ad c0       	rjmp	.+346    	; 0x6bca <find_volume+0xa56>
    6a70:	8d e0       	ldi	r24, 0x0D	; 13
    6a72:	ab c0       	rjmp	.+342    	; 0x6bca <find_volume+0xa56>
    6a74:	8d e0       	ldi	r24, 0x0D	; 13
    6a76:	a9 c0       	rjmp	.+338    	; 0x6bca <find_volume+0xa56>
    6a78:	8d e0       	ldi	r24, 0x0D	; 13
    6a7a:	a7 c0       	rjmp	.+334    	; 0x6bca <find_volume+0xa56>
    6a7c:	8d e0       	ldi	r24, 0x0D	; 13
    6a7e:	a5 c0       	rjmp	.+330    	; 0x6bca <find_volume+0xa56>
    6a80:	8d e0       	ldi	r24, 0x0D	; 13
    6a82:	a3 c0       	rjmp	.+326    	; 0x6bca <find_volume+0xa56>
    6a84:	81 e0       	ldi	r24, 0x01	; 1
    6a86:	a1 c0       	rjmp	.+322    	; 0x6bca <find_volume+0xa56>
    6a88:	8d e0       	ldi	r24, 0x0D	; 13
    6a8a:	9f c0       	rjmp	.+318    	; 0x6bca <find_volume+0xa56>
    6a8c:	8d e0       	ldi	r24, 0x0D	; 13
    6a8e:	9d c0       	rjmp	.+314    	; 0x6bca <find_volume+0xa56>
    6a90:	40 e0       	ldi	r20, 0x00	; 0
    6a92:	50 e0       	ldi	r21, 0x00	; 0
    6a94:	ba 01       	movw	r22, r20
    6a96:	c4 01       	movw	r24, r8
    6a98:	13 db       	rcall	.-2522   	; 0x60c0 <check_fs>
    6a9a:	82 30       	cpi	r24, 0x02	; 2
    6a9c:	09 f0       	breq	.+2      	; 0x6aa0 <find_volume+0x92c>
    6a9e:	f5 cb       	rjmp	.-2070   	; 0x628a <find_volume+0x116>
    6aa0:	9e 01       	movw	r18, r28
    6aa2:	2f 5f       	subi	r18, 0xFF	; 255
    6aa4:	3f 4f       	sbci	r19, 0xFF	; 255
    6aa6:	79 01       	movw	r14, r18
    6aa8:	84 01       	movw	r16, r8
    6aaa:	03 5f       	subi	r16, 0xF3	; 243
    6aac:	1d 4f       	sbci	r17, 0xFD	; 253
    6aae:	54 01       	movw	r10, r8
    6ab0:	33 eb       	ldi	r19, 0xB3	; 179
    6ab2:	a3 1a       	sub	r10, r19
    6ab4:	3d ef       	ldi	r19, 0xFD	; 253
    6ab6:	b3 0a       	sbc	r11, r19
    6ab8:	67 01       	movw	r12, r14
    6aba:	41 2c       	mov	r4, r1
    6abc:	51 2c       	mov	r5, r1
    6abe:	61 2c       	mov	r6, r1
    6ac0:	71 2c       	mov	r7, r1
    6ac2:	ad cb       	rjmp	.-2214   	; 0x621e <find_volume+0xaa>
    6ac4:	84 30       	cpi	r24, 0x04	; 4
    6ac6:	09 f0       	breq	.+2      	; 0x6aca <find_volume+0x956>
    6ac8:	e9 cb       	rjmp	.-2094   	; 0x629c <find_volume+0x128>
    6aca:	dc cf       	rjmp	.-72     	; 0x6a84 <find_volume+0x910>
    6acc:	f4 01       	movw	r30, r8
    6ace:	e0 55       	subi	r30, 0x50	; 80
    6ad0:	ff 4f       	sbci	r31, 0xFF	; 255
    6ad2:	80 81       	ld	r24, Z
    6ad4:	90 e0       	ldi	r25, 0x00	; 0
    6ad6:	98 2f       	mov	r25, r24
    6ad8:	88 27       	eor	r24, r24
    6ada:	31 97       	sbiw	r30, 0x01	; 1
    6adc:	20 81       	ld	r18, Z
    6ade:	82 2b       	or	r24, r18
    6ae0:	81 15       	cp	r24, r1
    6ae2:	91 40       	sbci	r25, 0x01	; 1
    6ae4:	89 f6       	brne	.-94     	; 0x6a88 <find_volume+0x914>
    6ae6:	f1 cb       	rjmp	.-2078   	; 0x62ca <find_volume+0x156>
    6ae8:	8f ef       	ldi	r24, 0xFF	; 255
    6aea:	9f ef       	ldi	r25, 0xFF	; 255
    6aec:	dc 01       	movw	r26, r24
    6aee:	f4 01       	movw	r30, r8
    6af0:	83 8b       	std	Z+19, r24	; 0x13
    6af2:	94 8b       	std	Z+20, r25	; 0x14
    6af4:	a5 8b       	std	Z+21, r26	; 0x15
    6af6:	b6 8b       	std	Z+22, r27	; 0x16
    6af8:	87 87       	std	Z+15, r24	; 0x0f
    6afa:	90 8b       	std	Z+16, r25	; 0x10
    6afc:	a1 8b       	std	Z+17, r26	; 0x11
    6afe:	b2 8b       	std	Z+18, r27	; 0x12
    6b00:	80 e8       	ldi	r24, 0x80	; 128
    6b02:	84 83       	std	Z+4, r24	; 0x04
    6b04:	59 cf       	rjmp	.-334    	; 0x69b8 <find_volume+0x844>
    6b06:	ff ef       	ldi	r31, 0xFF	; 255
    6b08:	cf 0e       	add	r12, r31
    6b0a:	f1 e0       	ldi	r31, 0x01	; 1
    6b0c:	df 1e       	adc	r13, r31
    6b0e:	e1 1c       	adc	r14, r1
    6b10:	f1 1c       	adc	r15, r1
    6b12:	0b 2e       	mov	r0, r27
    6b14:	b9 e0       	ldi	r27, 0x09	; 9
    6b16:	f6 94       	lsr	r15
    6b18:	e7 94       	ror	r14
    6b1a:	d7 94       	ror	r13
    6b1c:	c7 94       	ror	r12
    6b1e:	ba 95       	dec	r27
    6b20:	d1 f7       	brne	.-12     	; 0x6b16 <find_volume+0x9a2>
    6b22:	b0 2d       	mov	r27, r0
    6b24:	29 89       	ldd	r18, Y+17	; 0x11
    6b26:	3a 89       	ldd	r19, Y+18	; 0x12
    6b28:	4b 89       	ldd	r20, Y+19	; 0x13
    6b2a:	5c 89       	ldd	r21, Y+20	; 0x14
    6b2c:	2c 15       	cp	r18, r12
    6b2e:	3d 05       	cpc	r19, r13
    6b30:	4e 05       	cpc	r20, r14
    6b32:	5f 05       	cpc	r21, r15
    6b34:	08 f4       	brcc	.+2      	; 0x6b38 <find_volume+0x9c4>
    6b36:	aa cf       	rjmp	.-172    	; 0x6a8c <find_volume+0x918>
    6b38:	d7 cf       	rjmp	.-82     	; 0x6ae8 <find_volume+0x974>
    6b3a:	8f ef       	ldi	r24, 0xFF	; 255
    6b3c:	9f ef       	ldi	r25, 0xFF	; 255
    6b3e:	dc 01       	movw	r26, r24
    6b40:	f4 01       	movw	r30, r8
    6b42:	83 8b       	std	Z+19, r24	; 0x13
    6b44:	94 8b       	std	Z+20, r25	; 0x14
    6b46:	a5 8b       	std	Z+21, r26	; 0x15
    6b48:	b6 8b       	std	Z+22, r27	; 0x16
    6b4a:	87 87       	std	Z+15, r24	; 0x0f
    6b4c:	90 8b       	std	Z+16, r25	; 0x10
    6b4e:	a1 8b       	std	Z+17, r26	; 0x11
    6b50:	b2 8b       	std	Z+18, r27	; 0x12
    6b52:	80 e8       	ldi	r24, 0x80	; 128
    6b54:	84 83       	std	Z+4, r24	; 0x04
    6b56:	e8 58       	subi	r30, 0x88	; 136
    6b58:	ff 4f       	sbci	r31, 0xFF	; 255
    6b5a:	80 81       	ld	r24, Z
    6b5c:	90 e0       	ldi	r25, 0x00	; 0
    6b5e:	98 2f       	mov	r25, r24
    6b60:	88 27       	eor	r24, r24
    6b62:	31 97       	sbiw	r30, 0x01	; 1
    6b64:	20 81       	ld	r18, Z
    6b66:	82 2b       	or	r24, r18
    6b68:	01 97       	sbiw	r24, 0x01	; 1
    6b6a:	09 f0       	breq	.+2      	; 0x6b6e <find_volume+0x9fa>
    6b6c:	25 cf       	rjmp	.-438    	; 0x69b8 <find_volume+0x844>
    6b6e:	df ce       	rjmp	.-578    	; 0x692e <find_volume+0x7ba>
    6b70:	69 01       	movw	r12, r18
    6b72:	7a 01       	movw	r14, r20
    6b74:	f2 e0       	ldi	r31, 0x02	; 2
    6b76:	cf 0e       	add	r12, r31
    6b78:	d1 1c       	adc	r13, r1
    6b7a:	e1 1c       	adc	r14, r1
    6b7c:	f1 1c       	adc	r15, r1
    6b7e:	d4 01       	movw	r26, r8
    6b80:	97 96       	adiw	r26, 0x27	; 39
    6b82:	cd 92       	st	X+, r12
    6b84:	dd 92       	st	X+, r13
    6b86:	ed 92       	st	X+, r14
    6b88:	fc 92       	st	X, r15
    6b8a:	9a 97       	sbiw	r26, 0x2a	; 42
    6b8c:	f4 01       	movw	r30, r8
    6b8e:	47 a6       	std	Z+47, r4	; 0x2f
    6b90:	50 aa       	std	Z+48, r5	; 0x30
    6b92:	61 aa       	std	Z+49, r6	; 0x31
    6b94:	72 aa       	std	Z+50, r7	; 0x32
    6b96:	8d 8d       	ldd	r24, Y+29	; 0x1d
    6b98:	9e 8d       	ldd	r25, Y+30	; 0x1e
    6b9a:	af 8d       	ldd	r26, Y+31	; 0x1f
    6b9c:	b8 a1       	ldd	r27, Y+32	; 0x20
    6b9e:	84 0d       	add	r24, r4
    6ba0:	95 1d       	adc	r25, r5
    6ba2:	a6 1d       	adc	r26, r6
    6ba4:	b7 1d       	adc	r27, r7
    6ba6:	83 ab       	std	Z+51, r24	; 0x33
    6ba8:	94 ab       	std	Z+52, r25	; 0x34
    6baa:	a5 ab       	std	Z+53, r26	; 0x35
    6bac:	b6 ab       	std	Z+54, r27	; 0x36
    6bae:	49 8d       	ldd	r20, Y+25	; 0x19
    6bb0:	5a 8d       	ldd	r21, Y+26	; 0x1a
    6bb2:	6b 8d       	ldd	r22, Y+27	; 0x1b
    6bb4:	7c 8d       	ldd	r23, Y+28	; 0x1c
    6bb6:	44 0d       	add	r20, r4
    6bb8:	55 1d       	adc	r21, r5
    6bba:	66 1d       	adc	r22, r6
    6bbc:	77 1d       	adc	r23, r7
    6bbe:	43 af       	std	Z+59, r20	; 0x3b
    6bc0:	54 af       	std	Z+60, r21	; 0x3c
    6bc2:	65 af       	std	Z+61, r22	; 0x3d
    6bc4:	76 af       	std	Z+62, r23	; 0x3e
    6bc6:	11 e0       	ldi	r17, 0x01	; 1
    6bc8:	85 ce       	rjmp	.-758    	; 0x68d4 <find_volume+0x760>
    6bca:	a7 96       	adiw	r28, 0x27	; 39
    6bcc:	0f b6       	in	r0, 0x3f	; 63
    6bce:	f8 94       	cli
    6bd0:	de bf       	out	0x3e, r29	; 62
    6bd2:	0f be       	out	0x3f, r0	; 63
    6bd4:	cd bf       	out	0x3d, r28	; 61
    6bd6:	df 91       	pop	r29
    6bd8:	cf 91       	pop	r28
    6bda:	1f 91       	pop	r17
    6bdc:	0f 91       	pop	r16
    6bde:	ff 90       	pop	r15
    6be0:	ef 90       	pop	r14
    6be2:	df 90       	pop	r13
    6be4:	cf 90       	pop	r12
    6be6:	bf 90       	pop	r11
    6be8:	af 90       	pop	r10
    6bea:	9f 90       	pop	r9
    6bec:	8f 90       	pop	r8
    6bee:	7f 90       	pop	r7
    6bf0:	6f 90       	pop	r6
    6bf2:	5f 90       	pop	r5
    6bf4:	4f 90       	pop	r4
    6bf6:	3f 90       	pop	r3
    6bf8:	2f 90       	pop	r2
    6bfa:	08 95       	ret

00006bfc <dir_read>:
    6bfc:	2f 92       	push	r2
    6bfe:	3f 92       	push	r3
    6c00:	4f 92       	push	r4
    6c02:	5f 92       	push	r5
    6c04:	6f 92       	push	r6
    6c06:	7f 92       	push	r7
    6c08:	8f 92       	push	r8
    6c0a:	9f 92       	push	r9
    6c0c:	af 92       	push	r10
    6c0e:	bf 92       	push	r11
    6c10:	cf 92       	push	r12
    6c12:	df 92       	push	r13
    6c14:	ef 92       	push	r14
    6c16:	ff 92       	push	r15
    6c18:	0f 93       	push	r16
    6c1a:	1f 93       	push	r17
    6c1c:	cf 93       	push	r28
    6c1e:	df 93       	push	r29
    6c20:	00 d0       	rcall	.+0      	; 0x6c22 <dir_read+0x26>
    6c22:	00 d0       	rcall	.+0      	; 0x6c24 <dir_read+0x28>
    6c24:	cd b7       	in	r28, 0x3d	; 61
    6c26:	de b7       	in	r29, 0x3e	; 62
    6c28:	9a 83       	std	Y+2, r25	; 0x02
    6c2a:	89 83       	std	Y+1, r24	; 0x01
    6c2c:	4b 01       	movw	r8, r22
    6c2e:	dc 01       	movw	r26, r24
    6c30:	0d 91       	ld	r16, X+
    6c32:	1c 91       	ld	r17, X
    6c34:	66 24       	eor	r6, r6
    6c36:	6a 94       	dec	r6
    6c38:	77 24       	eor	r7, r7
    6c3a:	7a 94       	dec	r7
    6c3c:	68 94       	set
    6c3e:	bb 24       	eor	r11, r11
    6c40:	b2 f8       	bld	r11, 2
    6c42:	dd 24       	eor	r13, r13
    6c44:	da 94       	dec	r13
    6c46:	aa 24       	eor	r10, r10
    6c48:	a3 94       	inc	r10
    6c4a:	51 2c       	mov	r5, r1
    6c4c:	0f 2e       	mov	r0, r31
    6c4e:	fd e0       	ldi	r31, 0x0D	; 13
    6c50:	4f 2e       	mov	r4, r31
    6c52:	f0 2d       	mov	r31, r0
    6c54:	1c 01       	movw	r2, r24
    6c56:	b0 e4       	ldi	r27, 0x40	; 64
    6c58:	2b 0e       	add	r2, r27
    6c5a:	31 1c       	adc	r3, r1
    6c5c:	e1 2c       	mov	r14, r1
    6c5e:	f1 2c       	mov	r15, r1
    6c60:	8b 2d       	mov	r24, r11
    6c62:	e9 81       	ldd	r30, Y+1	; 0x01
    6c64:	fa 81       	ldd	r31, Y+2	; 0x02
    6c66:	fc 83       	std	Y+4, r31	; 0x04
    6c68:	eb 83       	std	Y+3, r30	; 0x03
    6c6a:	f6 c0       	rjmp	.+492    	; 0x6e58 <dir_read+0x25c>
    6c6c:	c8 01       	movw	r24, r16
    6c6e:	0e 94 8f 22 	call	0x451e	; 0x451e <move_window>
    6c72:	81 11       	cpse	r24, r1
    6c74:	05 c1       	rjmp	.+522    	; 0x6e80 <dir_read+0x284>
    6c76:	ab 81       	ldd	r26, Y+3	; 0x03
    6c78:	bc 81       	ldd	r27, Y+4	; 0x04
    6c7a:	d2 96       	adiw	r26, 0x32	; 50
    6c7c:	ed 91       	ld	r30, X+
    6c7e:	fc 91       	ld	r31, X
    6c80:	d3 97       	sbiw	r26, 0x33	; 51
    6c82:	60 81       	ld	r22, Z
    6c84:	66 23       	and	r22, r22
    6c86:	09 f4       	brne	.+2      	; 0x6c8a <dir_read+0x8e>
    6c88:	18 c1       	rjmp	.+560    	; 0x6eba <dir_read+0x2be>
    6c8a:	d8 01       	movw	r26, r16
    6c8c:	9c 91       	ld	r25, X
    6c8e:	94 30       	cpi	r25, 0x04	; 4
    6c90:	51 f5       	brne	.+84     	; 0x6ce6 <dir_read+0xea>
    6c92:	81 14       	cp	r8, r1
    6c94:	91 04       	cpc	r9, r1
    6c96:	29 f0       	breq	.+10     	; 0x6ca2 <dir_read+0xa6>
    6c98:	63 38       	cpi	r22, 0x83	; 131
    6c9a:	09 f0       	breq	.+2      	; 0x6c9e <dir_read+0xa2>
    6c9c:	d5 c0       	rjmp	.+426    	; 0x6e48 <dir_read+0x24c>
    6c9e:	b8 2e       	mov	r11, r24
    6ca0:	16 c1       	rjmp	.+556    	; 0x6ece <dir_read+0x2d2>
    6ca2:	65 38       	cpi	r22, 0x85	; 133
    6ca4:	09 f0       	breq	.+2      	; 0x6ca8 <dir_read+0xac>
    6ca6:	d0 c0       	rjmp	.+416    	; 0x6e48 <dir_read+0x24c>
    6ca8:	b8 2e       	mov	r11, r24
    6caa:	eb 81       	ldd	r30, Y+3	; 0x03
    6cac:	fc 81       	ldd	r31, Y+4	; 0x04
    6cae:	fa 83       	std	Y+2, r31	; 0x02
    6cb0:	e9 83       	std	Y+1, r30	; 0x01
    6cb2:	86 a1       	ldd	r24, Z+38	; 0x26
    6cb4:	97 a1       	ldd	r25, Z+39	; 0x27
    6cb6:	a0 a5       	ldd	r26, Z+40	; 0x28
    6cb8:	b1 a5       	ldd	r27, Z+41	; 0x29
    6cba:	e0 5c       	subi	r30, 0xC0	; 192
    6cbc:	ff 4f       	sbci	r31, 0xFF	; 255
    6cbe:	80 83       	st	Z, r24
    6cc0:	91 83       	std	Z+1, r25	; 0x01
    6cc2:	a2 83       	std	Z+2, r26	; 0x02
    6cc4:	b3 83       	std	Z+3, r27	; 0x03
    6cc6:	89 81       	ldd	r24, Y+1	; 0x01
    6cc8:	9a 81       	ldd	r25, Y+2	; 0x02
    6cca:	3b d8       	rcall	.-3978   	; 0x5d42 <load_xdir>
    6ccc:	81 11       	cpse	r24, r1
    6cce:	fd c0       	rjmp	.+506    	; 0x6eca <dir_read+0x2ce>
    6cd0:	d8 01       	movw	r26, r16
    6cd2:	1d 96       	adiw	r26, 0x0d	; 13
    6cd4:	ed 91       	ld	r30, X+
    6cd6:	fc 91       	ld	r31, X
    6cd8:	1e 97       	sbiw	r26, 0x0e	; 14
    6cda:	84 81       	ldd	r24, Z+4	; 0x04
    6cdc:	8f 73       	andi	r24, 0x3F	; 63
    6cde:	e9 81       	ldd	r30, Y+1	; 0x01
    6ce0:	fa 81       	ldd	r31, Y+2	; 0x02
    6ce2:	84 83       	std	Z+4, r24	; 0x04
    6ce4:	f4 c0       	rjmp	.+488    	; 0x6ece <dir_read+0x2d2>
    6ce6:	93 85       	ldd	r25, Z+11	; 0x0b
    6ce8:	9f 73       	andi	r25, 0x3F	; 63
    6cea:	ab 81       	ldd	r26, Y+3	; 0x03
    6cec:	bc 81       	ldd	r27, Y+4	; 0x04
    6cee:	14 96       	adiw	r26, 0x04	; 4
    6cf0:	9c 93       	st	X, r25
    6cf2:	65 3e       	cpi	r22, 0xE5	; 229
    6cf4:	09 f4       	brne	.+2      	; 0x6cf8 <dir_read+0xfc>
    6cf6:	9f c0       	rjmp	.+318    	; 0x6e36 <dir_read+0x23a>
    6cf8:	6e 32       	cpi	r22, 0x2E	; 46
    6cfa:	09 f4       	brne	.+2      	; 0x6cfe <dir_read+0x102>
    6cfc:	9e c0       	rjmp	.+316    	; 0x6e3a <dir_read+0x23e>
    6cfe:	2a 2d       	mov	r18, r10
    6d00:	35 2d       	mov	r19, r5
    6d02:	49 2f       	mov	r20, r25
    6d04:	4f 71       	andi	r20, 0x1F	; 31
    6d06:	48 30       	cpi	r20, 0x08	; 8
    6d08:	11 f0       	breq	.+4      	; 0x6d0e <dir_read+0x112>
    6d0a:	2e 2d       	mov	r18, r14
    6d0c:	3f 2d       	mov	r19, r15
    6d0e:	82 16       	cp	r8, r18
    6d10:	93 06       	cpc	r9, r19
    6d12:	09 f0       	breq	.+2      	; 0x6d16 <dir_read+0x11a>
    6d14:	94 c0       	rjmp	.+296    	; 0x6e3e <dir_read+0x242>
    6d16:	9f 30       	cpi	r25, 0x0F	; 15
    6d18:	09 f0       	breq	.+2      	; 0x6d1c <dir_read+0x120>
    6d1a:	74 c0       	rjmp	.+232    	; 0x6e04 <dir_read+0x208>
    6d1c:	66 ff       	sbrs	r22, 6
    6d1e:	11 c0       	rjmp	.+34     	; 0x6d42 <dir_read+0x146>
    6d20:	65 84       	ldd	r6, Z+13	; 0x0d
    6d22:	6f 7b       	andi	r22, 0xBF	; 191
    6d24:	ab 81       	ldd	r26, Y+3	; 0x03
    6d26:	bc 81       	ldd	r27, Y+4	; 0x04
    6d28:	96 96       	adiw	r26, 0x26	; 38
    6d2a:	2d 91       	ld	r18, X+
    6d2c:	3d 91       	ld	r19, X+
    6d2e:	4d 91       	ld	r20, X+
    6d30:	5c 91       	ld	r21, X
    6d32:	99 97       	sbiw	r26, 0x29	; 41
    6d34:	d1 01       	movw	r26, r2
    6d36:	2d 93       	st	X+, r18
    6d38:	3d 93       	st	X+, r19
    6d3a:	4d 93       	st	X+, r20
    6d3c:	5c 93       	st	X, r21
    6d3e:	13 97       	sbiw	r26, 0x03	; 3
    6d40:	02 c0       	rjmp	.+4      	; 0x6d46 <dir_read+0x14a>
    6d42:	76 12       	cpse	r7, r22
    6d44:	7e c0       	rjmp	.+252    	; 0x6e42 <dir_read+0x246>
    6d46:	b5 84       	ldd	r11, Z+13	; 0x0d
    6d48:	b6 10       	cpse	r11, r6
    6d4a:	7d c0       	rjmp	.+250    	; 0x6e46 <dir_read+0x24a>
    6d4c:	83 8d       	ldd	r24, Z+27	; 0x1b
    6d4e:	90 e0       	ldi	r25, 0x00	; 0
    6d50:	98 2f       	mov	r25, r24
    6d52:	88 27       	eor	r24, r24
    6d54:	22 8d       	ldd	r18, Z+26	; 0x1a
    6d56:	82 2b       	or	r24, r18
    6d58:	89 2b       	or	r24, r25
    6d5a:	09 f0       	breq	.+2      	; 0x6d5e <dir_read+0x162>
    6d5c:	ab c0       	rjmp	.+342    	; 0x6eb4 <dir_read+0x2b8>
    6d5e:	d8 01       	movw	r26, r16
    6d60:	1b 96       	adiw	r26, 0x0b	; 11
    6d62:	0d 90       	ld	r0, X+
    6d64:	bc 91       	ld	r27, X
    6d66:	a0 2d       	mov	r26, r0
    6d68:	ba 83       	std	Y+2, r27	; 0x02
    6d6a:	a9 83       	std	Y+1, r26	; 0x01
    6d6c:	80 81       	ld	r24, Z
    6d6e:	90 e0       	ldi	r25, 0x00	; 0
    6d70:	8f 7b       	andi	r24, 0xBF	; 191
    6d72:	01 97       	sbiw	r24, 0x01	; 1
    6d74:	48 9e       	mul	r4, r24
    6d76:	a0 01       	movw	r20, r0
    6d78:	49 9e       	mul	r4, r25
    6d7a:	50 0d       	add	r21, r0
    6d7c:	11 24       	eor	r1, r1
    6d7e:	a1 e6       	ldi	r26, 0x61	; 97
    6d80:	b2 e0       	ldi	r27, 0x02	; 2
    6d82:	6a 2c       	mov	r6, r10
    6d84:	75 2c       	mov	r7, r5
    6d86:	fe 83       	std	Y+6, r31	; 0x06
    6d88:	ed 83       	std	Y+5, r30	; 0x05
    6d8a:	c6 2e       	mov	r12, r22
    6d8c:	69 81       	ldd	r22, Y+1	; 0x01
    6d8e:	7a 81       	ldd	r23, Y+2	; 0x02
    6d90:	8d 91       	ld	r24, X+
    6d92:	2d 81       	ldd	r18, Y+5	; 0x05
    6d94:	3e 81       	ldd	r19, Y+6	; 0x06
    6d96:	28 0f       	add	r18, r24
    6d98:	31 1d       	adc	r19, r1
    6d9a:	f9 01       	movw	r30, r18
    6d9c:	81 81       	ldd	r24, Z+1	; 0x01
    6d9e:	90 e0       	ldi	r25, 0x00	; 0
    6da0:	98 2f       	mov	r25, r24
    6da2:	88 27       	eor	r24, r24
    6da4:	20 81       	ld	r18, Z
    6da6:	82 2b       	or	r24, r18
    6da8:	61 14       	cp	r6, r1
    6daa:	71 04       	cpc	r7, r1
    6dac:	81 f0       	breq	.+32     	; 0x6dce <dir_read+0x1d2>
    6dae:	40 38       	cpi	r20, 0x80	; 128
    6db0:	51 05       	cpc	r21, r1
    6db2:	08 f0       	brcs	.+2      	; 0x6db6 <dir_read+0x1ba>
    6db4:	7e c0       	rjmp	.+252    	; 0x6eb2 <dir_read+0x2b6>
    6db6:	9a 01       	movw	r18, r20
    6db8:	22 0f       	add	r18, r18
    6dba:	33 1f       	adc	r19, r19
    6dbc:	26 0f       	add	r18, r22
    6dbe:	37 1f       	adc	r19, r23
    6dc0:	f9 01       	movw	r30, r18
    6dc2:	91 83       	std	Z+1, r25	; 0x01
    6dc4:	80 83       	st	Z, r24
    6dc6:	3c 01       	movw	r6, r24
    6dc8:	4f 5f       	subi	r20, 0xFF	; 255
    6dca:	5f 4f       	sbci	r21, 0xFF	; 255
    6dcc:	03 c0       	rjmp	.+6      	; 0x6dd4 <dir_read+0x1d8>
    6dce:	01 96       	adiw	r24, 0x01	; 1
    6dd0:	09 f0       	breq	.+2      	; 0x6dd4 <dir_read+0x1d8>
    6dd2:	70 c0       	rjmp	.+224    	; 0x6eb4 <dir_read+0x2b8>
    6dd4:	2e e6       	ldi	r18, 0x6E	; 110
    6dd6:	32 e0       	ldi	r19, 0x02	; 2
    6dd8:	2a 17       	cp	r18, r26
    6dda:	3b 07       	cpc	r19, r27
    6ddc:	c9 f6       	brne	.-78     	; 0x6d90 <dir_read+0x194>
    6dde:	ed 81       	ldd	r30, Y+5	; 0x05
    6de0:	fe 81       	ldd	r31, Y+6	; 0x06
    6de2:	6c 2d       	mov	r22, r12
    6de4:	80 81       	ld	r24, Z
    6de6:	86 ff       	sbrs	r24, 6
    6de8:	5f c0       	rjmp	.+190    	; 0x6ea8 <dir_read+0x2ac>
    6dea:	40 38       	cpi	r20, 0x80	; 128
    6dec:	51 05       	cpc	r21, r1
    6dee:	08 f0       	brcs	.+2      	; 0x6df2 <dir_read+0x1f6>
    6df0:	61 c0       	rjmp	.+194    	; 0x6eb4 <dir_read+0x2b8>
    6df2:	44 0f       	add	r20, r20
    6df4:	55 1f       	adc	r21, r21
    6df6:	e9 81       	ldd	r30, Y+1	; 0x01
    6df8:	fa 81       	ldd	r31, Y+2	; 0x02
    6dfa:	e4 0f       	add	r30, r20
    6dfc:	f5 1f       	adc	r31, r21
    6dfe:	11 82       	std	Z+1, r1	; 0x01
    6e00:	10 82       	st	Z, r1
    6e02:	52 c0       	rjmp	.+164    	; 0x6ea8 <dir_read+0x2ac>
    6e04:	b8 2e       	mov	r11, r24
    6e06:	ab 81       	ldd	r26, Y+3	; 0x03
    6e08:	bc 81       	ldd	r27, Y+4	; 0x04
    6e0a:	ba 83       	std	Y+2, r27	; 0x02
    6e0c:	a9 83       	std	Y+1, r26	; 0x01
    6e0e:	71 10       	cpse	r7, r1
    6e10:	06 c0       	rjmp	.+12     	; 0x6e1e <dir_read+0x222>
    6e12:	cf 01       	movw	r24, r30
    6e14:	0e 94 3a 21 	call	0x4274	; 0x4274 <sum_sfn>
    6e18:	68 16       	cp	r6, r24
    6e1a:	09 f4       	brne	.+2      	; 0x6e1e <dir_read+0x222>
    6e1c:	58 c0       	rjmp	.+176    	; 0x6ece <dir_read+0x2d2>
    6e1e:	e9 81       	ldd	r30, Y+1	; 0x01
    6e20:	fa 81       	ldd	r31, Y+2	; 0x02
    6e22:	e0 5c       	subi	r30, 0xC0	; 192
    6e24:	ff 4f       	sbci	r31, 0xFF	; 255
    6e26:	8f ef       	ldi	r24, 0xFF	; 255
    6e28:	9f ef       	ldi	r25, 0xFF	; 255
    6e2a:	dc 01       	movw	r26, r24
    6e2c:	80 83       	st	Z, r24
    6e2e:	91 83       	std	Z+1, r25	; 0x01
    6e30:	a2 83       	std	Z+2, r26	; 0x02
    6e32:	b3 83       	std	Z+3, r27	; 0x03
    6e34:	4c c0       	rjmp	.+152    	; 0x6ece <dir_read+0x2d2>
    6e36:	7d 2c       	mov	r7, r13
    6e38:	07 c0       	rjmp	.+14     	; 0x6e48 <dir_read+0x24c>
    6e3a:	7d 2c       	mov	r7, r13
    6e3c:	05 c0       	rjmp	.+10     	; 0x6e48 <dir_read+0x24c>
    6e3e:	7d 2c       	mov	r7, r13
    6e40:	03 c0       	rjmp	.+6      	; 0x6e48 <dir_read+0x24c>
    6e42:	7d 2c       	mov	r7, r13
    6e44:	01 c0       	rjmp	.+2      	; 0x6e48 <dir_read+0x24c>
    6e46:	7d 2c       	mov	r7, r13
    6e48:	6e 2d       	mov	r22, r14
    6e4a:	7f 2d       	mov	r23, r15
    6e4c:	8b 81       	ldd	r24, Y+3	; 0x03
    6e4e:	9c 81       	ldd	r25, Y+4	; 0x04
    6e50:	0e 94 96 2d 	call	0x5b2c	; 0x5b2c <dir_next>
    6e54:	81 11       	cpse	r24, r1
    6e56:	1a c0       	rjmp	.+52     	; 0x6e8c <dir_read+0x290>
    6e58:	ab 81       	ldd	r26, Y+3	; 0x03
    6e5a:	bc 81       	ldd	r27, Y+4	; 0x04
    6e5c:	9e 96       	adiw	r26, 0x2e	; 46
    6e5e:	4d 91       	ld	r20, X+
    6e60:	5d 91       	ld	r21, X+
    6e62:	6d 91       	ld	r22, X+
    6e64:	7c 91       	ld	r23, X
    6e66:	d1 97       	sbiw	r26, 0x31	; 49
    6e68:	41 15       	cp	r20, r1
    6e6a:	51 05       	cpc	r21, r1
    6e6c:	61 05       	cpc	r22, r1
    6e6e:	71 05       	cpc	r23, r1
    6e70:	09 f0       	breq	.+2      	; 0x6e74 <dir_read+0x278>
    6e72:	fc ce       	rjmp	.-520    	; 0x6c6c <dir_read+0x70>
    6e74:	b8 2e       	mov	r11, r24
    6e76:	ba 83       	std	Y+2, r27	; 0x02
    6e78:	a9 83       	std	Y+1, r26	; 0x01
    6e7a:	88 23       	and	r24, r24
    6e7c:	41 f1       	breq	.+80     	; 0x6ece <dir_read+0x2d2>
    6e7e:	0b c0       	rjmp	.+22     	; 0x6e96 <dir_read+0x29a>
    6e80:	b8 2e       	mov	r11, r24
    6e82:	eb 81       	ldd	r30, Y+3	; 0x03
    6e84:	fc 81       	ldd	r31, Y+4	; 0x04
    6e86:	fa 83       	std	Y+2, r31	; 0x02
    6e88:	e9 83       	std	Y+1, r30	; 0x01
    6e8a:	05 c0       	rjmp	.+10     	; 0x6e96 <dir_read+0x29a>
    6e8c:	b8 2e       	mov	r11, r24
    6e8e:	2b 81       	ldd	r18, Y+3	; 0x03
    6e90:	3c 81       	ldd	r19, Y+4	; 0x04
    6e92:	3a 83       	std	Y+2, r19	; 0x02
    6e94:	29 83       	std	Y+1, r18	; 0x01
    6e96:	a9 81       	ldd	r26, Y+1	; 0x01
    6e98:	ba 81       	ldd	r27, Y+2	; 0x02
    6e9a:	9e 96       	adiw	r26, 0x2e	; 46
    6e9c:	1d 92       	st	X+, r1
    6e9e:	1d 92       	st	X+, r1
    6ea0:	1d 92       	st	X+, r1
    6ea2:	1c 92       	st	X, r1
    6ea4:	d1 97       	sbiw	r26, 0x31	; 49
    6ea6:	13 c0       	rjmp	.+38     	; 0x6ece <dir_read+0x2d2>
    6ea8:	77 24       	eor	r7, r7
    6eaa:	7a 94       	dec	r7
    6eac:	76 0e       	add	r7, r22
    6eae:	6b 2c       	mov	r6, r11
    6eb0:	cb cf       	rjmp	.-106    	; 0x6e48 <dir_read+0x24c>
    6eb2:	00 c0       	rjmp	.+0      	; 0x6eb4 <dir_read+0x2b8>
    6eb4:	6b 2c       	mov	r6, r11
    6eb6:	7d 2c       	mov	r7, r13
    6eb8:	c7 cf       	rjmp	.-114    	; 0x6e48 <dir_read+0x24c>
    6eba:	8b 81       	ldd	r24, Y+3	; 0x03
    6ebc:	9c 81       	ldd	r25, Y+4	; 0x04
    6ebe:	9a 83       	std	Y+2, r25	; 0x02
    6ec0:	89 83       	std	Y+1, r24	; 0x01
    6ec2:	68 94       	set
    6ec4:	bb 24       	eor	r11, r11
    6ec6:	b2 f8       	bld	r11, 2
    6ec8:	e6 cf       	rjmp	.-52     	; 0x6e96 <dir_read+0x29a>
    6eca:	b8 2e       	mov	r11, r24
    6ecc:	e4 cf       	rjmp	.-56     	; 0x6e96 <dir_read+0x29a>
    6ece:	8b 2d       	mov	r24, r11
    6ed0:	26 96       	adiw	r28, 0x06	; 6
    6ed2:	0f b6       	in	r0, 0x3f	; 63
    6ed4:	f8 94       	cli
    6ed6:	de bf       	out	0x3e, r29	; 62
    6ed8:	0f be       	out	0x3f, r0	; 63
    6eda:	cd bf       	out	0x3d, r28	; 61
    6edc:	df 91       	pop	r29
    6ede:	cf 91       	pop	r28
    6ee0:	1f 91       	pop	r17
    6ee2:	0f 91       	pop	r16
    6ee4:	ff 90       	pop	r15
    6ee6:	ef 90       	pop	r14
    6ee8:	df 90       	pop	r13
    6eea:	cf 90       	pop	r12
    6eec:	bf 90       	pop	r11
    6eee:	af 90       	pop	r10
    6ef0:	9f 90       	pop	r9
    6ef2:	8f 90       	pop	r8
    6ef4:	7f 90       	pop	r7
    6ef6:	6f 90       	pop	r6
    6ef8:	5f 90       	pop	r5
    6efa:	4f 90       	pop	r4
    6efc:	3f 90       	pop	r3
    6efe:	2f 90       	pop	r2
    6f00:	08 95       	ret

00006f02 <dir_find>:
    6f02:	2f 92       	push	r2
    6f04:	3f 92       	push	r3
    6f06:	4f 92       	push	r4
    6f08:	5f 92       	push	r5
    6f0a:	6f 92       	push	r6
    6f0c:	7f 92       	push	r7
    6f0e:	8f 92       	push	r8
    6f10:	9f 92       	push	r9
    6f12:	af 92       	push	r10
    6f14:	bf 92       	push	r11
    6f16:	cf 92       	push	r12
    6f18:	df 92       	push	r13
    6f1a:	ef 92       	push	r14
    6f1c:	ff 92       	push	r15
    6f1e:	0f 93       	push	r16
    6f20:	1f 93       	push	r17
    6f22:	cf 93       	push	r28
    6f24:	df 93       	push	r29
    6f26:	cd b7       	in	r28, 0x3d	; 61
    6f28:	de b7       	in	r29, 0x3e	; 62
    6f2a:	2e 97       	sbiw	r28, 0x0e	; 14
    6f2c:	0f b6       	in	r0, 0x3f	; 63
    6f2e:	f8 94       	cli
    6f30:	de bf       	out	0x3e, r29	; 62
    6f32:	0f be       	out	0x3f, r0	; 63
    6f34:	cd bf       	out	0x3d, r28	; 61
    6f36:	9d 83       	std	Y+5, r25	; 0x05
    6f38:	8c 83       	std	Y+4, r24	; 0x04
    6f3a:	dc 01       	movw	r26, r24
    6f3c:	2d 90       	ld	r2, X+
    6f3e:	3c 90       	ld	r3, X
    6f40:	40 e0       	ldi	r20, 0x00	; 0
    6f42:	50 e0       	ldi	r21, 0x00	; 0
    6f44:	ba 01       	movw	r22, r20
    6f46:	0e 94 34 2b 	call	0x5668	; 0x5668 <dir_sdi>
    6f4a:	81 11       	cpse	r24, r1
    6f4c:	b1 c1       	rjmp	.+866    	; 0x72b0 <dir_find+0x3ae>
    6f4e:	f1 01       	movw	r30, r2
    6f50:	80 81       	ld	r24, Z
    6f52:	84 30       	cpi	r24, 0x04	; 4
    6f54:	09 f0       	breq	.+2      	; 0x6f58 <dir_find+0x56>
    6f56:	76 c0       	rjmp	.+236    	; 0x7044 <dir_find+0x142>
    6f58:	83 85       	ldd	r24, Z+11	; 0x0b
    6f5a:	94 85       	ldd	r25, Z+12	; 0x0c
    6f5c:	0e 94 b4 24 	call	0x4968	; 0x4968 <xname_sum>
    6f60:	6c 01       	movw	r12, r24
    6f62:	ac 80       	ldd	r10, Y+4	; 0x04
    6f64:	bd 80       	ldd	r11, Y+5	; 0x05
    6f66:	66 c0       	rjmp	.+204    	; 0x7034 <dir_find+0x132>
    6f68:	d1 01       	movw	r26, r2
    6f6a:	1d 96       	adiw	r26, 0x0d	; 13
    6f6c:	ed 91       	ld	r30, X+
    6f6e:	fc 91       	ld	r31, X
    6f70:	1e 97       	sbiw	r26, 0x0e	; 14
    6f72:	b3 a1       	ldd	r27, Z+35	; 0x23
    6f74:	b9 83       	std	Y+1, r27	; 0x01
    6f76:	b1 38       	cpi	r27, 0x81	; 129
    6f78:	08 f0       	brcs	.+2      	; 0x6f7c <dir_find+0x7a>
    6f7a:	5c c0       	rjmp	.+184    	; 0x7034 <dir_find+0x132>
    6f7c:	85 a1       	ldd	r24, Z+37	; 0x25
    6f7e:	90 e0       	ldi	r25, 0x00	; 0
    6f80:	98 2f       	mov	r25, r24
    6f82:	88 27       	eor	r24, r24
    6f84:	24 a1       	ldd	r18, Z+36	; 0x24
    6f86:	82 2b       	or	r24, r18
    6f88:	c8 16       	cp	r12, r24
    6f8a:	d9 06       	cpc	r13, r25
    6f8c:	09 f0       	breq	.+2      	; 0x6f90 <dir_find+0x8e>
    6f8e:	52 c0       	rjmp	.+164    	; 0x7034 <dir_find+0x132>
    6f90:	bb 23       	and	r27, r27
    6f92:	09 f4       	brne	.+2      	; 0x6f96 <dir_find+0x94>
    6f94:	75 c1       	rjmp	.+746    	; 0x7280 <dir_find+0x37e>
    6f96:	e1 2c       	mov	r14, r1
    6f98:	f1 2c       	mov	r15, r1
    6f9a:	00 e4       	ldi	r16, 0x40	; 64
    6f9c:	10 e0       	ldi	r17, 0x00	; 0
    6f9e:	c8 01       	movw	r24, r16
    6fa0:	8f 71       	andi	r24, 0x1F	; 31
    6fa2:	99 27       	eor	r25, r25
    6fa4:	89 2b       	or	r24, r25
    6fa6:	11 f4       	brne	.+4      	; 0x6fac <dir_find+0xaa>
    6fa8:	0e 5f       	subi	r16, 0xFE	; 254
    6faa:	1f 4f       	sbci	r17, 0xFF	; 255
    6fac:	d1 01       	movw	r26, r2
    6fae:	1d 96       	adiw	r26, 0x0d	; 13
    6fb0:	ed 91       	ld	r30, X+
    6fb2:	fc 91       	ld	r31, X
    6fb4:	1e 97       	sbiw	r26, 0x0e	; 14
    6fb6:	e0 0f       	add	r30, r16
    6fb8:	f1 1f       	adc	r31, r17
    6fba:	61 81       	ldd	r22, Z+1	; 0x01
    6fbc:	70 e0       	ldi	r23, 0x00	; 0
    6fbe:	76 2f       	mov	r23, r22
    6fc0:	66 27       	eor	r22, r22
    6fc2:	80 81       	ld	r24, Z
    6fc4:	68 2b       	or	r22, r24
    6fc6:	80 e0       	ldi	r24, 0x00	; 0
    6fc8:	90 e0       	ldi	r25, 0x00	; 0
    6fca:	0e 94 88 46 	call	0x8d10	; 0x8d10 <ff_wtoupper>
    6fce:	2b 01       	movw	r4, r22
    6fd0:	3c 01       	movw	r6, r24
    6fd2:	d1 01       	movw	r26, r2
    6fd4:	1b 96       	adiw	r26, 0x0b	; 11
    6fd6:	ed 91       	ld	r30, X+
    6fd8:	fc 91       	ld	r31, X
    6fda:	1c 97       	sbiw	r26, 0x0c	; 12
    6fdc:	c7 01       	movw	r24, r14
    6fde:	88 0f       	add	r24, r24
    6fe0:	99 1f       	adc	r25, r25
    6fe2:	e8 0f       	add	r30, r24
    6fe4:	f9 1f       	adc	r31, r25
    6fe6:	60 81       	ld	r22, Z
    6fe8:	71 81       	ldd	r23, Z+1	; 0x01
    6fea:	80 e0       	ldi	r24, 0x00	; 0
    6fec:	90 e0       	ldi	r25, 0x00	; 0
    6fee:	0e 94 88 46 	call	0x8d10	; 0x8d10 <ff_wtoupper>
    6ff2:	46 16       	cp	r4, r22
    6ff4:	57 06       	cpc	r5, r23
    6ff6:	68 06       	cpc	r6, r24
    6ff8:	79 06       	cpc	r7, r25
    6ffa:	59 f4       	brne	.+22     	; 0x7012 <dir_find+0x110>
    6ffc:	b9 81       	ldd	r27, Y+1	; 0x01
    6ffe:	b1 50       	subi	r27, 0x01	; 1
    7000:	b9 83       	std	Y+1, r27	; 0x01
    7002:	0e 5f       	subi	r16, 0xFE	; 254
    7004:	1f 4f       	sbci	r17, 0xFF	; 255
    7006:	ef ef       	ldi	r30, 0xFF	; 255
    7008:	ee 1a       	sub	r14, r30
    700a:	fe 0a       	sbc	r15, r30
    700c:	b1 11       	cpse	r27, r1
    700e:	c7 cf       	rjmp	.-114    	; 0x6f9e <dir_find+0x9c>
    7010:	03 c0       	rjmp	.+6      	; 0x7018 <dir_find+0x116>
    7012:	f9 81       	ldd	r31, Y+1	; 0x01
    7014:	f1 11       	cpse	r31, r1
    7016:	0e c0       	rjmp	.+28     	; 0x7034 <dir_find+0x132>
    7018:	ee 0c       	add	r14, r14
    701a:	ff 1c       	adc	r15, r15
    701c:	d1 01       	movw	r26, r2
    701e:	1b 96       	adiw	r26, 0x0b	; 11
    7020:	ed 91       	ld	r30, X+
    7022:	fc 91       	ld	r31, X
    7024:	1c 97       	sbiw	r26, 0x0c	; 12
    7026:	ee 0d       	add	r30, r14
    7028:	ff 1d       	adc	r31, r15
    702a:	80 81       	ld	r24, Z
    702c:	91 81       	ldd	r25, Z+1	; 0x01
    702e:	89 2b       	or	r24, r25
    7030:	09 f4       	brne	.+2      	; 0x7034 <dir_find+0x132>
    7032:	1e c1       	rjmp	.+572    	; 0x7270 <dir_find+0x36e>
    7034:	60 e0       	ldi	r22, 0x00	; 0
    7036:	70 e0       	ldi	r23, 0x00	; 0
    7038:	c5 01       	movw	r24, r10
    703a:	e0 dd       	rcall	.-1088   	; 0x6bfc <dir_read>
    703c:	88 23       	and	r24, r24
    703e:	09 f4       	brne	.+2      	; 0x7042 <dir_find+0x140>
    7040:	93 cf       	rjmp	.-218    	; 0x6f68 <dir_find+0x66>
    7042:	36 c1       	rjmp	.+620    	; 0x72b0 <dir_find+0x3ae>
    7044:	8f ef       	ldi	r24, 0xFF	; 255
    7046:	9f ef       	ldi	r25, 0xFF	; 255
    7048:	dc 01       	movw	r26, r24
    704a:	ec 81       	ldd	r30, Y+4	; 0x04
    704c:	fd 81       	ldd	r31, Y+5	; 0x05
    704e:	e0 5c       	subi	r30, 0xC0	; 192
    7050:	ff 4f       	sbci	r31, 0xFF	; 255
    7052:	80 83       	st	Z, r24
    7054:	91 83       	std	Z+1, r25	; 0x01
    7056:	a2 83       	std	Z+2, r26	; 0x02
    7058:	b3 83       	std	Z+3, r27	; 0x03
    705a:	ee 24       	eor	r14, r14
    705c:	ea 94       	dec	r14
    705e:	ff 24       	eor	r15, r15
    7060:	fa 94       	dec	r15
    7062:	6f 01       	movw	r12, r30
    7064:	88 24       	eor	r8, r8
    7066:	8a 94       	dec	r8
    7068:	98 2c       	mov	r9, r8
    706a:	54 01       	movw	r10, r8
    706c:	ec 81       	ldd	r30, Y+4	; 0x04
    706e:	fd 81       	ldd	r31, Y+5	; 0x05
    7070:	f4 96       	adiw	r30, 0x34	; 52
    7072:	fa 83       	std	Y+2, r31	; 0x02
    7074:	e9 83       	std	Y+1, r30	; 0x01
    7076:	1f 2d       	mov	r17, r15
    7078:	7e 2c       	mov	r7, r14
    707a:	ac 81       	ldd	r26, Y+4	; 0x04
    707c:	bd 81       	ldd	r27, Y+5	; 0x05
    707e:	9e 96       	adiw	r26, 0x2e	; 46
    7080:	4d 91       	ld	r20, X+
    7082:	5d 91       	ld	r21, X+
    7084:	6d 91       	ld	r22, X+
    7086:	7c 91       	ld	r23, X
    7088:	d1 97       	sbiw	r26, 0x31	; 49
    708a:	c1 01       	movw	r24, r2
    708c:	0e 94 8f 22 	call	0x451e	; 0x451e <move_window>
    7090:	81 11       	cpse	r24, r1
    7092:	0e c1       	rjmp	.+540    	; 0x72b0 <dir_find+0x3ae>
    7094:	ec 81       	ldd	r30, Y+4	; 0x04
    7096:	fd 81       	ldd	r31, Y+5	; 0x05
    7098:	e2 a8       	ldd	r14, Z+50	; 0x32
    709a:	f3 a8       	ldd	r15, Z+51	; 0x33
    709c:	d7 01       	movw	r26, r14
    709e:	0c 91       	ld	r16, X
    70a0:	00 23       	and	r16, r16
    70a2:	09 f4       	brne	.+2      	; 0x70a6 <dir_find+0x1a4>
    70a4:	e7 c0       	rjmp	.+462    	; 0x7274 <dir_find+0x372>
    70a6:	1b 96       	adiw	r26, 0x0b	; 11
    70a8:	8c 91       	ld	r24, X
    70aa:	98 2f       	mov	r25, r24
    70ac:	9f 73       	andi	r25, 0x3F	; 63
    70ae:	94 83       	std	Z+4, r25	; 0x04
    70b0:	05 3e       	cpi	r16, 0xE5	; 229
    70b2:	21 f0       	breq	.+8      	; 0x70bc <dir_find+0x1ba>
    70b4:	83 ff       	sbrs	r24, 3
    70b6:	09 c0       	rjmp	.+18     	; 0x70ca <dir_find+0x1c8>
    70b8:	9f 30       	cpi	r25, 0x0F	; 15
    70ba:	51 f0       	breq	.+20     	; 0x70d0 <dir_find+0x1ce>
    70bc:	f6 01       	movw	r30, r12
    70be:	80 82       	st	Z, r8
    70c0:	91 82       	std	Z+1, r9	; 0x01
    70c2:	a2 82       	std	Z+2, r10	; 0x02
    70c4:	b3 82       	std	Z+3, r11	; 0x03
    70c6:	1f ef       	ldi	r17, 0xFF	; 255
    70c8:	c9 c0       	rjmp	.+402    	; 0x725c <dir_find+0x35a>
    70ca:	9f 30       	cpi	r25, 0x0F	; 15
    70cc:	09 f0       	breq	.+2      	; 0x70d0 <dir_find+0x1ce>
    70ce:	a6 c0       	rjmp	.+332    	; 0x721c <dir_find+0x31a>
    70d0:	ac 81       	ldd	r26, Y+4	; 0x04
    70d2:	bd 81       	ldd	r27, Y+5	; 0x05
    70d4:	df 96       	adiw	r26, 0x3f	; 63
    70d6:	8c 91       	ld	r24, X
    70d8:	df 97       	sbiw	r26, 0x3f	; 63
    70da:	86 fd       	sbrc	r24, 6
    70dc:	bf c0       	rjmp	.+382    	; 0x725c <dir_find+0x35a>
    70de:	06 ff       	sbrs	r16, 6
    70e0:	0f c0       	rjmp	.+30     	; 0x7100 <dir_find+0x1fe>
    70e2:	f7 01       	movw	r30, r14
    70e4:	75 84       	ldd	r7, Z+13	; 0x0d
    70e6:	0f 7b       	andi	r16, 0xBF	; 191
    70e8:	96 96       	adiw	r26, 0x26	; 38
    70ea:	8d 91       	ld	r24, X+
    70ec:	9d 91       	ld	r25, X+
    70ee:	0d 90       	ld	r0, X+
    70f0:	bc 91       	ld	r27, X
    70f2:	a0 2d       	mov	r26, r0
    70f4:	f6 01       	movw	r30, r12
    70f6:	80 83       	st	Z, r24
    70f8:	91 83       	std	Z+1, r25	; 0x01
    70fa:	a2 83       	std	Z+2, r26	; 0x02
    70fc:	b3 83       	std	Z+3, r27	; 0x03
    70fe:	02 c0       	rjmp	.+4      	; 0x7104 <dir_find+0x202>
    7100:	10 13       	cpse	r17, r16
    7102:	a9 c0       	rjmp	.+338    	; 0x7256 <dir_find+0x354>
    7104:	d7 01       	movw	r26, r14
    7106:	1d 96       	adiw	r26, 0x0d	; 13
    7108:	bc 91       	ld	r27, X
    710a:	bb 83       	std	Y+3, r27	; 0x03
    710c:	b7 11       	cpse	r27, r7
    710e:	a5 c0       	rjmp	.+330    	; 0x725a <dir_find+0x358>
    7110:	f7 01       	movw	r30, r14
    7112:	83 8d       	ldd	r24, Z+27	; 0x1b
    7114:	90 e0       	ldi	r25, 0x00	; 0
    7116:	98 2f       	mov	r25, r24
    7118:	88 27       	eor	r24, r24
    711a:	22 8d       	ldd	r18, Z+26	; 0x1a
    711c:	82 2b       	or	r24, r18
    711e:	89 2b       	or	r24, r25
    7120:	09 f0       	breq	.+2      	; 0x7124 <dir_find+0x222>
    7122:	bf c0       	rjmp	.+382    	; 0x72a2 <dir_find+0x3a0>
    7124:	d1 01       	movw	r26, r2
    7126:	1b 96       	adiw	r26, 0x0b	; 11
    7128:	0d 90       	ld	r0, X+
    712a:	bc 91       	ld	r27, X
    712c:	a0 2d       	mov	r26, r0
    712e:	bb 87       	std	Y+11, r27	; 0x0b
    7130:	aa 87       	std	Y+10, r26	; 0x0a
    7132:	80 81       	ld	r24, Z
    7134:	8f 73       	andi	r24, 0x3F	; 63
    7136:	90 e0       	ldi	r25, 0x00	; 0
    7138:	01 97       	sbiw	r24, 0x01	; 1
    713a:	bd e0       	ldi	r27, 0x0D	; 13
    713c:	b8 9f       	mul	r27, r24
    713e:	20 01       	movw	r4, r0
    7140:	b9 9f       	mul	r27, r25
    7142:	50 0c       	add	r5, r0
    7144:	11 24       	eor	r1, r1
    7146:	0f 2e       	mov	r0, r31
    7148:	f1 e6       	ldi	r31, 0x61	; 97
    714a:	6f 2e       	mov	r6, r31
    714c:	f2 e0       	ldi	r31, 0x02	; 2
    714e:	7f 2e       	mov	r7, r31
    7150:	f0 2d       	mov	r31, r0
    7152:	81 e0       	ldi	r24, 0x01	; 1
    7154:	90 e0       	ldi	r25, 0x00	; 0
    7156:	ec 81       	ldd	r30, Y+4	; 0x04
    7158:	fd 81       	ldd	r31, Y+5	; 0x05
    715a:	fd 87       	std	Y+13, r31	; 0x0d
    715c:	ec 87       	std	Y+12, r30	; 0x0c
    715e:	0e 87       	std	Y+14, r16	; 0x0e
    7160:	82 01       	movw	r16, r4
    7162:	d3 01       	movw	r26, r6
    7164:	2d 91       	ld	r18, X+
    7166:	3d 01       	movw	r6, r26
    7168:	f7 01       	movw	r30, r14
    716a:	e2 0f       	add	r30, r18
    716c:	f1 1d       	adc	r31, r1
    716e:	41 80       	ldd	r4, Z+1	; 0x01
    7170:	51 2c       	mov	r5, r1
    7172:	54 2c       	mov	r5, r4
    7174:	44 24       	eor	r4, r4
    7176:	20 81       	ld	r18, Z
    7178:	42 2a       	or	r4, r18
    717a:	00 97       	sbiw	r24, 0x00	; 0
    717c:	59 f1       	breq	.+86     	; 0x71d4 <dir_find+0x2d2>
    717e:	00 38       	cpi	r16, 0x80	; 128
    7180:	11 05       	cpc	r17, r1
    7182:	08 f0       	brcs	.+2      	; 0x7186 <dir_find+0x284>
    7184:	80 c0       	rjmp	.+256    	; 0x7286 <dir_find+0x384>
    7186:	b2 01       	movw	r22, r4
    7188:	80 e0       	ldi	r24, 0x00	; 0
    718a:	90 e0       	ldi	r25, 0x00	; 0
    718c:	0e 94 88 46 	call	0x8d10	; 0x8d10 <ff_wtoupper>
    7190:	6c 83       	std	Y+4, r22	; 0x04
    7192:	7d 83       	std	Y+5, r23	; 0x05
    7194:	8e 83       	std	Y+6, r24	; 0x06
    7196:	9f 83       	std	Y+7, r25	; 0x07
    7198:	f8 01       	movw	r30, r16
    719a:	31 96       	adiw	r30, 0x01	; 1
    719c:	f9 87       	std	Y+9, r31	; 0x09
    719e:	e8 87       	std	Y+8, r30	; 0x08
    71a0:	00 0f       	add	r16, r16
    71a2:	11 1f       	adc	r17, r17
    71a4:	ea 85       	ldd	r30, Y+10	; 0x0a
    71a6:	fb 85       	ldd	r31, Y+11	; 0x0b
    71a8:	e0 0f       	add	r30, r16
    71aa:	f1 1f       	adc	r31, r17
    71ac:	60 81       	ld	r22, Z
    71ae:	71 81       	ldd	r23, Z+1	; 0x01
    71b0:	80 e0       	ldi	r24, 0x00	; 0
    71b2:	90 e0       	ldi	r25, 0x00	; 0
    71b4:	0e 94 88 46 	call	0x8d10	; 0x8d10 <ff_wtoupper>
    71b8:	2c 81       	ldd	r18, Y+4	; 0x04
    71ba:	3d 81       	ldd	r19, Y+5	; 0x05
    71bc:	4e 81       	ldd	r20, Y+6	; 0x06
    71be:	5f 81       	ldd	r21, Y+7	; 0x07
    71c0:	26 17       	cp	r18, r22
    71c2:	37 07       	cpc	r19, r23
    71c4:	48 07       	cpc	r20, r24
    71c6:	59 07       	cpc	r21, r25
    71c8:	09 f0       	breq	.+2      	; 0x71cc <dir_find+0x2ca>
    71ca:	62 c0       	rjmp	.+196    	; 0x7290 <dir_find+0x38e>
    71cc:	c2 01       	movw	r24, r4
    71ce:	08 85       	ldd	r16, Y+8	; 0x08
    71d0:	19 85       	ldd	r17, Y+9	; 0x09
    71d2:	04 c0       	rjmp	.+8      	; 0x71dc <dir_find+0x2da>
    71d4:	45 20       	and	r4, r5
    71d6:	40 94       	com	r4
    71d8:	09 f0       	breq	.+2      	; 0x71dc <dir_find+0x2da>
    71da:	5f c0       	rjmp	.+190    	; 0x729a <dir_find+0x398>
    71dc:	4e e6       	ldi	r20, 0x6E	; 110
    71de:	52 e0       	ldi	r21, 0x02	; 2
    71e0:	46 15       	cp	r20, r6
    71e2:	57 05       	cpc	r21, r7
    71e4:	09 f0       	breq	.+2      	; 0x71e8 <dir_find+0x2e6>
    71e6:	bd cf       	rjmp	.-134    	; 0x7162 <dir_find+0x260>
    71e8:	28 01       	movw	r4, r16
    71ea:	0e 85       	ldd	r16, Y+14	; 0x0e
    71ec:	ac 85       	ldd	r26, Y+12	; 0x0c
    71ee:	bd 85       	ldd	r27, Y+13	; 0x0d
    71f0:	bd 83       	std	Y+5, r27	; 0x05
    71f2:	ac 83       	std	Y+4, r26	; 0x04
    71f4:	f7 01       	movw	r30, r14
    71f6:	20 81       	ld	r18, Z
    71f8:	26 ff       	sbrs	r18, 6
    71fa:	56 c0       	rjmp	.+172    	; 0x72a8 <dir_find+0x3a6>
    71fc:	89 2b       	or	r24, r25
    71fe:	09 f4       	brne	.+2      	; 0x7202 <dir_find+0x300>
    7200:	53 c0       	rjmp	.+166    	; 0x72a8 <dir_find+0x3a6>
    7202:	f2 01       	movw	r30, r4
    7204:	ee 0f       	add	r30, r30
    7206:	ff 1f       	adc	r31, r31
    7208:	2a 85       	ldd	r18, Y+10	; 0x0a
    720a:	3b 85       	ldd	r19, Y+11	; 0x0b
    720c:	e2 0f       	add	r30, r18
    720e:	f3 1f       	adc	r31, r19
    7210:	80 81       	ld	r24, Z
    7212:	91 81       	ldd	r25, Z+1	; 0x01
    7214:	89 2b       	or	r24, r25
    7216:	09 f4       	brne	.+2      	; 0x721a <dir_find+0x318>
    7218:	47 c0       	rjmp	.+142    	; 0x72a8 <dir_find+0x3a6>
    721a:	43 c0       	rjmp	.+134    	; 0x72a2 <dir_find+0x3a0>
    721c:	11 11       	cpse	r17, r1
    721e:	05 c0       	rjmp	.+10     	; 0x722a <dir_find+0x328>
    7220:	c7 01       	movw	r24, r14
    7222:	0e 94 3a 21 	call	0x4274	; 0x4274 <sum_sfn>
    7226:	78 16       	cp	r7, r24
    7228:	39 f1       	breq	.+78     	; 0x7278 <dir_find+0x376>
    722a:	ac 81       	ldd	r26, Y+4	; 0x04
    722c:	bd 81       	ldd	r27, Y+5	; 0x05
    722e:	df 96       	adiw	r26, 0x3f	; 63
    7230:	8c 91       	ld	r24, X
    7232:	80 fd       	sbrc	r24, 0
    7234:	09 c0       	rjmp	.+18     	; 0x7248 <dir_find+0x346>
    7236:	4b e0       	ldi	r20, 0x0B	; 11
    7238:	50 e0       	ldi	r21, 0x00	; 0
    723a:	69 81       	ldd	r22, Y+1	; 0x01
    723c:	7a 81       	ldd	r23, Y+2	; 0x02
    723e:	c7 01       	movw	r24, r14
    7240:	0e 94 04 21 	call	0x4208	; 0x4208 <mem_cmp>
    7244:	89 2b       	or	r24, r25
    7246:	d1 f0       	breq	.+52     	; 0x727c <dir_find+0x37a>
    7248:	f6 01       	movw	r30, r12
    724a:	80 82       	st	Z, r8
    724c:	91 82       	std	Z+1, r9	; 0x01
    724e:	a2 82       	std	Z+2, r10	; 0x02
    7250:	b3 82       	std	Z+3, r11	; 0x03
    7252:	1f ef       	ldi	r17, 0xFF	; 255
    7254:	03 c0       	rjmp	.+6      	; 0x725c <dir_find+0x35a>
    7256:	1f ef       	ldi	r17, 0xFF	; 255
    7258:	01 c0       	rjmp	.+2      	; 0x725c <dir_find+0x35a>
    725a:	1f ef       	ldi	r17, 0xFF	; 255
    725c:	60 e0       	ldi	r22, 0x00	; 0
    725e:	70 e0       	ldi	r23, 0x00	; 0
    7260:	8c 81       	ldd	r24, Y+4	; 0x04
    7262:	9d 81       	ldd	r25, Y+5	; 0x05
    7264:	0e 94 96 2d 	call	0x5b2c	; 0x5b2c <dir_next>
    7268:	88 23       	and	r24, r24
    726a:	09 f4       	brne	.+2      	; 0x726e <dir_find+0x36c>
    726c:	06 cf       	rjmp	.-500    	; 0x707a <dir_find+0x178>
    726e:	20 c0       	rjmp	.+64     	; 0x72b0 <dir_find+0x3ae>
    7270:	80 e0       	ldi	r24, 0x00	; 0
    7272:	1e c0       	rjmp	.+60     	; 0x72b0 <dir_find+0x3ae>
    7274:	84 e0       	ldi	r24, 0x04	; 4
    7276:	1c c0       	rjmp	.+56     	; 0x72b0 <dir_find+0x3ae>
    7278:	80 e0       	ldi	r24, 0x00	; 0
    727a:	1a c0       	rjmp	.+52     	; 0x72b0 <dir_find+0x3ae>
    727c:	80 e0       	ldi	r24, 0x00	; 0
    727e:	18 c0       	rjmp	.+48     	; 0x72b0 <dir_find+0x3ae>
    7280:	e1 2c       	mov	r14, r1
    7282:	f1 2c       	mov	r15, r1
    7284:	c9 ce       	rjmp	.-622    	; 0x7018 <dir_find+0x116>
    7286:	2c 85       	ldd	r18, Y+12	; 0x0c
    7288:	3d 85       	ldd	r19, Y+13	; 0x0d
    728a:	3d 83       	std	Y+5, r19	; 0x05
    728c:	2c 83       	std	Y+4, r18	; 0x04
    728e:	09 c0       	rjmp	.+18     	; 0x72a2 <dir_find+0x3a0>
    7290:	4c 85       	ldd	r20, Y+12	; 0x0c
    7292:	5d 85       	ldd	r21, Y+13	; 0x0d
    7294:	5d 83       	std	Y+5, r21	; 0x05
    7296:	4c 83       	std	Y+4, r20	; 0x04
    7298:	04 c0       	rjmp	.+8      	; 0x72a2 <dir_find+0x3a0>
    729a:	8c 85       	ldd	r24, Y+12	; 0x0c
    729c:	9d 85       	ldd	r25, Y+13	; 0x0d
    729e:	9d 83       	std	Y+5, r25	; 0x05
    72a0:	8c 83       	std	Y+4, r24	; 0x04
    72a2:	7b 80       	ldd	r7, Y+3	; 0x03
    72a4:	1f ef       	ldi	r17, 0xFF	; 255
    72a6:	da cf       	rjmp	.-76     	; 0x725c <dir_find+0x35a>
    72a8:	1f ef       	ldi	r17, 0xFF	; 255
    72aa:	10 0f       	add	r17, r16
    72ac:	7b 80       	ldd	r7, Y+3	; 0x03
    72ae:	d6 cf       	rjmp	.-84     	; 0x725c <dir_find+0x35a>
    72b0:	2e 96       	adiw	r28, 0x0e	; 14
    72b2:	0f b6       	in	r0, 0x3f	; 63
    72b4:	f8 94       	cli
    72b6:	de bf       	out	0x3e, r29	; 62
    72b8:	0f be       	out	0x3f, r0	; 63
    72ba:	cd bf       	out	0x3d, r28	; 61
    72bc:	df 91       	pop	r29
    72be:	cf 91       	pop	r28
    72c0:	1f 91       	pop	r17
    72c2:	0f 91       	pop	r16
    72c4:	ff 90       	pop	r15
    72c6:	ef 90       	pop	r14
    72c8:	df 90       	pop	r13
    72ca:	cf 90       	pop	r12
    72cc:	bf 90       	pop	r11
    72ce:	af 90       	pop	r10
    72d0:	9f 90       	pop	r9
    72d2:	8f 90       	pop	r8
    72d4:	7f 90       	pop	r7
    72d6:	6f 90       	pop	r6
    72d8:	5f 90       	pop	r5
    72da:	4f 90       	pop	r4
    72dc:	3f 90       	pop	r3
    72de:	2f 90       	pop	r2
    72e0:	08 95       	ret

000072e2 <dir_register>:
    72e2:	2f 92       	push	r2
    72e4:	3f 92       	push	r3
    72e6:	4f 92       	push	r4
    72e8:	5f 92       	push	r5
    72ea:	6f 92       	push	r6
    72ec:	7f 92       	push	r7
    72ee:	8f 92       	push	r8
    72f0:	9f 92       	push	r9
    72f2:	af 92       	push	r10
    72f4:	bf 92       	push	r11
    72f6:	cf 92       	push	r12
    72f8:	df 92       	push	r13
    72fa:	ef 92       	push	r14
    72fc:	ff 92       	push	r15
    72fe:	0f 93       	push	r16
    7300:	1f 93       	push	r17
    7302:	cf 93       	push	r28
    7304:	df 93       	push	r29
    7306:	cd b7       	in	r28, 0x3d	; 61
    7308:	de b7       	in	r29, 0x3e	; 62
    730a:	ca 55       	subi	r28, 0x5A	; 90
    730c:	d1 09       	sbc	r29, r1
    730e:	0f b6       	in	r0, 0x3f	; 63
    7310:	f8 94       	cli
    7312:	de bf       	out	0x3e, r29	; 62
    7314:	0f be       	out	0x3f, r0	; 63
    7316:	cd bf       	out	0x3d, r28	; 61
    7318:	dc 01       	movw	r26, r24
    731a:	df 96       	adiw	r26, 0x3f	; 63
    731c:	9c 91       	ld	r25, X
    731e:	df 97       	sbiw	r26, 0x3f	; 63
    7320:	90 7a       	andi	r25, 0xA0	; 160
    7322:	09 f0       	breq	.+2      	; 0x7326 <dir_register+0x44>
    7324:	42 c3       	rjmp	.+1668   	; 0x79aa <dir_register+0x6c8>
    7326:	8d 90       	ld	r8, X+
    7328:	9c 90       	ld	r9, X
    732a:	11 97       	sbiw	r26, 0x01	; 1
    732c:	63 96       	adiw	r28, 0x13	; 19
    732e:	9f ae       	std	Y+63, r9	; 0x3f
    7330:	8e ae       	std	Y+62, r8	; 0x3e
    7332:	63 97       	sbiw	r28, 0x13	; 19
    7334:	f4 01       	movw	r30, r8
    7336:	23 85       	ldd	r18, Z+11	; 0x0b
    7338:	34 85       	ldd	r19, Z+12	; 0x0c
    733a:	f9 01       	movw	r30, r18
    733c:	80 81       	ld	r24, Z
    733e:	91 81       	ldd	r25, Z+1	; 0x01
    7340:	89 2b       	or	r24, r25
    7342:	59 f0       	breq	.+22     	; 0x735a <dir_register+0x78>
    7344:	32 96       	adiw	r30, 0x02	; 2
    7346:	c1 2c       	mov	r12, r1
    7348:	d1 2c       	mov	r13, r1
    734a:	0f ef       	ldi	r16, 0xFF	; 255
    734c:	c0 1a       	sub	r12, r16
    734e:	d0 0a       	sbc	r13, r16
    7350:	81 91       	ld	r24, Z+
    7352:	91 91       	ld	r25, Z+
    7354:	89 2b       	or	r24, r25
    7356:	c9 f7       	brne	.-14     	; 0x734a <dir_register+0x68>
    7358:	02 c0       	rjmp	.+4      	; 0x735e <dir_register+0x7c>
    735a:	c1 2c       	mov	r12, r1
    735c:	d1 2c       	mov	r13, r1
    735e:	1d 01       	movw	r2, r26
    7360:	63 96       	adiw	r28, 0x13	; 19
    7362:	ae ad       	ldd	r26, Y+62	; 0x3e
    7364:	bf ad       	ldd	r27, Y+63	; 0x3f
    7366:	63 97       	sbiw	r28, 0x13	; 19
    7368:	8c 91       	ld	r24, X
    736a:	84 30       	cpi	r24, 0x04	; 4
    736c:	09 f0       	breq	.+2      	; 0x7370 <dir_register+0x8e>
    736e:	30 c1       	rjmp	.+608    	; 0x75d0 <dir_register+0x2ee>
    7370:	96 01       	movw	r18, r12
    7372:	22 5f       	subi	r18, 0xF2	; 242
    7374:	3f 4f       	sbci	r19, 0xFF	; 255
    7376:	a9 e8       	ldi	r26, 0x89	; 137
    7378:	b8 e8       	ldi	r27, 0x88	; 136
    737a:	0e 94 ec 4b 	call	0x97d8	; 0x97d8 <__umulhisi3>
    737e:	8c 01       	movw	r16, r24
    7380:	16 95       	lsr	r17
    7382:	07 95       	ror	r16
    7384:	16 95       	lsr	r17
    7386:	07 95       	ror	r16
    7388:	16 95       	lsr	r17
    738a:	07 95       	ror	r16
    738c:	b8 01       	movw	r22, r16
    738e:	6e 5f       	subi	r22, 0xFE	; 254
    7390:	7f 4f       	sbci	r23, 0xFF	; 255
    7392:	c1 01       	movw	r24, r2
    7394:	0e 94 a7 2f 	call	0x5f4e	; 0x5f4e <dir_alloc>
    7398:	81 11       	cpse	r24, r1
    739a:	32 c3       	rjmp	.+1636   	; 0x7a00 <dir_register+0x71e>
    739c:	f1 01       	movw	r30, r2
    739e:	e0 5c       	subi	r30, 0xC0	; 192
    73a0:	ff 4f       	sbci	r31, 0xFF	; 255
    73a2:	c8 01       	movw	r24, r16
    73a4:	8f 5f       	subi	r24, 0xFF	; 255
    73a6:	97 4f       	sbci	r25, 0xF7	; 247
    73a8:	88 0f       	add	r24, r24
    73aa:	99 1f       	adc	r25, r25
    73ac:	82 95       	swap	r24
    73ae:	92 95       	swap	r25
    73b0:	90 7f       	andi	r25, 0xF0	; 240
    73b2:	98 27       	eor	r25, r24
    73b4:	80 7f       	andi	r24, 0xF0	; 240
    73b6:	98 27       	eor	r25, r24
    73b8:	d1 01       	movw	r26, r2
    73ba:	96 96       	adiw	r26, 0x26	; 38
    73bc:	4d 91       	ld	r20, X+
    73be:	5d 91       	ld	r21, X+
    73c0:	6d 91       	ld	r22, X+
    73c2:	7c 91       	ld	r23, X
    73c4:	99 97       	sbiw	r26, 0x29	; 41
    73c6:	4a 01       	movw	r8, r20
    73c8:	5b 01       	movw	r10, r22
    73ca:	88 1a       	sub	r8, r24
    73cc:	99 0a       	sbc	r9, r25
    73ce:	a1 08       	sbc	r10, r1
    73d0:	b1 08       	sbc	r11, r1
    73d2:	80 82       	st	Z, r8
    73d4:	91 82       	std	Z+1, r9	; 0x01
    73d6:	a2 82       	std	Z+2, r10	; 0x02
    73d8:	b3 82       	std	Z+3, r11	; 0x03
    73da:	d1 01       	movw	r26, r2
    73dc:	15 96       	adiw	r26, 0x05	; 5
    73de:	8c 91       	ld	r24, X
    73e0:	15 97       	sbiw	r26, 0x05	; 5
    73e2:	82 ff       	sbrs	r24, 2
    73e4:	97 c0       	rjmp	.+302    	; 0x7514 <dir_register+0x232>
    73e6:	8b 7f       	andi	r24, 0xFB	; 251
    73e8:	15 96       	adiw	r26, 0x05	; 5
    73ea:	8c 93       	st	X, r24
    73ec:	c1 01       	movw	r24, r2
    73ee:	0e 94 e1 26 	call	0x4dc2	; 0x4dc2 <fill_first_frag>
    73f2:	81 11       	cpse	r24, r1
    73f4:	05 c3       	rjmp	.+1546   	; 0x7a00 <dir_register+0x71e>
    73f6:	f1 01       	movw	r30, r2
    73f8:	42 a5       	ldd	r20, Z+42	; 0x2a
    73fa:	53 a5       	ldd	r21, Z+43	; 0x2b
    73fc:	64 a5       	ldd	r22, Z+44	; 0x2c
    73fe:	75 a5       	ldd	r23, Z+45	; 0x2d
    7400:	0f ef       	ldi	r16, 0xFF	; 255
    7402:	1f ef       	ldi	r17, 0xFF	; 255
    7404:	98 01       	movw	r18, r16
    7406:	c1 01       	movw	r24, r2
    7408:	0e 94 77 26 	call	0x4cee	; 0x4cee <fill_last_frag>
    740c:	81 11       	cpse	r24, r1
    740e:	f8 c2       	rjmp	.+1520   	; 0x7a00 <dir_register+0x71e>
    7410:	f1 01       	movw	r30, r2
    7412:	86 81       	ldd	r24, Z+6	; 0x06
    7414:	97 81       	ldd	r25, Z+7	; 0x07
    7416:	a0 85       	ldd	r26, Z+8	; 0x08
    7418:	b1 85       	ldd	r27, Z+9	; 0x09
    741a:	89 2b       	or	r24, r25
    741c:	8a 2b       	or	r24, r26
    741e:	8b 2b       	or	r24, r27
    7420:	09 f4       	brne	.+2      	; 0x7424 <dir_register+0x142>
    7422:	78 c0       	rjmp	.+240    	; 0x7514 <dir_register+0x232>
    7424:	b1 01       	movw	r22, r2
    7426:	ce 01       	movw	r24, r28
    7428:	0d 96       	adiw	r24, 0x0d	; 13
    742a:	0e 94 6c 2f 	call	0x5ed8	; 0x5ed8 <load_obj_xdir>
    742e:	81 11       	cpse	r24, r1
    7430:	e7 c2       	rjmp	.+1486   	; 0x7a00 <dir_register+0x71e>
    7432:	63 96       	adiw	r28, 0x13	; 19
    7434:	ae ad       	ldd	r26, Y+62	; 0x3e
    7436:	bf ad       	ldd	r27, Y+63	; 0x3f
    7438:	63 97       	sbiw	r28, 0x13	; 19
    743a:	19 96       	adiw	r26, 0x09	; 9
    743c:	8d 90       	ld	r8, X+
    743e:	9c 90       	ld	r9, X
    7440:	1a 97       	sbiw	r26, 0x0a	; 10
    7442:	a1 2c       	mov	r10, r1
    7444:	b1 2c       	mov	r11, r1
    7446:	07 2e       	mov	r0, r23
    7448:	79 e0       	ldi	r23, 0x09	; 9
    744a:	88 0c       	add	r8, r8
    744c:	99 1c       	adc	r9, r9
    744e:	aa 1c       	adc	r10, r10
    7450:	bb 1c       	adc	r11, r11
    7452:	7a 95       	dec	r23
    7454:	d1 f7       	brne	.-12     	; 0x744a <dir_register+0x168>
    7456:	70 2d       	mov	r23, r0
    7458:	28 2d       	mov	r18, r8
    745a:	39 2d       	mov	r19, r9
    745c:	4a 2d       	mov	r20, r10
    745e:	5b 2d       	mov	r21, r11
    7460:	60 e0       	ldi	r22, 0x00	; 0
    7462:	70 e0       	ldi	r23, 0x00	; 0
    7464:	90 e0       	ldi	r25, 0x00	; 0
    7466:	f1 01       	movw	r30, r2
    7468:	a2 84       	ldd	r10, Z+10	; 0x0a
    746a:	b3 84       	ldd	r11, Z+11	; 0x0b
    746c:	c4 84       	ldd	r12, Z+12	; 0x0c
    746e:	d5 84       	ldd	r13, Z+13	; 0x0d
    7470:	e6 84       	ldd	r14, Z+14	; 0x0e
    7472:	f7 84       	ldd	r15, Z+15	; 0x0f
    7474:	00 89       	ldd	r16, Z+16	; 0x10
    7476:	11 89       	ldd	r17, Z+17	; 0x11
    7478:	0e 94 3c 4c 	call	0x9878	; 0x9878 <__adddi3>
    747c:	22 87       	std	Z+10, r18	; 0x0a
    747e:	33 87       	std	Z+11, r19	; 0x0b
    7480:	44 87       	std	Z+12, r20	; 0x0c
    7482:	55 87       	std	Z+13, r21	; 0x0d
    7484:	66 87       	std	Z+14, r22	; 0x0e
    7486:	77 87       	std	Z+15, r23	; 0x0f
    7488:	80 8b       	std	Z+16, r24	; 0x10
    748a:	91 8b       	std	Z+17, r25	; 0x11
    748c:	1d 96       	adiw	r26, 0x0d	; 13
    748e:	ed 91       	ld	r30, X+
    7490:	fc 91       	ld	r31, X
    7492:	1e 97       	sbiw	r26, 0x0e	; 14
    7494:	02 2f       	mov	r16, r18
    7496:	13 2f       	mov	r17, r19
    7498:	24 2f       	mov	r18, r20
    749a:	35 2f       	mov	r19, r21
    749c:	46 2f       	mov	r20, r22
    749e:	57 2f       	mov	r21, r23
    74a0:	68 2f       	mov	r22, r24
    74a2:	79 2f       	mov	r23, r25
    74a4:	cf 01       	movw	r24, r30
    74a6:	c8 96       	adiw	r24, 0x38	; 56
    74a8:	0e 94 c1 20 	call	0x4182	; 0x4182 <st_qword>
    74ac:	d1 01       	movw	r26, r2
    74ae:	1a 96       	adiw	r26, 0x0a	; 10
    74b0:	0c 91       	ld	r16, X
    74b2:	1a 97       	sbiw	r26, 0x0a	; 10
    74b4:	1b 96       	adiw	r26, 0x0b	; 11
    74b6:	1c 91       	ld	r17, X
    74b8:	1b 97       	sbiw	r26, 0x0b	; 11
    74ba:	1c 96       	adiw	r26, 0x0c	; 12
    74bc:	2c 91       	ld	r18, X
    74be:	1c 97       	sbiw	r26, 0x0c	; 12
    74c0:	1d 96       	adiw	r26, 0x0d	; 13
    74c2:	3c 91       	ld	r19, X
    74c4:	1d 97       	sbiw	r26, 0x0d	; 13
    74c6:	1e 96       	adiw	r26, 0x0e	; 14
    74c8:	4c 91       	ld	r20, X
    74ca:	1e 97       	sbiw	r26, 0x0e	; 14
    74cc:	1f 96       	adiw	r26, 0x0f	; 15
    74ce:	5c 91       	ld	r21, X
    74d0:	1f 97       	sbiw	r26, 0x0f	; 15
    74d2:	50 96       	adiw	r26, 0x10	; 16
    74d4:	6c 91       	ld	r22, X
    74d6:	50 97       	sbiw	r26, 0x10	; 16
    74d8:	51 96       	adiw	r26, 0x11	; 17
    74da:	7c 91       	ld	r23, X
    74dc:	63 96       	adiw	r28, 0x13	; 19
    74de:	ee ad       	ldd	r30, Y+62	; 0x3e
    74e0:	ff ad       	ldd	r31, Y+63	; 0x3f
    74e2:	63 97       	sbiw	r28, 0x13	; 19
    74e4:	85 85       	ldd	r24, Z+13	; 0x0d
    74e6:	96 85       	ldd	r25, Z+14	; 0x0e
    74e8:	88 96       	adiw	r24, 0x28	; 40
    74ea:	0e 94 c1 20 	call	0x4182	; 0x4182 <st_qword>
    74ee:	63 96       	adiw	r28, 0x13	; 19
    74f0:	ae ad       	ldd	r26, Y+62	; 0x3e
    74f2:	bf ad       	ldd	r27, Y+63	; 0x3f
    74f4:	63 97       	sbiw	r28, 0x13	; 19
    74f6:	1d 96       	adiw	r26, 0x0d	; 13
    74f8:	ed 91       	ld	r30, X+
    74fa:	fc 91       	ld	r31, X
    74fc:	1e 97       	sbiw	r26, 0x0e	; 14
    74fe:	d1 01       	movw	r26, r2
    7500:	15 96       	adiw	r26, 0x05	; 5
    7502:	8c 91       	ld	r24, X
    7504:	81 60       	ori	r24, 0x01	; 1
    7506:	81 a3       	std	Z+33, r24	; 0x21
    7508:	ce 01       	movw	r24, r28
    750a:	0d 96       	adiw	r24, 0x0d	; 13
    750c:	0e 94 06 30 	call	0x600c	; 0x600c <store_xdir>
    7510:	81 11       	cpse	r24, r1
    7512:	76 c2       	rjmp	.+1260   	; 0x7a00 <dir_register+0x71e>
    7514:	63 96       	adiw	r28, 0x13	; 19
    7516:	ee ad       	ldd	r30, Y+62	; 0x3e
    7518:	ff ad       	ldd	r31, Y+63	; 0x3f
    751a:	63 97       	sbiw	r28, 0x13	; 19
    751c:	03 85       	ldd	r16, Z+11	; 0x0b
    751e:	14 85       	ldd	r17, Z+12	; 0x0c
    7520:	e5 84       	ldd	r14, Z+13	; 0x0d
    7522:	f6 84       	ldd	r15, Z+14	; 0x0e
    7524:	40 e4       	ldi	r20, 0x40	; 64
    7526:	50 e0       	ldi	r21, 0x00	; 0
    7528:	60 e0       	ldi	r22, 0x00	; 0
    752a:	70 e0       	ldi	r23, 0x00	; 0
    752c:	c7 01       	movw	r24, r14
    752e:	0e 94 fc 20 	call	0x41f8	; 0x41f8 <mem_set>
    7532:	85 e8       	ldi	r24, 0x85	; 133
    7534:	d7 01       	movw	r26, r14
    7536:	8c 93       	st	X, r24
    7538:	80 ec       	ldi	r24, 0xC0	; 192
    753a:	90 96       	adiw	r26, 0x20	; 32
    753c:	8c 93       	st	X, r24
    753e:	81 e0       	ldi	r24, 0x01	; 1
    7540:	90 e0       	ldi	r25, 0x00	; 0
    7542:	60 e0       	ldi	r22, 0x00	; 0
    7544:	70 e0       	ldi	r23, 0x00	; 0
    7546:	20 e4       	ldi	r18, 0x40	; 64
    7548:	30 e0       	ldi	r19, 0x00	; 0
    754a:	0f 2e       	mov	r0, r31
    754c:	f1 ec       	ldi	r31, 0xC1	; 193
    754e:	df 2e       	mov	r13, r31
    7550:	f0 2d       	mov	r31, r0
    7552:	01 c0       	rjmp	.+2      	; 0x7556 <dir_register+0x274>
    7554:	7a 2f       	mov	r23, r26
    7556:	f7 01       	movw	r30, r14
    7558:	e2 0f       	add	r30, r18
    755a:	f3 1f       	adc	r31, r19
    755c:	d0 82       	st	Z, r13
    755e:	d9 01       	movw	r26, r18
    7560:	11 96       	adiw	r26, 0x01	; 1
    7562:	ae 0d       	add	r26, r14
    7564:	bf 1d       	adc	r27, r15
    7566:	2e 5f       	subi	r18, 0xFE	; 254
    7568:	3f 4f       	sbci	r19, 0xFF	; 255
    756a:	1c 92       	st	X, r1
    756c:	00 97       	sbiw	r24, 0x00	; 0
    756e:	59 f0       	breq	.+22     	; 0x7586 <dir_register+0x2a4>
    7570:	a6 2f       	mov	r26, r22
    7572:	b0 e0       	ldi	r27, 0x00	; 0
    7574:	aa 0f       	add	r26, r26
    7576:	bb 1f       	adc	r27, r27
    7578:	a0 0f       	add	r26, r16
    757a:	b1 1f       	adc	r27, r17
    757c:	8d 91       	ld	r24, X+
    757e:	9c 91       	ld	r25, X
    7580:	00 97       	sbiw	r24, 0x00	; 0
    7582:	09 f0       	breq	.+2      	; 0x7586 <dir_register+0x2a4>
    7584:	6f 5f       	subi	r22, 0xFF	; 255
    7586:	82 83       	std	Z+2, r24	; 0x02
    7588:	93 83       	std	Z+3, r25	; 0x03
    758a:	2e 5f       	subi	r18, 0xFE	; 254
    758c:	3f 4f       	sbci	r19, 0xFF	; 255
    758e:	32 96       	adiw	r30, 0x02	; 2
    7590:	a9 01       	movw	r20, r18
    7592:	4f 71       	andi	r20, 0x1F	; 31
    7594:	55 27       	eor	r21, r21
    7596:	45 2b       	or	r20, r21
    7598:	49 f7       	brne	.-46     	; 0x756c <dir_register+0x28a>
    759a:	a1 e0       	ldi	r26, 0x01	; 1
    759c:	a7 0f       	add	r26, r23
    759e:	e6 2f       	mov	r30, r22
    75a0:	f0 e0       	ldi	r31, 0x00	; 0
    75a2:	ee 0f       	add	r30, r30
    75a4:	ff 1f       	adc	r31, r31
    75a6:	e0 0f       	add	r30, r16
    75a8:	f1 1f       	adc	r31, r17
    75aa:	40 81       	ld	r20, Z
    75ac:	51 81       	ldd	r21, Z+1	; 0x01
    75ae:	45 2b       	or	r20, r21
    75b0:	89 f6       	brne	.-94     	; 0x7554 <dir_register+0x272>
    75b2:	f7 01       	movw	r30, r14
    75b4:	63 a3       	std	Z+35, r22	; 0x23
    75b6:	7e 5f       	subi	r23, 0xFE	; 254
    75b8:	71 83       	std	Z+1, r23	; 0x01
    75ba:	c8 01       	movw	r24, r16
    75bc:	0e 94 b4 24 	call	0x4968	; 0x4968 <xname_sum>
    75c0:	d7 01       	movw	r26, r14
    75c2:	94 96       	adiw	r26, 0x24	; 36
    75c4:	8c 93       	st	X, r24
    75c6:	94 97       	sbiw	r26, 0x24	; 36
    75c8:	95 96       	adiw	r26, 0x25	; 37
    75ca:	9c 93       	st	X, r25
    75cc:	80 e0       	ldi	r24, 0x00	; 0
    75ce:	18 c2       	rjmp	.+1072   	; 0x7a00 <dir_register+0x71e>
    75d0:	81 01       	movw	r16, r2
    75d2:	0c 5c       	subi	r16, 0xCC	; 204
    75d4:	1f 4f       	sbci	r17, 0xFF	; 255
    75d6:	4c e0       	ldi	r20, 0x0C	; 12
    75d8:	50 e0       	ldi	r21, 0x00	; 0
    75da:	b8 01       	movw	r22, r16
    75dc:	ce 01       	movw	r24, r28
    75de:	01 96       	adiw	r24, 0x01	; 1
    75e0:	0e 94 ee 20 	call	0x41dc	; 0x41dc <mem_cpy>
    75e4:	8c 85       	ldd	r24, Y+12	; 0x0c
    75e6:	80 ff       	sbrs	r24, 0
    75e8:	e9 c0       	rjmp	.+466    	; 0x77bc <dir_register+0x4da>
    75ea:	80 e4       	ldi	r24, 0x40	; 64
    75ec:	f1 01       	movw	r30, r2
    75ee:	87 af       	std	Z+63, r24	; 0x3f
    75f0:	4b e0       	ldi	r20, 0x0B	; 11
    75f2:	50 e0       	ldi	r21, 0x00	; 0
    75f4:	be 01       	movw	r22, r28
    75f6:	6f 5f       	subi	r22, 0xFF	; 255
    75f8:	7f 4f       	sbci	r23, 0xFF	; 255
    75fa:	c8 01       	movw	r24, r16
    75fc:	0e 94 ee 20 	call	0x41dc	; 0x41dc <mem_cpy>
    7600:	81 2c       	mov	r8, r1
    7602:	91 2c       	mov	r9, r1
    7604:	54 01       	movw	r10, r8
    7606:	68 94       	set
    7608:	81 f8       	bld	r8, 1
    760a:	ee 24       	eor	r14, r14
    760c:	e3 94       	inc	r14
    760e:	f1 2c       	mov	r15, r1
    7610:	41 e0       	ldi	r20, 0x01	; 1
    7612:	50 e0       	ldi	r21, 0x00	; 0
    7614:	6b 96       	adiw	r28, 0x1b	; 27
    7616:	8c ae       	std	Y+60, r8	; 0x3c
    7618:	9d ae       	std	Y+61, r9	; 0x3d
    761a:	ae ae       	std	Y+62, r10	; 0x3e
    761c:	bf ae       	std	Y+63, r11	; 0x3f
    761e:	6b 97       	sbiw	r28, 0x1b	; 27
    7620:	53 c0       	rjmp	.+166    	; 0x76c8 <dir_register+0x3e6>
    7622:	63 96       	adiw	r28, 0x13	; 19
    7624:	ae ad       	ldd	r26, Y+62	; 0x3e
    7626:	bf ad       	ldd	r27, Y+63	; 0x3f
    7628:	63 97       	sbiw	r28, 0x13	; 19
    762a:	1b 96       	adiw	r26, 0x0b	; 11
    762c:	4c 90       	ld	r4, X
    762e:	1b 97       	sbiw	r26, 0x0b	; 11
    7630:	1c 96       	adiw	r26, 0x0c	; 12
    7632:	5c 90       	ld	r5, X
    7634:	4b e0       	ldi	r20, 0x0B	; 11
    7636:	50 e0       	ldi	r21, 0x00	; 0
    7638:	be 01       	movw	r22, r28
    763a:	6f 5f       	subi	r22, 0xFF	; 255
    763c:	7f 4f       	sbci	r23, 0xFF	; 255
    763e:	c8 01       	movw	r24, r16
    7640:	0e 94 ee 20 	call	0x41dc	; 0x41dc <mem_cpy>
    7644:	b6 e0       	ldi	r27, 0x06	; 6
    7646:	eb 16       	cp	r14, r27
    7648:	f1 04       	cpc	r15, r1
    764a:	70 f1       	brcs	.+92     	; 0x76a8 <dir_register+0x3c6>
    764c:	e4 2d       	mov	r30, r4
    764e:	f5 2d       	mov	r31, r5
    7650:	6b 96       	adiw	r28, 0x1b	; 27
    7652:	4c ad       	ldd	r20, Y+60	; 0x3c
    7654:	5d ad       	ldd	r21, Y+61	; 0x3d
    7656:	6e ad       	ldd	r22, Y+62	; 0x3e
    7658:	7f ad       	ldd	r23, Y+63	; 0x3f
    765a:	6b 97       	sbiw	r28, 0x1b	; 27
    765c:	20 c0       	rjmp	.+64     	; 0x769e <dir_register+0x3bc>
    765e:	20 e1       	ldi	r18, 0x10	; 16
    7660:	30 e0       	ldi	r19, 0x00	; 0
    7662:	2a 01       	movw	r4, r20
    7664:	3b 01       	movw	r6, r22
    7666:	44 0c       	add	r4, r4
    7668:	55 1c       	adc	r5, r5
    766a:	66 1c       	adc	r6, r6
    766c:	77 1c       	adc	r7, r7
    766e:	bc 01       	movw	r22, r24
    7670:	61 70       	andi	r22, 0x01	; 1
    7672:	77 27       	eor	r23, r23
    7674:	53 01       	movw	r10, r6
    7676:	42 01       	movw	r8, r4
    7678:	86 0e       	add	r8, r22
    767a:	97 1e       	adc	r9, r23
    767c:	a1 1c       	adc	r10, r1
    767e:	b1 1c       	adc	r11, r1
    7680:	b5 01       	movw	r22, r10
    7682:	a4 01       	movw	r20, r8
    7684:	96 95       	lsr	r25
    7686:	87 95       	ror	r24
    7688:	a0 fe       	sbrs	r10, 0
    768a:	06 c0       	rjmp	.+12     	; 0x7698 <dir_register+0x3b6>
    768c:	a1 e2       	ldi	r26, 0x21	; 33
    768e:	4a 27       	eor	r20, r26
    7690:	a0 e1       	ldi	r26, 0x10	; 16
    7692:	5a 27       	eor	r21, r26
    7694:	a1 e0       	ldi	r26, 0x01	; 1
    7696:	6a 27       	eor	r22, r26
    7698:	21 50       	subi	r18, 0x01	; 1
    769a:	31 09       	sbc	r19, r1
    769c:	11 f7       	brne	.-60     	; 0x7662 <dir_register+0x380>
    769e:	81 91       	ld	r24, Z+
    76a0:	91 91       	ld	r25, Z+
    76a2:	00 97       	sbiw	r24, 0x00	; 0
    76a4:	e1 f6       	brne	.-72     	; 0x765e <dir_register+0x37c>
    76a6:	01 c0       	rjmp	.+2      	; 0x76aa <dir_register+0x3c8>
    76a8:	a7 01       	movw	r20, r14
    76aa:	6b 96       	adiw	r28, 0x1b	; 27
    76ac:	8c ad       	ldd	r24, Y+60	; 0x3c
    76ae:	9d ad       	ldd	r25, Y+61	; 0x3d
    76b0:	ae ad       	ldd	r26, Y+62	; 0x3e
    76b2:	bf ad       	ldd	r27, Y+63	; 0x3f
    76b4:	6b 97       	sbiw	r28, 0x1b	; 27
    76b6:	01 96       	adiw	r24, 0x01	; 1
    76b8:	a1 1d       	adc	r26, r1
    76ba:	b1 1d       	adc	r27, r1
    76bc:	6b 96       	adiw	r28, 0x1b	; 27
    76be:	8c af       	std	Y+60, r24	; 0x3c
    76c0:	9d af       	std	Y+61, r25	; 0x3d
    76c2:	ae af       	std	Y+62, r26	; 0x3e
    76c4:	bf af       	std	Y+63, r27	; 0x3f
    76c6:	6b 97       	sbiw	r28, 0x1b	; 27
    76c8:	fe 01       	movw	r30, r28
    76ca:	75 96       	adiw	r30, 0x15	; 21
    76cc:	67 e0       	ldi	r22, 0x07	; 7
    76ce:	70 e0       	ldi	r23, 0x00	; 0
    76d0:	01 c0       	rjmp	.+2      	; 0x76d4 <dir_register+0x3f2>
    76d2:	b9 01       	movw	r22, r18
    76d4:	94 2f       	mov	r25, r20
    76d6:	9f 70       	andi	r25, 0x0F	; 15
    76d8:	80 e3       	ldi	r24, 0x30	; 48
    76da:	89 0f       	add	r24, r25
    76dc:	8a 33       	cpi	r24, 0x3A	; 58
    76de:	10 f0       	brcs	.+4      	; 0x76e4 <dir_register+0x402>
    76e0:	87 e3       	ldi	r24, 0x37	; 55
    76e2:	89 0f       	add	r24, r25
    76e4:	9b 01       	movw	r18, r22
    76e6:	21 50       	subi	r18, 0x01	; 1
    76e8:	31 09       	sbc	r19, r1
    76ea:	82 93       	st	-Z, r24
    76ec:	52 95       	swap	r21
    76ee:	42 95       	swap	r20
    76f0:	4f 70       	andi	r20, 0x0F	; 15
    76f2:	45 27       	eor	r20, r21
    76f4:	5f 70       	andi	r21, 0x0F	; 15
    76f6:	45 27       	eor	r20, r21
    76f8:	41 15       	cp	r20, r1
    76fa:	51 05       	cpc	r21, r1
    76fc:	51 f7       	brne	.-44     	; 0x76d2 <dir_register+0x3f0>
    76fe:	ed e0       	ldi	r30, 0x0D	; 13
    7700:	f0 e0       	ldi	r31, 0x00	; 0
    7702:	ec 0f       	add	r30, r28
    7704:	fd 1f       	adc	r31, r29
    7706:	e2 0f       	add	r30, r18
    7708:	f3 1f       	adc	r31, r19
    770a:	9e e7       	ldi	r25, 0x7E	; 126
    770c:	90 83       	st	Z, r25
    770e:	21 15       	cp	r18, r1
    7710:	31 05       	cpc	r19, r1
    7712:	f9 f0       	breq	.+62     	; 0x7752 <dir_register+0x470>
    7714:	d1 01       	movw	r26, r2
    7716:	d4 96       	adiw	r26, 0x34	; 52
    7718:	4c 91       	ld	r20, X
    771a:	40 32       	cpi	r20, 0x20	; 32
    771c:	e9 f0       	breq	.+58     	; 0x7758 <dir_register+0x476>
    771e:	80 e0       	ldi	r24, 0x00	; 0
    7720:	90 e0       	ldi	r25, 0x00	; 0
    7722:	62 50       	subi	r22, 0x02	; 2
    7724:	71 09       	sbc	r23, r1
    7726:	41 38       	cpi	r20, 0x81	; 129
    7728:	48 f0       	brcs	.+18     	; 0x773c <dir_register+0x45a>
    772a:	40 3a       	cpi	r20, 0xA0	; 160
    772c:	08 f4       	brcc	.+2      	; 0x7730 <dir_register+0x44e>
    772e:	41 c1       	rjmp	.+642    	; 0x79b2 <dir_register+0x6d0>
    7730:	40 5e       	subi	r20, 0xE0	; 224
    7732:	4d 31       	cpi	r20, 0x1D	; 29
    7734:	08 f4       	brcc	.+2      	; 0x7738 <dir_register+0x456>
    7736:	3d c1       	rjmp	.+634    	; 0x79b2 <dir_register+0x6d0>
    7738:	01 c0       	rjmp	.+2      	; 0x773c <dir_register+0x45a>
    773a:	01 96       	adiw	r24, 0x01	; 1
    773c:	01 96       	adiw	r24, 0x01	; 1
    773e:	82 17       	cp	r24, r18
    7740:	93 07       	cpc	r25, r19
    7742:	60 f4       	brcc	.+24     	; 0x775c <dir_register+0x47a>
    7744:	f8 01       	movw	r30, r16
    7746:	e8 0f       	add	r30, r24
    7748:	f9 1f       	adc	r31, r25
    774a:	40 81       	ld	r20, Z
    774c:	40 32       	cpi	r20, 0x20	; 32
    774e:	59 f7       	brne	.-42     	; 0x7726 <dir_register+0x444>
    7750:	05 c0       	rjmp	.+10     	; 0x775c <dir_register+0x47a>
    7752:	80 e0       	ldi	r24, 0x00	; 0
    7754:	90 e0       	ldi	r25, 0x00	; 0
    7756:	02 c0       	rjmp	.+4      	; 0x775c <dir_register+0x47a>
    7758:	80 e0       	ldi	r24, 0x00	; 0
    775a:	90 e0       	ldi	r25, 0x00	; 0
    775c:	f8 01       	movw	r30, r16
    775e:	e8 0f       	add	r30, r24
    7760:	f9 1f       	adc	r31, r25
    7762:	01 96       	adiw	r24, 0x01	; 1
    7764:	28 30       	cpi	r18, 0x08	; 8
    7766:	31 05       	cpc	r19, r1
    7768:	50 f4       	brcc	.+20     	; 0x777e <dir_register+0x49c>
    776a:	ad e0       	ldi	r26, 0x0D	; 13
    776c:	b0 e0       	ldi	r27, 0x00	; 0
    776e:	ac 0f       	add	r26, r28
    7770:	bd 1f       	adc	r27, r29
    7772:	a2 0f       	add	r26, r18
    7774:	b3 1f       	adc	r27, r19
    7776:	4c 91       	ld	r20, X
    7778:	2f 5f       	subi	r18, 0xFF	; 255
    777a:	3f 4f       	sbci	r19, 0xFF	; 255
    777c:	01 c0       	rjmp	.+2      	; 0x7780 <dir_register+0x49e>
    777e:	40 e2       	ldi	r20, 0x20	; 32
    7780:	41 93       	st	Z+, r20
    7782:	88 30       	cpi	r24, 0x08	; 8
    7784:	91 05       	cpc	r25, r1
    7786:	68 f3       	brcs	.-38     	; 0x7762 <dir_register+0x480>
    7788:	c1 01       	movw	r24, r2
    778a:	bb db       	rcall	.-2186   	; 0x6f02 <dir_find>
    778c:	81 11       	cpse	r24, r1
    778e:	0a c0       	rjmp	.+20     	; 0x77a4 <dir_register+0x4c2>
    7790:	bf ef       	ldi	r27, 0xFF	; 255
    7792:	eb 1a       	sub	r14, r27
    7794:	fb 0a       	sbc	r15, r27
    7796:	e4 e6       	ldi	r30, 0x64	; 100
    7798:	ee 16       	cp	r14, r30
    779a:	f1 04       	cpc	r15, r1
    779c:	09 f0       	breq	.+2      	; 0x77a0 <dir_register+0x4be>
    779e:	41 cf       	rjmp	.-382    	; 0x7622 <dir_register+0x340>
    77a0:	87 e0       	ldi	r24, 0x07	; 7
    77a2:	2e c1       	rjmp	.+604    	; 0x7a00 <dir_register+0x71e>
    77a4:	f4 e6       	ldi	r31, 0x64	; 100
    77a6:	ef 16       	cp	r14, r31
    77a8:	f1 04       	cpc	r15, r1
    77aa:	09 f4       	brne	.+2      	; 0x77ae <dir_register+0x4cc>
    77ac:	00 c1       	rjmp	.+512    	; 0x79ae <dir_register+0x6cc>
    77ae:	84 30       	cpi	r24, 0x04	; 4
    77b0:	09 f0       	breq	.+2      	; 0x77b4 <dir_register+0x4d2>
    77b2:	26 c1       	rjmp	.+588    	; 0x7a00 <dir_register+0x71e>
    77b4:	8c 85       	ldd	r24, Y+12	; 0x0c
    77b6:	d1 01       	movw	r26, r2
    77b8:	df 96       	adiw	r26, 0x3f	; 63
    77ba:	8c 93       	st	X, r24
    77bc:	8c 85       	ldd	r24, Y+12	; 0x0c
    77be:	81 ff       	sbrs	r24, 1
    77c0:	18 c1       	rjmp	.+560    	; 0x79f2 <dir_register+0x710>
    77c2:	96 01       	movw	r18, r12
    77c4:	24 5f       	subi	r18, 0xF4	; 244
    77c6:	3f 4f       	sbci	r19, 0xFF	; 255
    77c8:	a5 ec       	ldi	r26, 0xC5	; 197
    77ca:	be e4       	ldi	r27, 0x4E	; 78
    77cc:	0e 94 ec 4b 	call	0x97d8	; 0x97d8 <__umulhisi3>
    77d0:	5c 01       	movw	r10, r24
    77d2:	b6 94       	lsr	r11
    77d4:	a7 94       	ror	r10
    77d6:	b6 94       	lsr	r11
    77d8:	a7 94       	ror	r10
    77da:	b5 01       	movw	r22, r10
    77dc:	6f 5f       	subi	r22, 0xFF	; 255
    77de:	7f 4f       	sbci	r23, 0xFF	; 255
    77e0:	c1 01       	movw	r24, r2
    77e2:	0e 94 a7 2f 	call	0x5f4e	; 0x5f4e <dir_alloc>
    77e6:	81 11       	cpse	r24, r1
    77e8:	0b c1       	rjmp	.+534    	; 0x7a00 <dir_register+0x71e>
    77ea:	a1 14       	cp	r10, r1
    77ec:	b1 04       	cpc	r11, r1
    77ee:	09 f4       	brne	.+2      	; 0x77f2 <dir_register+0x510>
    77f0:	f0 c0       	rjmp	.+480    	; 0x79d2 <dir_register+0x6f0>
    77f2:	f1 01       	movw	r30, r2
    77f4:	46 a1       	ldd	r20, Z+38	; 0x26
    77f6:	57 a1       	ldd	r21, Z+39	; 0x27
    77f8:	60 a5       	ldd	r22, Z+40	; 0x28
    77fa:	71 a5       	ldd	r23, Z+41	; 0x29
    77fc:	c5 01       	movw	r24, r10
    77fe:	88 0f       	add	r24, r24
    7800:	99 1f       	adc	r25, r25
    7802:	82 95       	swap	r24
    7804:	92 95       	swap	r25
    7806:	90 7f       	andi	r25, 0xF0	; 240
    7808:	98 27       	eor	r25, r24
    780a:	80 7f       	andi	r24, 0xF0	; 240
    780c:	98 27       	eor	r25, r24
    780e:	48 1b       	sub	r20, r24
    7810:	59 0b       	sbc	r21, r25
    7812:	61 09       	sbc	r22, r1
    7814:	71 09       	sbc	r23, r1
    7816:	c1 01       	movw	r24, r2
    7818:	0e 94 34 2b 	call	0x5668	; 0x5668 <dir_sdi>
    781c:	81 11       	cpse	r24, r1
    781e:	f0 c0       	rjmp	.+480    	; 0x7a00 <dir_register+0x71e>
    7820:	c8 01       	movw	r24, r16
    7822:	0e 94 3a 21 	call	0x4274	; 0x4274 <sum_sfn>
    7826:	48 2e       	mov	r4, r24
    7828:	0f 2e       	mov	r0, r31
    782a:	fd e0       	ldi	r31, 0x0D	; 13
    782c:	df 2e       	mov	r13, r31
    782e:	f0 2d       	mov	r31, r0
    7830:	0f 2e       	mov	r0, r31
    7832:	fe e6       	ldi	r31, 0x6E	; 110
    7834:	ef 2e       	mov	r14, r31
    7836:	f2 e0       	ldi	r31, 0x02	; 2
    7838:	ff 2e       	mov	r15, r31
    783a:	f0 2d       	mov	r31, r0
    783c:	61 2c       	mov	r6, r1
    783e:	71 2c       	mov	r7, r1
    7840:	cc 24       	eor	r12, r12
    7842:	ca 94       	dec	r12
    7844:	99 24       	eor	r9, r9
    7846:	9a 94       	dec	r9
    7848:	88 24       	eor	r8, r8
    784a:	8a 94       	dec	r8
    784c:	55 24       	eor	r5, r5
    784e:	53 94       	inc	r5
    7850:	65 96       	adiw	r28, 0x15	; 21
    7852:	1f af       	std	Y+63, r17	; 0x3f
    7854:	0e af       	std	Y+62, r16	; 0x3e
    7856:	65 97       	sbiw	r28, 0x15	; 21
    7858:	d1 01       	movw	r26, r2
    785a:	9e 96       	adiw	r26, 0x2e	; 46
    785c:	4d 91       	ld	r20, X+
    785e:	5d 91       	ld	r21, X+
    7860:	6d 91       	ld	r22, X+
    7862:	7c 91       	ld	r23, X
    7864:	d1 97       	sbiw	r26, 0x31	; 49
    7866:	63 96       	adiw	r28, 0x13	; 19
    7868:	8e ad       	ldd	r24, Y+62	; 0x3e
    786a:	9f ad       	ldd	r25, Y+63	; 0x3f
    786c:	63 97       	sbiw	r28, 0x13	; 19
    786e:	0e 94 8f 22 	call	0x451e	; 0x451e <move_window>
    7872:	81 11       	cpse	r24, r1
    7874:	c5 c0       	rjmp	.+394    	; 0x7a00 <dir_register+0x71e>
    7876:	1a 2d       	mov	r17, r10
    7878:	f1 01       	movw	r30, r2
    787a:	a2 a9       	ldd	r26, Z+50	; 0x32
    787c:	b3 a9       	ldd	r27, Z+51	; 0x33
    787e:	63 96       	adiw	r28, 0x13	; 19
    7880:	ee ad       	ldd	r30, Y+62	; 0x3e
    7882:	ff ad       	ldd	r31, Y+63	; 0x3f
    7884:	63 97       	sbiw	r28, 0x13	; 19
    7886:	63 85       	ldd	r22, Z+11	; 0x0b
    7888:	74 85       	ldd	r23, Z+12	; 0x0c
    788a:	1d 96       	adiw	r26, 0x0d	; 13
    788c:	4c 92       	st	X, r4
    788e:	1d 97       	sbiw	r26, 0x0d	; 13
    7890:	ff e0       	ldi	r31, 0x0F	; 15
    7892:	1b 96       	adiw	r26, 0x0b	; 11
    7894:	fc 93       	st	X, r31
    7896:	1b 97       	sbiw	r26, 0x0b	; 11
    7898:	1c 96       	adiw	r26, 0x0c	; 12
    789a:	1c 92       	st	X, r1
    789c:	1c 97       	sbiw	r26, 0x0c	; 12
    789e:	5a 96       	adiw	r26, 0x1a	; 26
    78a0:	1c 92       	st	X, r1
    78a2:	5a 97       	sbiw	r26, 0x1a	; 26
    78a4:	5b 96       	adiw	r26, 0x1b	; 27
    78a6:	1c 92       	st	X, r1
    78a8:	5b 97       	sbiw	r26, 0x1b	; 27
    78aa:	c5 01       	movw	r24, r10
    78ac:	99 27       	eor	r25, r25
    78ae:	01 97       	sbiw	r24, 0x01	; 1
    78b0:	d8 9e       	mul	r13, r24
    78b2:	90 01       	movw	r18, r0
    78b4:	d9 9e       	mul	r13, r25
    78b6:	30 0d       	add	r19, r0
    78b8:	11 24       	eor	r1, r1
    78ba:	e1 e6       	ldi	r30, 0x61	; 97
    78bc:	f2 e0       	ldi	r31, 0x02	; 2
    78be:	86 2d       	mov	r24, r6
    78c0:	97 2d       	mov	r25, r7
    78c2:	67 96       	adiw	r28, 0x17	; 23
    78c4:	bf af       	std	Y+63, r27	; 0x3f
    78c6:	ae af       	std	Y+62, r26	; 0x3e
    78c8:	67 97       	sbiw	r28, 0x17	; 23
    78ca:	8f 3f       	cpi	r24, 0xFF	; 255
    78cc:	0f ef       	ldi	r16, 0xFF	; 255
    78ce:	90 07       	cpc	r25, r16
    78d0:	09 f4       	brne	.+2      	; 0x78d4 <dir_register+0x5f2>
    78d2:	74 c0       	rjmp	.+232    	; 0x79bc <dir_register+0x6da>
    78d4:	a9 01       	movw	r20, r18
    78d6:	4f 5f       	subi	r20, 0xFF	; 255
    78d8:	5f 4f       	sbci	r21, 0xFF	; 255
    78da:	22 0f       	add	r18, r18
    78dc:	33 1f       	adc	r19, r19
    78de:	26 0f       	add	r18, r22
    78e0:	37 1f       	adc	r19, r23
    78e2:	d9 01       	movw	r26, r18
    78e4:	8d 91       	ld	r24, X+
    78e6:	9c 91       	ld	r25, X
    78e8:	20 81       	ld	r18, Z
    78ea:	67 96       	adiw	r28, 0x17	; 23
    78ec:	ae ad       	ldd	r26, Y+62	; 0x3e
    78ee:	bf ad       	ldd	r27, Y+63	; 0x3f
    78f0:	67 97       	sbiw	r28, 0x17	; 23
    78f2:	a2 0f       	add	r26, r18
    78f4:	b1 1d       	adc	r27, r1
    78f6:	8c 93       	st	X, r24
    78f8:	11 96       	adiw	r26, 0x01	; 1
    78fa:	9c 93       	st	X, r25
    78fc:	00 97       	sbiw	r24, 0x00	; 0
    78fe:	21 f4       	brne	.+8      	; 0x7908 <dir_register+0x626>
    7900:	9a 01       	movw	r18, r20
    7902:	89 2d       	mov	r24, r9
    7904:	98 2d       	mov	r25, r8
    7906:	01 c0       	rjmp	.+2      	; 0x790a <dir_register+0x628>
    7908:	9a 01       	movw	r18, r20
    790a:	31 96       	adiw	r30, 0x01	; 1
    790c:	ee 15       	cp	r30, r14
    790e:	ff 05       	cpc	r31, r15
    7910:	e1 f6       	brne	.-72     	; 0x78ca <dir_register+0x5e8>
    7912:	67 96       	adiw	r28, 0x17	; 23
    7914:	ae ad       	ldd	r26, Y+62	; 0x3e
    7916:	bf ad       	ldd	r27, Y+63	; 0x3f
    7918:	67 97       	sbiw	r28, 0x17	; 23
    791a:	01 96       	adiw	r24, 0x01	; 1
    791c:	49 f0       	breq	.+18     	; 0x7930 <dir_register+0x64e>
    791e:	22 0f       	add	r18, r18
    7920:	33 1f       	adc	r19, r19
    7922:	fb 01       	movw	r30, r22
    7924:	e2 0f       	add	r30, r18
    7926:	f3 1f       	adc	r31, r19
    7928:	80 81       	ld	r24, Z
    792a:	91 81       	ldd	r25, Z+1	; 0x01
    792c:	89 2b       	or	r24, r25
    792e:	09 f4       	brne	.+2      	; 0x7932 <dir_register+0x650>
    7930:	10 64       	ori	r17, 0x40	; 64
    7932:	1c 93       	st	X, r17
    7934:	63 96       	adiw	r28, 0x13	; 19
    7936:	ae ad       	ldd	r26, Y+62	; 0x3e
    7938:	bf ad       	ldd	r27, Y+63	; 0x3f
    793a:	63 97       	sbiw	r28, 0x13	; 19
    793c:	13 96       	adiw	r26, 0x03	; 3
    793e:	5c 92       	st	X, r5
    7940:	66 2d       	mov	r22, r6
    7942:	77 2d       	mov	r23, r7
    7944:	c1 01       	movw	r24, r2
    7946:	0e 94 96 2d 	call	0x5b2c	; 0x5b2c <dir_next>
    794a:	81 11       	cpse	r24, r1
    794c:	59 c0       	rjmp	.+178    	; 0x7a00 <dir_register+0x71e>
    794e:	b1 e0       	ldi	r27, 0x01	; 1
    7950:	ab 1a       	sub	r10, r27
    7952:	b1 08       	sbc	r11, r1
    7954:	09 f0       	breq	.+2      	; 0x7958 <dir_register+0x676>
    7956:	80 cf       	rjmp	.-256    	; 0x7858 <dir_register+0x576>
    7958:	65 96       	adiw	r28, 0x15	; 21
    795a:	0e ad       	ldd	r16, Y+62	; 0x3e
    795c:	1f ad       	ldd	r17, Y+63	; 0x3f
    795e:	65 97       	sbiw	r28, 0x15	; 21
    7960:	38 c0       	rjmp	.+112    	; 0x79d2 <dir_register+0x6f0>
    7962:	40 e2       	ldi	r20, 0x20	; 32
    7964:	50 e0       	ldi	r21, 0x00	; 0
    7966:	60 e0       	ldi	r22, 0x00	; 0
    7968:	70 e0       	ldi	r23, 0x00	; 0
    796a:	f1 01       	movw	r30, r2
    796c:	82 a9       	ldd	r24, Z+50	; 0x32
    796e:	93 a9       	ldd	r25, Z+51	; 0x33
    7970:	0e 94 fc 20 	call	0x41f8	; 0x41f8 <mem_set>
    7974:	4b e0       	ldi	r20, 0x0B	; 11
    7976:	50 e0       	ldi	r21, 0x00	; 0
    7978:	b8 01       	movw	r22, r16
    797a:	d1 01       	movw	r26, r2
    797c:	d2 96       	adiw	r26, 0x32	; 50
    797e:	8d 91       	ld	r24, X+
    7980:	9c 91       	ld	r25, X
    7982:	d3 97       	sbiw	r26, 0x33	; 51
    7984:	0e 94 ee 20 	call	0x41dc	; 0x41dc <mem_cpy>
    7988:	d1 01       	movw	r26, r2
    798a:	d2 96       	adiw	r26, 0x32	; 50
    798c:	ed 91       	ld	r30, X+
    798e:	fc 91       	ld	r31, X
    7990:	d3 97       	sbiw	r26, 0x33	; 51
    7992:	df 96       	adiw	r26, 0x3f	; 63
    7994:	8c 91       	ld	r24, X
    7996:	88 71       	andi	r24, 0x18	; 24
    7998:	84 87       	std	Z+12, r24	; 0x0c
    799a:	81 e0       	ldi	r24, 0x01	; 1
    799c:	63 96       	adiw	r28, 0x13	; 19
    799e:	ee ad       	ldd	r30, Y+62	; 0x3e
    79a0:	ff ad       	ldd	r31, Y+63	; 0x3f
    79a2:	63 97       	sbiw	r28, 0x13	; 19
    79a4:	83 83       	std	Z+3, r24	; 0x03
    79a6:	8f 2d       	mov	r24, r15
    79a8:	2b c0       	rjmp	.+86     	; 0x7a00 <dir_register+0x71e>
    79aa:	86 e0       	ldi	r24, 0x06	; 6
    79ac:	29 c0       	rjmp	.+82     	; 0x7a00 <dir_register+0x71e>
    79ae:	87 e0       	ldi	r24, 0x07	; 7
    79b0:	27 c0       	rjmp	.+78     	; 0x7a00 <dir_register+0x71e>
    79b2:	68 17       	cp	r22, r24
    79b4:	79 07       	cpc	r23, r25
    79b6:	09 f0       	breq	.+2      	; 0x79ba <dir_register+0x6d8>
    79b8:	c0 ce       	rjmp	.-640    	; 0x773a <dir_register+0x458>
    79ba:	d0 ce       	rjmp	.-608    	; 0x775c <dir_register+0x47a>
    79bc:	40 81       	ld	r20, Z
    79be:	67 96       	adiw	r28, 0x17	; 23
    79c0:	ae ad       	ldd	r26, Y+62	; 0x3e
    79c2:	bf ad       	ldd	r27, Y+63	; 0x3f
    79c4:	67 97       	sbiw	r28, 0x17	; 23
    79c6:	a4 0f       	add	r26, r20
    79c8:	b1 1d       	adc	r27, r1
    79ca:	cc 92       	st	X, r12
    79cc:	11 96       	adiw	r26, 0x01	; 1
    79ce:	cc 92       	st	X, r12
    79d0:	9c cf       	rjmp	.-200    	; 0x790a <dir_register+0x628>
    79d2:	f1 01       	movw	r30, r2
    79d4:	46 a5       	ldd	r20, Z+46	; 0x2e
    79d6:	57 a5       	ldd	r21, Z+47	; 0x2f
    79d8:	60 a9       	ldd	r22, Z+48	; 0x30
    79da:	71 a9       	ldd	r23, Z+49	; 0x31
    79dc:	63 96       	adiw	r28, 0x13	; 19
    79de:	8e ad       	ldd	r24, Y+62	; 0x3e
    79e0:	9f ad       	ldd	r25, Y+63	; 0x3f
    79e2:	63 97       	sbiw	r28, 0x13	; 19
    79e4:	0e 94 8f 22 	call	0x451e	; 0x451e <move_window>
    79e8:	f8 2e       	mov	r15, r24
    79ea:	88 23       	and	r24, r24
    79ec:	09 f4       	brne	.+2      	; 0x79f0 <dir_register+0x70e>
    79ee:	b9 cf       	rjmp	.-142    	; 0x7962 <dir_register+0x680>
    79f0:	07 c0       	rjmp	.+14     	; 0x7a00 <dir_register+0x71e>
    79f2:	61 e0       	ldi	r22, 0x01	; 1
    79f4:	70 e0       	ldi	r23, 0x00	; 0
    79f6:	c1 01       	movw	r24, r2
    79f8:	0e 94 a7 2f 	call	0x5f4e	; 0x5f4e <dir_alloc>
    79fc:	88 23       	and	r24, r24
    79fe:	49 f3       	breq	.-46     	; 0x79d2 <dir_register+0x6f0>
    7a00:	c6 5a       	subi	r28, 0xA6	; 166
    7a02:	df 4f       	sbci	r29, 0xFF	; 255
    7a04:	0f b6       	in	r0, 0x3f	; 63
    7a06:	f8 94       	cli
    7a08:	de bf       	out	0x3e, r29	; 62
    7a0a:	0f be       	out	0x3f, r0	; 63
    7a0c:	cd bf       	out	0x3d, r28	; 61
    7a0e:	df 91       	pop	r29
    7a10:	cf 91       	pop	r28
    7a12:	1f 91       	pop	r17
    7a14:	0f 91       	pop	r16
    7a16:	ff 90       	pop	r15
    7a18:	ef 90       	pop	r14
    7a1a:	df 90       	pop	r13
    7a1c:	cf 90       	pop	r12
    7a1e:	bf 90       	pop	r11
    7a20:	af 90       	pop	r10
    7a22:	9f 90       	pop	r9
    7a24:	8f 90       	pop	r8
    7a26:	7f 90       	pop	r7
    7a28:	6f 90       	pop	r6
    7a2a:	5f 90       	pop	r5
    7a2c:	4f 90       	pop	r4
    7a2e:	3f 90       	pop	r3
    7a30:	2f 90       	pop	r2
    7a32:	08 95       	ret

00007a34 <ld_clust>:
    7a34:	0f 93       	push	r16
    7a36:	1f 93       	push	r17
    7a38:	dc 01       	movw	r26, r24
    7a3a:	fb 01       	movw	r30, r22
    7a3c:	93 8d       	ldd	r25, Z+27	; 0x1b
    7a3e:	69 2f       	mov	r22, r25
    7a40:	70 e0       	ldi	r23, 0x00	; 0
    7a42:	76 2f       	mov	r23, r22
    7a44:	66 27       	eor	r22, r22
    7a46:	82 8d       	ldd	r24, Z+26	; 0x1a
    7a48:	68 2b       	or	r22, r24
    7a4a:	80 e0       	ldi	r24, 0x00	; 0
    7a4c:	90 e0       	ldi	r25, 0x00	; 0
    7a4e:	2c 91       	ld	r18, X
    7a50:	23 30       	cpi	r18, 0x03	; 3
    7a52:	79 f4       	brne	.+30     	; 0x7a72 <ld_clust+0x3e>
    7a54:	05 89       	ldd	r16, Z+21	; 0x15
    7a56:	10 e0       	ldi	r17, 0x00	; 0
    7a58:	10 2f       	mov	r17, r16
    7a5a:	00 27       	eor	r16, r16
    7a5c:	24 89       	ldd	r18, Z+20	; 0x14
    7a5e:	02 2b       	or	r16, r18
    7a60:	20 e0       	ldi	r18, 0x00	; 0
    7a62:	30 e0       	ldi	r19, 0x00	; 0
    7a64:	98 01       	movw	r18, r16
    7a66:	11 27       	eor	r17, r17
    7a68:	00 27       	eor	r16, r16
    7a6a:	60 2b       	or	r22, r16
    7a6c:	71 2b       	or	r23, r17
    7a6e:	82 2b       	or	r24, r18
    7a70:	93 2b       	or	r25, r19
    7a72:	1f 91       	pop	r17
    7a74:	0f 91       	pop	r16
    7a76:	08 95       	ret

00007a78 <follow_path>:
    7a78:	2f 92       	push	r2
    7a7a:	3f 92       	push	r3
    7a7c:	4f 92       	push	r4
    7a7e:	5f 92       	push	r5
    7a80:	6f 92       	push	r6
    7a82:	7f 92       	push	r7
    7a84:	8f 92       	push	r8
    7a86:	9f 92       	push	r9
    7a88:	af 92       	push	r10
    7a8a:	bf 92       	push	r11
    7a8c:	cf 92       	push	r12
    7a8e:	df 92       	push	r13
    7a90:	ef 92       	push	r14
    7a92:	ff 92       	push	r15
    7a94:	0f 93       	push	r16
    7a96:	1f 93       	push	r17
    7a98:	cf 93       	push	r28
    7a9a:	df 93       	push	r29
    7a9c:	cd b7       	in	r28, 0x3d	; 61
    7a9e:	de b7       	in	r29, 0x3e	; 62
    7aa0:	c2 55       	subi	r28, 0x52	; 82
    7aa2:	d1 09       	sbc	r29, r1
    7aa4:	0f b6       	in	r0, 0x3f	; 63
    7aa6:	f8 94       	cli
    7aa8:	de bf       	out	0x3e, r29	; 62
    7aaa:	0f be       	out	0x3f, r0	; 63
    7aac:	cd bf       	out	0x3d, r28	; 61
    7aae:	1c 01       	movw	r2, r24
    7ab0:	2b 01       	movw	r4, r22
    7ab2:	dc 01       	movw	r26, r24
    7ab4:	8d 90       	ld	r8, X+
    7ab6:	9c 90       	ld	r9, X
    7ab8:	fb 01       	movw	r30, r22
    7aba:	80 81       	ld	r24, Z
    7abc:	8f 32       	cpi	r24, 0x2F	; 47
    7abe:	11 f4       	brne	.+4      	; 0x7ac4 <follow_path+0x4c>
    7ac0:	f2 01       	movw	r30, r4
    7ac2:	0d c0       	rjmp	.+26     	; 0x7ade <follow_path+0x66>
    7ac4:	8c 35       	cpi	r24, 0x5C	; 92
    7ac6:	e1 f3       	breq	.-8      	; 0x7ac0 <follow_path+0x48>
    7ac8:	f4 01       	movw	r30, r8
    7aca:	87 89       	ldd	r24, Z+23	; 0x17
    7acc:	90 8d       	ldd	r25, Z+24	; 0x18
    7ace:	a1 8d       	ldd	r26, Z+25	; 0x19
    7ad0:	b2 8d       	ldd	r27, Z+26	; 0x1a
    7ad2:	f1 01       	movw	r30, r2
    7ad4:	86 83       	std	Z+6, r24	; 0x06
    7ad6:	97 83       	std	Z+7, r25	; 0x07
    7ad8:	a0 87       	std	Z+8, r26	; 0x08
    7ada:	b1 87       	std	Z+9, r27	; 0x09
    7adc:	0d c0       	rjmp	.+26     	; 0x7af8 <follow_path+0x80>
    7ade:	2f 01       	movw	r4, r30
    7ae0:	81 91       	ld	r24, Z+
    7ae2:	8f 32       	cpi	r24, 0x2F	; 47
    7ae4:	e1 f3       	breq	.-8      	; 0x7ade <follow_path+0x66>
    7ae6:	8c 35       	cpi	r24, 0x5C	; 92
    7ae8:	d1 f3       	breq	.-12     	; 0x7ade <follow_path+0x66>
    7aea:	d1 01       	movw	r26, r2
    7aec:	16 96       	adiw	r26, 0x06	; 6
    7aee:	1d 92       	st	X+, r1
    7af0:	1d 92       	st	X+, r1
    7af2:	1d 92       	st	X+, r1
    7af4:	1c 92       	st	X, r1
    7af6:	19 97       	sbiw	r26, 0x09	; 9
    7af8:	f1 01       	movw	r30, r2
    7afa:	16 8a       	std	Z+22, r1	; 0x16
    7afc:	17 8a       	std	Z+23, r1	; 0x17
    7afe:	10 8e       	std	Z+24, r1	; 0x18
    7b00:	11 8e       	std	Z+25, r1	; 0x19
    7b02:	d4 01       	movw	r26, r8
    7b04:	8c 91       	ld	r24, X
    7b06:	84 30       	cpi	r24, 0x04	; 4
    7b08:	09 f0       	breq	.+2      	; 0x7b0c <follow_path+0x94>
    7b0a:	4a c0       	rjmp	.+148    	; 0x7ba0 <follow_path+0x128>
    7b0c:	86 81       	ldd	r24, Z+6	; 0x06
    7b0e:	97 81       	ldd	r25, Z+7	; 0x07
    7b10:	a0 85       	ldd	r26, Z+8	; 0x08
    7b12:	b1 85       	ldd	r27, Z+9	; 0x09
    7b14:	89 2b       	or	r24, r25
    7b16:	8a 2b       	or	r24, r26
    7b18:	8b 2b       	or	r24, r27
    7b1a:	09 f4       	brne	.+2      	; 0x7b1e <follow_path+0xa6>
    7b1c:	41 c0       	rjmp	.+130    	; 0x7ba0 <follow_path+0x128>
    7b1e:	f4 01       	movw	r30, r8
    7b20:	83 8d       	ldd	r24, Z+27	; 0x1b
    7b22:	94 8d       	ldd	r25, Z+28	; 0x1c
    7b24:	a5 8d       	ldd	r26, Z+29	; 0x1d
    7b26:	b6 8d       	ldd	r27, Z+30	; 0x1e
    7b28:	f1 01       	movw	r30, r2
    7b2a:	82 8f       	std	Z+26, r24	; 0x1a
    7b2c:	93 8f       	std	Z+27, r25	; 0x1b
    7b2e:	a4 8f       	std	Z+28, r26	; 0x1c
    7b30:	b5 8f       	std	Z+29, r27	; 0x1d
    7b32:	f4 01       	movw	r30, r8
    7b34:	87 8d       	ldd	r24, Z+31	; 0x1f
    7b36:	90 a1       	ldd	r25, Z+32	; 0x20
    7b38:	a1 a1       	ldd	r26, Z+33	; 0x21
    7b3a:	b2 a1       	ldd	r27, Z+34	; 0x22
    7b3c:	f1 01       	movw	r30, r2
    7b3e:	86 8f       	std	Z+30, r24	; 0x1e
    7b40:	97 8f       	std	Z+31, r25	; 0x1f
    7b42:	a0 a3       	std	Z+32, r26	; 0x20
    7b44:	b1 a3       	std	Z+33, r27	; 0x21
    7b46:	f4 01       	movw	r30, r8
    7b48:	83 a1       	ldd	r24, Z+35	; 0x23
    7b4a:	94 a1       	ldd	r25, Z+36	; 0x24
    7b4c:	a5 a1       	ldd	r26, Z+37	; 0x25
    7b4e:	b6 a1       	ldd	r27, Z+38	; 0x26
    7b50:	f1 01       	movw	r30, r2
    7b52:	82 a3       	std	Z+34, r24	; 0x22
    7b54:	93 a3       	std	Z+35, r25	; 0x23
    7b56:	a4 a3       	std	Z+36, r26	; 0x24
    7b58:	b5 a3       	std	Z+37, r27	; 0x25
    7b5a:	b1 01       	movw	r22, r2
    7b5c:	ce 01       	movw	r24, r28
    7b5e:	01 96       	adiw	r24, 0x01	; 1
    7b60:	0e 94 6c 2f 	call	0x5ed8	; 0x5ed8 <load_obj_xdir>
    7b64:	81 11       	cpse	r24, r1
    7b66:	08 c3       	rjmp	.+1552   	; 0x8178 <follow_path+0x700>
    7b68:	d4 01       	movw	r26, r8
    7b6a:	1d 96       	adiw	r26, 0x0d	; 13
    7b6c:	8d 91       	ld	r24, X+
    7b6e:	9c 91       	ld	r25, X
    7b70:	1e 97       	sbiw	r26, 0x0e	; 14
    7b72:	c8 96       	adiw	r24, 0x38	; 56
    7b74:	0e 94 7d 20 	call	0x40fa	; 0x40fa <ld_dword>
    7b78:	8b 01       	movw	r16, r22
    7b7a:	9c 01       	movw	r18, r24
    7b7c:	f1 01       	movw	r30, r2
    7b7e:	02 87       	std	Z+10, r16	; 0x0a
    7b80:	13 87       	std	Z+11, r17	; 0x0b
    7b82:	24 87       	std	Z+12, r18	; 0x0c
    7b84:	35 87       	std	Z+13, r19	; 0x0d
    7b86:	16 86       	std	Z+14, r1	; 0x0e
    7b88:	17 86       	std	Z+15, r1	; 0x0f
    7b8a:	10 8a       	std	Z+16, r1	; 0x10
    7b8c:	11 8a       	std	Z+17, r1	; 0x11
    7b8e:	d4 01       	movw	r26, r8
    7b90:	1d 96       	adiw	r26, 0x0d	; 13
    7b92:	ed 91       	ld	r30, X+
    7b94:	fc 91       	ld	r31, X
    7b96:	1e 97       	sbiw	r26, 0x0e	; 14
    7b98:	81 a1       	ldd	r24, Z+33	; 0x21
    7b9a:	82 70       	andi	r24, 0x02	; 2
    7b9c:	f1 01       	movw	r30, r2
    7b9e:	85 83       	std	Z+5, r24	; 0x05
    7ba0:	d2 01       	movw	r26, r4
    7ba2:	8c 91       	ld	r24, X
    7ba4:	80 32       	cpi	r24, 0x20	; 32
    7ba6:	50 f4       	brcc	.+20     	; 0x7bbc <follow_path+0x144>
    7ba8:	80 e8       	ldi	r24, 0x80	; 128
    7baa:	f1 01       	movw	r30, r2
    7bac:	87 af       	std	Z+63, r24	; 0x3f
    7bae:	40 e0       	ldi	r20, 0x00	; 0
    7bb0:	50 e0       	ldi	r21, 0x00	; 0
    7bb2:	ba 01       	movw	r22, r20
    7bb4:	c1 01       	movw	r24, r2
    7bb6:	0e 94 34 2b 	call	0x5668	; 0x5668 <dir_sdi>
    7bba:	de c2       	rjmp	.+1468   	; 0x8178 <follow_path+0x700>
    7bbc:	91 01       	movw	r18, r2
    7bbe:	2c 5c       	subi	r18, 0xCC	; 204
    7bc0:	3f 4f       	sbci	r19, 0xFF	; 255
    7bc2:	2d 96       	adiw	r28, 0x0d	; 13
    7bc4:	3f af       	std	Y+63, r19	; 0x3f
    7bc6:	2e af       	std	Y+62, r18	; 0x3e
    7bc8:	2d 97       	sbiw	r28, 0x0d	; 13
    7bca:	3b e0       	ldi	r19, 0x0B	; 11
    7bcc:	2e 96       	adiw	r28, 0x0e	; 14
    7bce:	3f af       	std	Y+63, r19	; 0x3f
    7bd0:	2e 97       	sbiw	r28, 0x0e	; 14
    7bd2:	2f 96       	adiw	r28, 0x0f	; 15
    7bd4:	1f ae       	std	Y+63, r1	; 0x3f
    7bd6:	2f 97       	sbiw	r28, 0x0f	; 15
    7bd8:	88 e0       	ldi	r24, 0x08	; 8
    7bda:	60 96       	adiw	r28, 0x10	; 16
    7bdc:	8f af       	std	Y+63, r24	; 0x3f
    7bde:	60 97       	sbiw	r28, 0x10	; 16
    7be0:	61 96       	adiw	r28, 0x11	; 17
    7be2:	1f ae       	std	Y+63, r1	; 0x3f
    7be4:	61 97       	sbiw	r28, 0x11	; 17
    7be6:	d4 01       	movw	r26, r8
    7be8:	a9 5b       	subi	r26, 0xB9	; 185
    7bea:	bf 4f       	sbci	r27, 0xFF	; 255
    7bec:	2b 96       	adiw	r28, 0x0b	; 11
    7bee:	bf af       	std	Y+63, r27	; 0x3f
    7bf0:	ae af       	std	Y+62, r26	; 0x3e
    7bf2:	2b 97       	sbiw	r28, 0x0b	; 11
    7bf4:	f1 01       	movw	r30, r2
    7bf6:	e0 5c       	subi	r30, 0xC0	; 192
    7bf8:	ff 4f       	sbci	r31, 0xFF	; 255
    7bfa:	63 96       	adiw	r28, 0x13	; 19
    7bfc:	ff af       	std	Y+63, r31	; 0x3f
    7bfe:	ee af       	std	Y+62, r30	; 0x3e
    7c00:	63 97       	sbiw	r28, 0x13	; 19
    7c02:	5a 82       	std	Y+2, r5	; 0x02
    7c04:	49 82       	std	Y+1, r4	; 0x01
    7c06:	d1 01       	movw	r26, r2
    7c08:	ed 91       	ld	r30, X+
    7c0a:	fc 91       	ld	r31, X
    7c0c:	63 84       	ldd	r6, Z+11	; 0x0b
    7c0e:	74 84       	ldd	r7, Z+12	; 0x0c
    7c10:	00 e0       	ldi	r16, 0x00	; 0
    7c12:	10 e0       	ldi	r17, 0x00	; 0
    7c14:	ce 01       	movw	r24, r28
    7c16:	01 96       	adiw	r24, 0x01	; 1
    7c18:	0e 94 ff 24 	call	0x49fe	; 0x49fe <tchar2uni>
    7c1c:	6f 3f       	cpi	r22, 0xFF	; 255
    7c1e:	bf ef       	ldi	r27, 0xFF	; 255
    7c20:	7b 07       	cpc	r23, r27
    7c22:	8b 07       	cpc	r24, r27
    7c24:	9b 07       	cpc	r25, r27
    7c26:	09 f4       	brne	.+2      	; 0x7c2a <follow_path+0x1b2>
    7c28:	96 c2       	rjmp	.+1324   	; 0x8156 <follow_path+0x6de>
    7c2a:	61 15       	cp	r22, r1
    7c2c:	71 05       	cpc	r23, r1
    7c2e:	e1 e0       	ldi	r30, 0x01	; 1
    7c30:	8e 07       	cpc	r24, r30
    7c32:	91 05       	cpc	r25, r1
    7c34:	48 f0       	brcs	.+18     	; 0x7c48 <follow_path+0x1d0>
    7c36:	f8 01       	movw	r30, r16
    7c38:	ee 0f       	add	r30, r30
    7c3a:	ff 1f       	adc	r31, r31
    7c3c:	e6 0d       	add	r30, r6
    7c3e:	f7 1d       	adc	r31, r7
    7c40:	91 83       	std	Z+1, r25	; 0x01
    7c42:	80 83       	st	Z, r24
    7c44:	0f 5f       	subi	r16, 0xFF	; 255
    7c46:	1f 4f       	sbci	r17, 0xFF	; 255
    7c48:	ab 01       	movw	r20, r22
    7c4a:	60 32       	cpi	r22, 0x20	; 32
    7c4c:	71 05       	cpc	r23, r1
    7c4e:	58 f1       	brcs	.+86     	; 0x7ca6 <follow_path+0x22e>
    7c50:	6f 32       	cpi	r22, 0x2F	; 47
    7c52:	71 05       	cpc	r23, r1
    7c54:	41 f1       	breq	.+80     	; 0x7ca6 <follow_path+0x22e>
    7c56:	6c 35       	cpi	r22, 0x5C	; 92
    7c58:	71 05       	cpc	r23, r1
    7c5a:	29 f1       	breq	.+74     	; 0x7ca6 <follow_path+0x22e>
    7c5c:	60 38       	cpi	r22, 0x80	; 128
    7c5e:	71 05       	cpc	r23, r1
    7c60:	78 f4       	brcc	.+30     	; 0x7c80 <follow_path+0x208>
    7c62:	9b 01       	movw	r18, r22
    7c64:	62 32       	cpi	r22, 0x22	; 34
    7c66:	71 05       	cpc	r23, r1
    7c68:	09 f4       	brne	.+2      	; 0x7c6c <follow_path+0x1f4>
    7c6a:	ff c1       	rjmp	.+1022   	; 0x806a <follow_path+0x5f2>
    7c6c:	e8 e1       	ldi	r30, 0x18	; 24
    7c6e:	f2 e0       	ldi	r31, 0x02	; 2
    7c70:	41 91       	ld	r20, Z+
    7c72:	44 23       	and	r20, r20
    7c74:	29 f0       	breq	.+10     	; 0x7c80 <follow_path+0x208>
    7c76:	50 e0       	ldi	r21, 0x00	; 0
    7c78:	24 17       	cp	r18, r20
    7c7a:	35 07       	cpc	r19, r21
    7c7c:	c9 f7       	brne	.-14     	; 0x7c70 <follow_path+0x1f8>
    7c7e:	f5 c1       	rjmp	.+1002   	; 0x806a <follow_path+0x5f2>
    7c80:	00 38       	cpi	r16, 0x80	; 128
    7c82:	11 05       	cpc	r17, r1
    7c84:	08 f0       	brcs	.+2      	; 0x7c88 <follow_path+0x210>
    7c86:	67 c2       	rjmp	.+1230   	; 0x8156 <follow_path+0x6de>
    7c88:	f8 01       	movw	r30, r16
    7c8a:	ee 0f       	add	r30, r30
    7c8c:	ff 1f       	adc	r31, r31
    7c8e:	e6 0d       	add	r30, r6
    7c90:	f7 1d       	adc	r31, r7
    7c92:	71 83       	std	Z+1, r23	; 0x01
    7c94:	60 83       	st	Z, r22
    7c96:	0f 5f       	subi	r16, 0xFF	; 255
    7c98:	1f 4f       	sbci	r17, 0xFF	; 255
    7c9a:	bc cf       	rjmp	.-136    	; 0x7c14 <follow_path+0x19c>
    7c9c:	ff ef       	ldi	r31, 0xFF	; 255
    7c9e:	4f 1a       	sub	r4, r31
    7ca0:	5f 0a       	sbc	r5, r31
    7ca2:	5a 82       	std	Y+2, r5	; 0x02
    7ca4:	49 82       	std	Y+1, r4	; 0x01
    7ca6:	49 80       	ldd	r4, Y+1	; 0x01
    7ca8:	5a 80       	ldd	r5, Y+2	; 0x02
    7caa:	d2 01       	movw	r26, r4
    7cac:	8c 91       	ld	r24, X
    7cae:	8f 32       	cpi	r24, 0x2F	; 47
    7cb0:	a9 f3       	breq	.-22     	; 0x7c9c <follow_path+0x224>
    7cb2:	8c 35       	cpi	r24, 0x5C	; 92
    7cb4:	99 f3       	breq	.-26     	; 0x7c9c <follow_path+0x224>
    7cb6:	40 32       	cpi	r20, 0x20	; 32
    7cb8:	51 05       	cpc	r21, r1
    7cba:	20 f0       	brcs	.+8      	; 0x7cc4 <follow_path+0x24c>
    7cbc:	26 96       	adiw	r28, 0x06	; 6
    7cbe:	1f ae       	std	Y+63, r1	; 0x3f
    7cc0:	26 97       	sbiw	r28, 0x06	; 6
    7cc2:	04 c0       	rjmp	.+8      	; 0x7ccc <follow_path+0x254>
    7cc4:	b4 e0       	ldi	r27, 0x04	; 4
    7cc6:	26 96       	adiw	r28, 0x06	; 6
    7cc8:	bf af       	std	Y+63, r27	; 0x3f
    7cca:	26 97       	sbiw	r28, 0x06	; 6
    7ccc:	01 30       	cpi	r16, 0x01	; 1
    7cce:	11 05       	cpc	r17, r1
    7cd0:	31 f4       	brne	.+12     	; 0x7cde <follow_path+0x266>
    7cd2:	f3 01       	movw	r30, r6
    7cd4:	80 81       	ld	r24, Z
    7cd6:	91 81       	ldd	r25, Z+1	; 0x01
    7cd8:	8e 97       	sbiw	r24, 0x2e	; 46
    7cda:	a1 f5       	brne	.+104    	; 0x7d44 <follow_path+0x2cc>
    7cdc:	14 c0       	rjmp	.+40     	; 0x7d06 <follow_path+0x28e>
    7cde:	02 30       	cpi	r16, 0x02	; 2
    7ce0:	11 05       	cpc	r17, r1
    7ce2:	41 f4       	brne	.+16     	; 0x7cf4 <follow_path+0x27c>
    7ce4:	d3 01       	movw	r26, r6
    7ce6:	12 96       	adiw	r26, 0x02	; 2
    7ce8:	8d 91       	ld	r24, X+
    7cea:	9c 91       	ld	r25, X
    7cec:	13 97       	sbiw	r26, 0x03	; 3
    7cee:	8e 97       	sbiw	r24, 0x2e	; 46
    7cf0:	49 f5       	brne	.+82     	; 0x7d44 <follow_path+0x2cc>
    7cf2:	04 c0       	rjmp	.+8      	; 0x7cfc <follow_path+0x284>
    7cf4:	01 15       	cp	r16, r1
    7cf6:	11 05       	cpc	r17, r1
    7cf8:	29 f5       	brne	.+74     	; 0x7d44 <follow_path+0x2cc>
    7cfa:	12 c2       	rjmp	.+1060   	; 0x8120 <follow_path+0x6a8>
    7cfc:	f3 01       	movw	r30, r6
    7cfe:	80 81       	ld	r24, Z
    7d00:	91 81       	ldd	r25, Z+1	; 0x01
    7d02:	8e 97       	sbiw	r24, 0x2e	; 46
    7d04:	f9 f4       	brne	.+62     	; 0x7d44 <follow_path+0x2cc>
    7d06:	c8 01       	movw	r24, r16
    7d08:	88 0f       	add	r24, r24
    7d0a:	99 1f       	adc	r25, r25
    7d0c:	f3 01       	movw	r30, r6
    7d0e:	e8 0f       	add	r30, r24
    7d10:	f9 1f       	adc	r31, r25
    7d12:	11 82       	std	Z+1, r1	; 0x01
    7d14:	10 82       	st	Z, r1
    7d16:	f1 01       	movw	r30, r2
    7d18:	f4 96       	adiw	r30, 0x34	; 52
    7d1a:	80 e0       	ldi	r24, 0x00	; 0
    7d1c:	90 e0       	ldi	r25, 0x00	; 0
    7d1e:	80 17       	cp	r24, r16
    7d20:	91 07       	cpc	r25, r17
    7d22:	10 f0       	brcs	.+4      	; 0x7d28 <follow_path+0x2b0>
    7d24:	20 e2       	ldi	r18, 0x20	; 32
    7d26:	01 c0       	rjmp	.+2      	; 0x7d2a <follow_path+0x2b2>
    7d28:	2e e2       	ldi	r18, 0x2E	; 46
    7d2a:	21 93       	st	Z+, r18
    7d2c:	01 96       	adiw	r24, 0x01	; 1
    7d2e:	8b 30       	cpi	r24, 0x0B	; 11
    7d30:	91 05       	cpc	r25, r1
    7d32:	a9 f7       	brne	.-22     	; 0x7d1e <follow_path+0x2a6>
    7d34:	26 96       	adiw	r28, 0x06	; 6
    7d36:	8f ad       	ldd	r24, Y+63	; 0x3f
    7d38:	26 97       	sbiw	r28, 0x06	; 6
    7d3a:	80 62       	ori	r24, 0x20	; 32
    7d3c:	d1 01       	movw	r26, r2
    7d3e:	df 96       	adiw	r26, 0x3f	; 63
    7d40:	8c 93       	st	X, r24
    7d42:	0b c2       	rjmp	.+1046   	; 0x815a <follow_path+0x6e2>
    7d44:	f8 01       	movw	r30, r16
    7d46:	ee 0f       	add	r30, r30
    7d48:	ff 1f       	adc	r31, r31
    7d4a:	e6 0d       	add	r30, r6
    7d4c:	f7 1d       	adc	r31, r7
    7d4e:	92 91       	ld	r25, -Z
    7d50:	82 91       	ld	r24, -Z
    7d52:	80 32       	cpi	r24, 0x20	; 32
    7d54:	91 05       	cpc	r25, r1
    7d56:	11 f0       	breq	.+4      	; 0x7d5c <follow_path+0x2e4>
    7d58:	8e 97       	sbiw	r24, 0x2e	; 46
    7d5a:	21 f4       	brne	.+8      	; 0x7d64 <follow_path+0x2ec>
    7d5c:	01 50       	subi	r16, 0x01	; 1
    7d5e:	11 09       	sbc	r17, r1
    7d60:	b1 f7       	brne	.-20     	; 0x7d4e <follow_path+0x2d6>
    7d62:	de c1       	rjmp	.+956    	; 0x8120 <follow_path+0x6a8>
    7d64:	c8 01       	movw	r24, r16
    7d66:	88 0f       	add	r24, r24
    7d68:	99 1f       	adc	r25, r25
    7d6a:	f3 01       	movw	r30, r6
    7d6c:	e8 0f       	add	r30, r24
    7d6e:	f9 1f       	adc	r31, r25
    7d70:	11 82       	std	Z+1, r1	; 0x01
    7d72:	10 82       	st	Z, r1
    7d74:	01 15       	cp	r16, r1
    7d76:	11 05       	cpc	r17, r1
    7d78:	09 f4       	brne	.+2      	; 0x7d7c <follow_path+0x304>
    7d7a:	ed c1       	rjmp	.+986    	; 0x8156 <follow_path+0x6de>
    7d7c:	f3 01       	movw	r30, r6
    7d7e:	20 81       	ld	r18, Z
    7d80:	31 81       	ldd	r19, Z+1	; 0x01
    7d82:	20 32       	cpi	r18, 0x20	; 32
    7d84:	31 05       	cpc	r19, r1
    7d86:	79 f4       	brne	.+30     	; 0x7da6 <follow_path+0x32e>
    7d88:	32 96       	adiw	r30, 0x02	; 2
    7d8a:	e1 2c       	mov	r14, r1
    7d8c:	f1 2c       	mov	r15, r1
    7d8e:	2f ef       	ldi	r18, 0xFF	; 255
    7d90:	e2 1a       	sub	r14, r18
    7d92:	f2 0a       	sbc	r15, r18
    7d94:	21 91       	ld	r18, Z+
    7d96:	31 91       	ld	r19, Z+
    7d98:	20 32       	cpi	r18, 0x20	; 32
    7d9a:	31 05       	cpc	r19, r1
    7d9c:	c1 f3       	breq	.-16     	; 0x7d8e <follow_path+0x316>
    7d9e:	e1 14       	cp	r14, r1
    7da0:	f1 04       	cpc	r15, r1
    7da2:	39 f4       	brne	.+14     	; 0x7db2 <follow_path+0x33a>
    7da4:	02 c0       	rjmp	.+4      	; 0x7daa <follow_path+0x332>
    7da6:	e1 2c       	mov	r14, r1
    7da8:	f1 2c       	mov	r15, r1
    7daa:	2e 32       	cpi	r18, 0x2E	; 46
    7dac:	31 05       	cpc	r19, r1
    7dae:	09 f0       	breq	.+2      	; 0x7db2 <follow_path+0x33a>
    7db0:	bb c1       	rjmp	.+886    	; 0x8128 <follow_path+0x6b0>
    7db2:	26 96       	adiw	r28, 0x06	; 6
    7db4:	3f ad       	ldd	r19, Y+63	; 0x3f
    7db6:	26 97       	sbiw	r28, 0x06	; 6
    7db8:	33 60       	ori	r19, 0x03	; 3
    7dba:	26 96       	adiw	r28, 0x06	; 6
    7dbc:	3f af       	std	Y+63, r19	; 0x3f
    7dbe:	26 97       	sbiw	r28, 0x06	; 6
    7dc0:	b3 c1       	rjmp	.+870    	; 0x8128 <follow_path+0x6b0>
    7dc2:	01 50       	subi	r16, 0x01	; 1
    7dc4:	11 09       	sbc	r17, r1
    7dc6:	21 f0       	breq	.+8      	; 0x7dd0 <follow_path+0x358>
    7dc8:	92 91       	ld	r25, -Z
    7dca:	82 91       	ld	r24, -Z
    7dcc:	8e 97       	sbiw	r24, 0x2e	; 46
    7dce:	c9 f7       	brne	.-14     	; 0x7dc2 <follow_path+0x34a>
    7dd0:	4b e0       	ldi	r20, 0x0B	; 11
    7dd2:	50 e0       	ldi	r21, 0x00	; 0
    7dd4:	60 e2       	ldi	r22, 0x20	; 32
    7dd6:	70 e0       	ldi	r23, 0x00	; 0
    7dd8:	2d 96       	adiw	r28, 0x0d	; 13
    7dda:	8e ad       	ldd	r24, Y+62	; 0x3e
    7ddc:	9f ad       	ldd	r25, Y+63	; 0x3f
    7dde:	2d 97       	sbiw	r28, 0x0d	; 13
    7de0:	0e 94 fc 20 	call	0x41f8	; 0x41f8 <mem_set>
    7de4:	68 94       	set
    7de6:	aa 24       	eor	r10, r10
    7de8:	a3 f8       	bld	r10, 3
    7dea:	b1 2c       	mov	r11, r1
    7dec:	27 96       	adiw	r28, 0x07	; 7
    7dee:	1f ae       	std	Y+63, r1	; 0x3f
    7df0:	27 97       	sbiw	r28, 0x07	; 7
    7df2:	28 96       	adiw	r28, 0x08	; 8
    7df4:	1f ae       	std	Y+63, r1	; 0x3f
    7df6:	28 97       	sbiw	r28, 0x08	; 8
    7df8:	29 96       	adiw	r28, 0x09	; 9
    7dfa:	1f ae       	std	Y+63, r1	; 0x3f
    7dfc:	29 97       	sbiw	r28, 0x09	; 9
    7dfe:	67 01       	movw	r12, r14
    7e00:	8f ef       	ldi	r24, 0xFF	; 255
    7e02:	c8 1a       	sub	r12, r24
    7e04:	d8 0a       	sbc	r13, r24
    7e06:	f7 01       	movw	r30, r14
    7e08:	ee 0f       	add	r30, r30
    7e0a:	ff 1f       	adc	r31, r31
    7e0c:	e6 0d       	add	r30, r6
    7e0e:	f7 1d       	adc	r31, r7
    7e10:	60 81       	ld	r22, Z
    7e12:	71 81       	ldd	r23, Z+1	; 0x01
    7e14:	61 15       	cp	r22, r1
    7e16:	71 05       	cpc	r23, r1
    7e18:	09 f4       	brne	.+2      	; 0x7e1c <follow_path+0x3a4>
    7e1a:	da c0       	rjmp	.+436    	; 0x7fd0 <follow_path+0x558>
    7e1c:	60 32       	cpi	r22, 0x20	; 32
    7e1e:	71 05       	cpc	r23, r1
    7e20:	31 f0       	breq	.+12     	; 0x7e2e <follow_path+0x3b6>
    7e22:	6e 32       	cpi	r22, 0x2E	; 46
    7e24:	71 05       	cpc	r23, r1
    7e26:	61 f4       	brne	.+24     	; 0x7e40 <follow_path+0x3c8>
    7e28:	c0 16       	cp	r12, r16
    7e2a:	d1 06       	cpc	r13, r17
    7e2c:	49 f0       	breq	.+18     	; 0x7e40 <follow_path+0x3c8>
    7e2e:	26 96       	adiw	r28, 0x06	; 6
    7e30:	9f ad       	ldd	r25, Y+63	; 0x3f
    7e32:	26 97       	sbiw	r28, 0x06	; 6
    7e34:	93 60       	ori	r25, 0x03	; 3
    7e36:	26 96       	adiw	r28, 0x06	; 6
    7e38:	9f af       	std	Y+63, r25	; 0x3f
    7e3a:	26 97       	sbiw	r28, 0x06	; 6
    7e3c:	76 01       	movw	r14, r12
    7e3e:	df cf       	rjmp	.-66     	; 0x7dfe <follow_path+0x386>
    7e40:	28 96       	adiw	r28, 0x08	; 8
    7e42:	ae ad       	ldd	r26, Y+62	; 0x3e
    7e44:	bf ad       	ldd	r27, Y+63	; 0x3f
    7e46:	28 97       	sbiw	r28, 0x08	; 8
    7e48:	aa 15       	cp	r26, r10
    7e4a:	bb 05       	cpc	r27, r11
    7e4c:	20 f4       	brcc	.+8      	; 0x7e56 <follow_path+0x3de>
    7e4e:	c0 16       	cp	r12, r16
    7e50:	d1 06       	cpc	r13, r17
    7e52:	e9 f5       	brne	.+122    	; 0x7ece <follow_path+0x456>
    7e54:	8b c1       	rjmp	.+790    	; 0x816c <follow_path+0x6f4>
    7e56:	bb e0       	ldi	r27, 0x0B	; 11
    7e58:	ab 16       	cp	r10, r27
    7e5a:	b1 04       	cpc	r11, r1
    7e5c:	71 f4       	brne	.+28     	; 0x7e7a <follow_path+0x402>
    7e5e:	26 96       	adiw	r28, 0x06	; 6
    7e60:	ef ad       	ldd	r30, Y+63	; 0x3f
    7e62:	26 97       	sbiw	r28, 0x06	; 6
    7e64:	e3 60       	ori	r30, 0x03	; 3
    7e66:	26 96       	adiw	r28, 0x06	; 6
    7e68:	ef af       	std	Y+63, r30	; 0x3f
    7e6a:	26 97       	sbiw	r28, 0x06	; 6
    7e6c:	d1 01       	movw	r26, r2
    7e6e:	d4 96       	adiw	r26, 0x34	; 52
    7e70:	8c 91       	ld	r24, X
    7e72:	85 3e       	cpi	r24, 0xE5	; 229
    7e74:	09 f0       	breq	.+2      	; 0x7e78 <follow_path+0x400>
    7e76:	c6 c0       	rjmp	.+396    	; 0x8004 <follow_path+0x58c>
    7e78:	b0 c0       	rjmp	.+352    	; 0x7fda <follow_path+0x562>
    7e7a:	c0 16       	cp	r12, r16
    7e7c:	d1 06       	cpc	r13, r17
    7e7e:	59 f0       	breq	.+22     	; 0x7e96 <follow_path+0x41e>
    7e80:	26 96       	adiw	r28, 0x06	; 6
    7e82:	bf ad       	ldd	r27, Y+63	; 0x3f
    7e84:	26 97       	sbiw	r28, 0x06	; 6
    7e86:	b3 60       	ori	r27, 0x03	; 3
    7e88:	26 96       	adiw	r28, 0x06	; 6
    7e8a:	bf af       	std	Y+63, r27	; 0x3f
    7e8c:	26 97       	sbiw	r28, 0x06	; 6
    7e8e:	0c 15       	cp	r16, r12
    7e90:	1d 05       	cpc	r17, r13
    7e92:	08 f4       	brcc	.+2      	; 0x7e96 <follow_path+0x41e>
    7e94:	9d c0       	rjmp	.+314    	; 0x7fd0 <follow_path+0x558>
    7e96:	29 96       	adiw	r28, 0x09	; 9
    7e98:	ef ad       	ldd	r30, Y+63	; 0x3f
    7e9a:	29 97       	sbiw	r28, 0x09	; 9
    7e9c:	ee 0f       	add	r30, r30
    7e9e:	ee 0f       	add	r30, r30
    7ea0:	29 96       	adiw	r28, 0x09	; 9
    7ea2:	ef af       	std	Y+63, r30	; 0x3f
    7ea4:	29 97       	sbiw	r28, 0x09	; 9
    7ea6:	78 01       	movw	r14, r16
    7ea8:	2e 96       	adiw	r28, 0x0e	; 14
    7eaa:	af ac       	ldd	r10, Y+63	; 0x3f
    7eac:	2e 97       	sbiw	r28, 0x0e	; 14
    7eae:	2f 96       	adiw	r28, 0x0f	; 15
    7eb0:	bf ac       	ldd	r11, Y+63	; 0x3f
    7eb2:	2f 97       	sbiw	r28, 0x0f	; 15
    7eb4:	60 96       	adiw	r28, 0x10	; 16
    7eb6:	ff ad       	ldd	r31, Y+63	; 0x3f
    7eb8:	60 97       	sbiw	r28, 0x10	; 16
    7eba:	27 96       	adiw	r28, 0x07	; 7
    7ebc:	ff af       	std	Y+63, r31	; 0x3f
    7ebe:	27 97       	sbiw	r28, 0x07	; 7
    7ec0:	61 96       	adiw	r28, 0x11	; 17
    7ec2:	2f ad       	ldd	r18, Y+63	; 0x3f
    7ec4:	61 97       	sbiw	r28, 0x11	; 17
    7ec6:	28 96       	adiw	r28, 0x08	; 8
    7ec8:	2f af       	std	Y+63, r18	; 0x3f
    7eca:	28 97       	sbiw	r28, 0x08	; 8
    7ecc:	98 cf       	rjmp	.-208    	; 0x7dfe <follow_path+0x386>
    7ece:	60 38       	cpi	r22, 0x80	; 128
    7ed0:	71 05       	cpc	r23, r1
    7ed2:	08 f4       	brcc	.+2      	; 0x7ed6 <follow_path+0x45e>
    7ed4:	33 c1       	rjmp	.+614    	; 0x813c <follow_path+0x6c4>
    7ed6:	26 96       	adiw	r28, 0x06	; 6
    7ed8:	3f ad       	ldd	r19, Y+63	; 0x3f
    7eda:	26 97       	sbiw	r28, 0x06	; 6
    7edc:	32 60       	ori	r19, 0x02	; 2
    7ede:	26 96       	adiw	r28, 0x06	; 6
    7ee0:	3f af       	std	Y+63, r19	; 0x3f
    7ee2:	26 97       	sbiw	r28, 0x06	; 6
    7ee4:	80 e0       	ldi	r24, 0x00	; 0
    7ee6:	90 e0       	ldi	r25, 0x00	; 0
    7ee8:	13 d7       	rcall	.+3622   	; 0x8d10 <ff_wtoupper>
    7eea:	44 ea       	ldi	r20, 0xA4	; 164
    7eec:	53 e0       	ldi	r21, 0x03	; 3
    7eee:	97 d6       	rcall	.+3374   	; 0x8c1e <ff_uni2oem>
    7ef0:	bc 01       	movw	r22, r24
    7ef2:	8f 3f       	cpi	r24, 0xFF	; 255
    7ef4:	91 05       	cpc	r25, r1
    7ef6:	21 f1       	breq	.+72     	; 0x7f40 <follow_path+0x4c8>
    7ef8:	18 f1       	brcs	.+70     	; 0x7f40 <follow_path+0x4c8>
    7efa:	c5 01       	movw	r24, r10
    7efc:	01 97       	sbiw	r24, 0x01	; 1
    7efe:	28 96       	adiw	r28, 0x08	; 8
    7f00:	ae ad       	ldd	r26, Y+62	; 0x3e
    7f02:	bf ad       	ldd	r27, Y+63	; 0x3f
    7f04:	28 97       	sbiw	r28, 0x08	; 8
    7f06:	a8 17       	cp	r26, r24
    7f08:	b9 07       	cpc	r27, r25
    7f0a:	68 f0       	brcs	.+26     	; 0x7f26 <follow_path+0x4ae>
    7f0c:	26 96       	adiw	r28, 0x06	; 6
    7f0e:	bf ad       	ldd	r27, Y+63	; 0x3f
    7f10:	26 97       	sbiw	r28, 0x06	; 6
    7f12:	b3 60       	ori	r27, 0x03	; 3
    7f14:	26 96       	adiw	r28, 0x06	; 6
    7f16:	bf af       	std	Y+63, r27	; 0x3f
    7f18:	26 97       	sbiw	r28, 0x06	; 6
    7f1a:	76 01       	movw	r14, r12
    7f1c:	28 96       	adiw	r28, 0x08	; 8
    7f1e:	bf ae       	std	Y+63, r11	; 0x3f
    7f20:	ae ae       	std	Y+62, r10	; 0x3e
    7f22:	28 97       	sbiw	r28, 0x08	; 8
    7f24:	6c cf       	rjmp	.-296    	; 0x7dfe <follow_path+0x386>
    7f26:	28 96       	adiw	r28, 0x08	; 8
    7f28:	8e ad       	ldd	r24, Y+62	; 0x3e
    7f2a:	9f ad       	ldd	r25, Y+63	; 0x3f
    7f2c:	28 97       	sbiw	r28, 0x08	; 8
    7f2e:	01 96       	adiw	r24, 0x01	; 1
    7f30:	28 96       	adiw	r28, 0x08	; 8
    7f32:	ee ad       	ldd	r30, Y+62	; 0x3e
    7f34:	ff ad       	ldd	r31, Y+63	; 0x3f
    7f36:	28 97       	sbiw	r28, 0x08	; 8
    7f38:	e2 0d       	add	r30, r2
    7f3a:	f3 1d       	adc	r31, r3
    7f3c:	74 ab       	std	Z+52, r23	; 0x34
    7f3e:	3c c0       	rjmp	.+120    	; 0x7fb8 <follow_path+0x540>
    7f40:	89 2b       	or	r24, r25
    7f42:	71 f0       	breq	.+28     	; 0x7f60 <follow_path+0x4e8>
    7f44:	9b 01       	movw	r18, r22
    7f46:	6b 32       	cpi	r22, 0x2B	; 43
    7f48:	71 05       	cpc	r23, r1
    7f4a:	51 f0       	breq	.+20     	; 0x7f60 <follow_path+0x4e8>
    7f4c:	e1 e2       	ldi	r30, 0x21	; 33
    7f4e:	f2 e0       	ldi	r31, 0x02	; 2
    7f50:	81 91       	ld	r24, Z+
    7f52:	88 23       	and	r24, r24
    7f54:	09 f4       	brne	.+2      	; 0x7f58 <follow_path+0x4e0>
    7f56:	f8 c0       	rjmp	.+496    	; 0x8148 <follow_path+0x6d0>
    7f58:	90 e0       	ldi	r25, 0x00	; 0
    7f5a:	28 17       	cp	r18, r24
    7f5c:	39 07       	cpc	r19, r25
    7f5e:	c1 f7       	brne	.-16     	; 0x7f50 <follow_path+0x4d8>
    7f60:	26 96       	adiw	r28, 0x06	; 6
    7f62:	ef ad       	ldd	r30, Y+63	; 0x3f
    7f64:	26 97       	sbiw	r28, 0x06	; 6
    7f66:	e3 60       	ori	r30, 0x03	; 3
    7f68:	26 96       	adiw	r28, 0x06	; 6
    7f6a:	ef af       	std	Y+63, r30	; 0x3f
    7f6c:	26 97       	sbiw	r28, 0x06	; 6
    7f6e:	28 96       	adiw	r28, 0x08	; 8
    7f70:	8e ad       	ldd	r24, Y+62	; 0x3e
    7f72:	9f ad       	ldd	r25, Y+63	; 0x3f
    7f74:	28 97       	sbiw	r28, 0x08	; 8
    7f76:	6f e5       	ldi	r22, 0x5F	; 95
    7f78:	70 e0       	ldi	r23, 0x00	; 0
    7f7a:	1e c0       	rjmp	.+60     	; 0x7fb8 <follow_path+0x540>
    7f7c:	29 96       	adiw	r28, 0x09	; 9
    7f7e:	ff ad       	ldd	r31, Y+63	; 0x3f
    7f80:	29 97       	sbiw	r28, 0x09	; 9
    7f82:	f2 60       	ori	r31, 0x02	; 2
    7f84:	29 96       	adiw	r28, 0x09	; 9
    7f86:	ff af       	std	Y+63, r31	; 0x3f
    7f88:	29 97       	sbiw	r28, 0x09	; 9
    7f8a:	cb 01       	movw	r24, r22
    7f8c:	81 56       	subi	r24, 0x61	; 97
    7f8e:	91 09       	sbc	r25, r1
    7f90:	4a 97       	sbiw	r24, 0x1a	; 26
    7f92:	70 f4       	brcc	.+28     	; 0x7fb0 <follow_path+0x538>
    7f94:	29 96       	adiw	r28, 0x09	; 9
    7f96:	2f ad       	ldd	r18, Y+63	; 0x3f
    7f98:	29 97       	sbiw	r28, 0x09	; 9
    7f9a:	21 60       	ori	r18, 0x01	; 1
    7f9c:	29 96       	adiw	r28, 0x09	; 9
    7f9e:	2f af       	std	Y+63, r18	; 0x3f
    7fa0:	29 97       	sbiw	r28, 0x09	; 9
    7fa2:	60 52       	subi	r22, 0x20	; 32
    7fa4:	71 09       	sbc	r23, r1
    7fa6:	28 96       	adiw	r28, 0x08	; 8
    7fa8:	8e ad       	ldd	r24, Y+62	; 0x3e
    7faa:	9f ad       	ldd	r25, Y+63	; 0x3f
    7fac:	28 97       	sbiw	r28, 0x08	; 8
    7fae:	04 c0       	rjmp	.+8      	; 0x7fb8 <follow_path+0x540>
    7fb0:	28 96       	adiw	r28, 0x08	; 8
    7fb2:	8e ad       	ldd	r24, Y+62	; 0x3e
    7fb4:	9f ad       	ldd	r25, Y+63	; 0x3f
    7fb6:	28 97       	sbiw	r28, 0x08	; 8
    7fb8:	dc 01       	movw	r26, r24
    7fba:	11 96       	adiw	r26, 0x01	; 1
    7fbc:	28 96       	adiw	r28, 0x08	; 8
    7fbe:	bf af       	std	Y+63, r27	; 0x3f
    7fc0:	ae af       	std	Y+62, r26	; 0x3e
    7fc2:	28 97       	sbiw	r28, 0x08	; 8
    7fc4:	f1 01       	movw	r30, r2
    7fc6:	e8 0f       	add	r30, r24
    7fc8:	f9 1f       	adc	r31, r25
    7fca:	64 ab       	std	Z+52, r22	; 0x34
    7fcc:	76 01       	movw	r14, r12
    7fce:	17 cf       	rjmp	.-466    	; 0x7dfe <follow_path+0x386>
    7fd0:	f1 01       	movw	r30, r2
    7fd2:	84 a9       	ldd	r24, Z+52	; 0x34
    7fd4:	85 3e       	cpi	r24, 0xE5	; 229
    7fd6:	51 f4       	brne	.+20     	; 0x7fec <follow_path+0x574>
    7fd8:	05 c0       	rjmp	.+10     	; 0x7fe4 <follow_path+0x56c>
    7fda:	0f 2e       	mov	r0, r31
    7fdc:	fb e0       	ldi	r31, 0x0B	; 11
    7fde:	af 2e       	mov	r10, r31
    7fe0:	f0 2d       	mov	r31, r0
    7fe2:	b1 2c       	mov	r11, r1
    7fe4:	e5 e0       	ldi	r30, 0x05	; 5
    7fe6:	d1 01       	movw	r26, r2
    7fe8:	d4 96       	adiw	r26, 0x34	; 52
    7fea:	ec 93       	st	X, r30
    7fec:	f8 e0       	ldi	r31, 0x08	; 8
    7fee:	af 16       	cp	r10, r31
    7ff0:	b1 04       	cpc	r11, r1
    7ff2:	41 f4       	brne	.+16     	; 0x8004 <follow_path+0x58c>
    7ff4:	29 96       	adiw	r28, 0x09	; 9
    7ff6:	2f ad       	ldd	r18, Y+63	; 0x3f
    7ff8:	29 97       	sbiw	r28, 0x09	; 9
    7ffa:	22 0f       	add	r18, r18
    7ffc:	22 0f       	add	r18, r18
    7ffe:	29 96       	adiw	r28, 0x09	; 9
    8000:	2f af       	std	Y+63, r18	; 0x3f
    8002:	29 97       	sbiw	r28, 0x09	; 9
    8004:	29 96       	adiw	r28, 0x09	; 9
    8006:	8f ad       	ldd	r24, Y+63	; 0x3f
    8008:	29 97       	sbiw	r28, 0x09	; 9
    800a:	8c 70       	andi	r24, 0x0C	; 12
    800c:	8c 30       	cpi	r24, 0x0C	; 12
    800e:	31 f0       	breq	.+12     	; 0x801c <follow_path+0x5a4>
    8010:	29 96       	adiw	r28, 0x09	; 9
    8012:	8f ad       	ldd	r24, Y+63	; 0x3f
    8014:	29 97       	sbiw	r28, 0x09	; 9
    8016:	83 70       	andi	r24, 0x03	; 3
    8018:	83 30       	cpi	r24, 0x03	; 3
    801a:	39 f4       	brne	.+14     	; 0x802a <follow_path+0x5b2>
    801c:	26 96       	adiw	r28, 0x06	; 6
    801e:	3f ad       	ldd	r19, Y+63	; 0x3f
    8020:	26 97       	sbiw	r28, 0x06	; 6
    8022:	32 60       	ori	r19, 0x02	; 2
    8024:	26 96       	adiw	r28, 0x06	; 6
    8026:	3f af       	std	Y+63, r19	; 0x3f
    8028:	26 97       	sbiw	r28, 0x06	; 6
    802a:	26 96       	adiw	r28, 0x06	; 6
    802c:	8f ad       	ldd	r24, Y+63	; 0x3f
    802e:	26 97       	sbiw	r28, 0x06	; 6
    8030:	81 fd       	sbrc	r24, 1
    8032:	15 c0       	rjmp	.+42     	; 0x805e <follow_path+0x5e6>
    8034:	29 96       	adiw	r28, 0x09	; 9
    8036:	9f ad       	ldd	r25, Y+63	; 0x3f
    8038:	29 97       	sbiw	r28, 0x09	; 9
    803a:	90 ff       	sbrs	r25, 0
    803c:	04 c0       	rjmp	.+8      	; 0x8046 <follow_path+0x5ce>
    803e:	80 61       	ori	r24, 0x10	; 16
    8040:	26 96       	adiw	r28, 0x06	; 6
    8042:	8f af       	std	Y+63, r24	; 0x3f
    8044:	26 97       	sbiw	r28, 0x06	; 6
    8046:	29 96       	adiw	r28, 0x09	; 9
    8048:	af ad       	ldd	r26, Y+63	; 0x3f
    804a:	29 97       	sbiw	r28, 0x09	; 9
    804c:	a2 ff       	sbrs	r26, 2
    804e:	07 c0       	rjmp	.+14     	; 0x805e <follow_path+0x5e6>
    8050:	26 96       	adiw	r28, 0x06	; 6
    8052:	bf ad       	ldd	r27, Y+63	; 0x3f
    8054:	26 97       	sbiw	r28, 0x06	; 6
    8056:	b8 60       	ori	r27, 0x08	; 8
    8058:	26 96       	adiw	r28, 0x06	; 6
    805a:	bf af       	std	Y+63, r27	; 0x3f
    805c:	26 97       	sbiw	r28, 0x06	; 6
    805e:	26 96       	adiw	r28, 0x06	; 6
    8060:	2f ad       	ldd	r18, Y+63	; 0x3f
    8062:	26 97       	sbiw	r28, 0x06	; 6
    8064:	f1 01       	movw	r30, r2
    8066:	27 af       	std	Z+63, r18	; 0x3f
    8068:	78 c0       	rjmp	.+240    	; 0x815a <follow_path+0x6e2>
    806a:	86 e0       	ldi	r24, 0x06	; 6
    806c:	85 c0       	rjmp	.+266    	; 0x8178 <follow_path+0x700>
    806e:	84 30       	cpi	r24, 0x04	; 4
    8070:	09 f0       	breq	.+2      	; 0x8074 <follow_path+0x5fc>
    8072:	82 c0       	rjmp	.+260    	; 0x8178 <follow_path+0x700>
    8074:	95 ff       	sbrs	r25, 5
    8076:	08 c0       	rjmp	.+16     	; 0x8088 <follow_path+0x610>
    8078:	92 ff       	sbrs	r25, 2
    807a:	c3 cd       	rjmp	.-1146   	; 0x7c02 <follow_path+0x18a>
    807c:	80 e8       	ldi	r24, 0x80	; 128
    807e:	d1 01       	movw	r26, r2
    8080:	df 96       	adiw	r26, 0x3f	; 63
    8082:	8c 93       	st	X, r24
    8084:	80 e0       	ldi	r24, 0x00	; 0
    8086:	78 c0       	rjmp	.+240    	; 0x8178 <follow_path+0x700>
    8088:	92 fd       	sbrc	r25, 2
    808a:	44 c0       	rjmp	.+136    	; 0x8114 <follow_path+0x69c>
    808c:	85 e0       	ldi	r24, 0x05	; 5
    808e:	74 c0       	rjmp	.+232    	; 0x8178 <follow_path+0x700>
    8090:	92 fd       	sbrc	r25, 2
    8092:	42 c0       	rjmp	.+132    	; 0x8118 <follow_path+0x6a0>
    8094:	f1 01       	movw	r30, r2
    8096:	84 81       	ldd	r24, Z+4	; 0x04
    8098:	84 ff       	sbrs	r24, 4
    809a:	40 c0       	rjmp	.+128    	; 0x811c <follow_path+0x6a4>
    809c:	d4 01       	movw	r26, r8
    809e:	8c 91       	ld	r24, X
    80a0:	84 30       	cpi	r24, 0x04	; 4
    80a2:	29 f5       	brne	.+74     	; 0x80ee <follow_path+0x676>
    80a4:	86 81       	ldd	r24, Z+6	; 0x06
    80a6:	97 81       	ldd	r25, Z+7	; 0x07
    80a8:	a0 85       	ldd	r26, Z+8	; 0x08
    80aa:	b1 85       	ldd	r27, Z+9	; 0x09
    80ac:	82 8f       	std	Z+26, r24	; 0x1a
    80ae:	93 8f       	std	Z+27, r25	; 0x1b
    80b0:	a4 8f       	std	Z+28, r26	; 0x1c
    80b2:	b5 8f       	std	Z+29, r27	; 0x1d
    80b4:	82 85       	ldd	r24, Z+10	; 0x0a
    80b6:	93 85       	ldd	r25, Z+11	; 0x0b
    80b8:	a4 85       	ldd	r26, Z+12	; 0x0c
    80ba:	b5 85       	ldd	r27, Z+13	; 0x0d
    80bc:	88 27       	eor	r24, r24
    80be:	25 81       	ldd	r18, Z+5	; 0x05
    80c0:	82 2b       	or	r24, r18
    80c2:	86 8f       	std	Z+30, r24	; 0x1e
    80c4:	97 8f       	std	Z+31, r25	; 0x1f
    80c6:	a0 a3       	std	Z+32, r26	; 0x20
    80c8:	b1 a3       	std	Z+33, r27	; 0x21
    80ca:	63 96       	adiw	r28, 0x13	; 19
    80cc:	ee ad       	ldd	r30, Y+62	; 0x3e
    80ce:	ff ad       	ldd	r31, Y+63	; 0x3f
    80d0:	63 97       	sbiw	r28, 0x13	; 19
    80d2:	80 81       	ld	r24, Z
    80d4:	91 81       	ldd	r25, Z+1	; 0x01
    80d6:	a2 81       	ldd	r26, Z+2	; 0x02
    80d8:	b3 81       	ldd	r27, Z+3	; 0x03
    80da:	f1 01       	movw	r30, r2
    80dc:	82 a3       	std	Z+34, r24	; 0x22
    80de:	93 a3       	std	Z+35, r25	; 0x23
    80e0:	a4 a3       	std	Z+36, r26	; 0x24
    80e2:	b5 a3       	std	Z+37, r27	; 0x25
    80e4:	b1 01       	movw	r22, r2
    80e6:	c4 01       	movw	r24, r8
    80e8:	0e 94 84 21 	call	0x4308	; 0x4308 <init_alloc_info>
    80ec:	8a cd       	rjmp	.-1260   	; 0x7c02 <follow_path+0x18a>
    80ee:	66 a1       	ldd	r22, Z+38	; 0x26
    80f0:	77 a1       	ldd	r23, Z+39	; 0x27
    80f2:	71 70       	andi	r23, 0x01	; 1
    80f4:	2b 96       	adiw	r28, 0x0b	; 11
    80f6:	ee ad       	ldd	r30, Y+62	; 0x3e
    80f8:	ff ad       	ldd	r31, Y+63	; 0x3f
    80fa:	2b 97       	sbiw	r28, 0x0b	; 11
    80fc:	6e 0f       	add	r22, r30
    80fe:	7f 1f       	adc	r23, r31
    8100:	c4 01       	movw	r24, r8
    8102:	98 dc       	rcall	.-1744   	; 0x7a34 <ld_clust>
    8104:	d1 01       	movw	r26, r2
    8106:	16 96       	adiw	r26, 0x06	; 6
    8108:	6d 93       	st	X+, r22
    810a:	7d 93       	st	X+, r23
    810c:	8d 93       	st	X+, r24
    810e:	9c 93       	st	X, r25
    8110:	19 97       	sbiw	r26, 0x09	; 9
    8112:	77 cd       	rjmp	.-1298   	; 0x7c02 <follow_path+0x18a>
    8114:	84 e0       	ldi	r24, 0x04	; 4
    8116:	30 c0       	rjmp	.+96     	; 0x8178 <follow_path+0x700>
    8118:	80 e0       	ldi	r24, 0x00	; 0
    811a:	2e c0       	rjmp	.+92     	; 0x8178 <follow_path+0x700>
    811c:	85 e0       	ldi	r24, 0x05	; 5
    811e:	2c c0       	rjmp	.+88     	; 0x8178 <follow_path+0x700>
    8120:	f3 01       	movw	r30, r6
    8122:	11 82       	std	Z+1, r1	; 0x01
    8124:	10 82       	st	Z, r1
    8126:	a1 cf       	rjmp	.-190    	; 0x806a <follow_path+0x5f2>
    8128:	fc 01       	movw	r30, r24
    812a:	32 97       	sbiw	r30, 0x02	; 2
    812c:	e6 0d       	add	r30, r6
    812e:	f7 1d       	adc	r31, r7
    8130:	80 81       	ld	r24, Z
    8132:	91 81       	ldd	r25, Z+1	; 0x01
    8134:	8e 97       	sbiw	r24, 0x2e	; 46
    8136:	09 f4       	brne	.+2      	; 0x813a <follow_path+0x6c2>
    8138:	4b ce       	rjmp	.-874    	; 0x7dd0 <follow_path+0x358>
    813a:	43 ce       	rjmp	.-890    	; 0x7dc2 <follow_path+0x34a>
    813c:	6f 3f       	cpi	r22, 0xFF	; 255
    813e:	71 05       	cpc	r23, r1
    8140:	11 f0       	breq	.+4      	; 0x8146 <follow_path+0x6ce>
    8142:	08 f0       	brcs	.+2      	; 0x8146 <follow_path+0x6ce>
    8144:	da ce       	rjmp	.-588    	; 0x7efa <follow_path+0x482>
    8146:	fe ce       	rjmp	.-516    	; 0x7f44 <follow_path+0x4cc>
    8148:	cb 01       	movw	r24, r22
    814a:	81 54       	subi	r24, 0x41	; 65
    814c:	91 09       	sbc	r25, r1
    814e:	4a 97       	sbiw	r24, 0x1a	; 26
    8150:	08 f4       	brcc	.+2      	; 0x8154 <follow_path+0x6dc>
    8152:	14 cf       	rjmp	.-472    	; 0x7f7c <follow_path+0x504>
    8154:	1a cf       	rjmp	.-460    	; 0x7f8a <follow_path+0x512>
    8156:	86 e0       	ldi	r24, 0x06	; 6
    8158:	0f c0       	rjmp	.+30     	; 0x8178 <follow_path+0x700>
    815a:	c1 01       	movw	r24, r2
    815c:	0e 94 81 37 	call	0x6f02	; 0x6f02 <dir_find>
    8160:	d1 01       	movw	r26, r2
    8162:	df 96       	adiw	r26, 0x3f	; 63
    8164:	9c 91       	ld	r25, X
    8166:	81 11       	cpse	r24, r1
    8168:	82 cf       	rjmp	.-252    	; 0x806e <follow_path+0x5f6>
    816a:	92 cf       	rjmp	.-220    	; 0x8090 <follow_path+0x618>
    816c:	bb e0       	ldi	r27, 0x0B	; 11
    816e:	ab 16       	cp	r10, r27
    8170:	b1 04       	cpc	r11, r1
    8172:	09 f0       	breq	.+2      	; 0x8176 <follow_path+0x6fe>
    8174:	90 ce       	rjmp	.-736    	; 0x7e96 <follow_path+0x41e>
    8176:	73 ce       	rjmp	.-794    	; 0x7e5e <follow_path+0x3e6>
    8178:	ce 5a       	subi	r28, 0xAE	; 174
    817a:	df 4f       	sbci	r29, 0xFF	; 255
    817c:	0f b6       	in	r0, 0x3f	; 63
    817e:	f8 94       	cli
    8180:	de bf       	out	0x3e, r29	; 62
    8182:	0f be       	out	0x3f, r0	; 63
    8184:	cd bf       	out	0x3d, r28	; 61
    8186:	df 91       	pop	r29
    8188:	cf 91       	pop	r28
    818a:	1f 91       	pop	r17
    818c:	0f 91       	pop	r16
    818e:	ff 90       	pop	r15
    8190:	ef 90       	pop	r14
    8192:	df 90       	pop	r13
    8194:	cf 90       	pop	r12
    8196:	bf 90       	pop	r11
    8198:	af 90       	pop	r10
    819a:	9f 90       	pop	r9
    819c:	8f 90       	pop	r8
    819e:	7f 90       	pop	r7
    81a0:	6f 90       	pop	r6
    81a2:	5f 90       	pop	r5
    81a4:	4f 90       	pop	r4
    81a6:	3f 90       	pop	r3
    81a8:	2f 90       	pop	r2
    81aa:	08 95       	ret

000081ac <f_mount>:
    81ac:	1f 93       	push	r17
    81ae:	cf 93       	push	r28
    81b0:	df 93       	push	r29
    81b2:	00 d0       	rcall	.+0      	; 0x81b4 <f_mount+0x8>
    81b4:	00 d0       	rcall	.+0      	; 0x81b6 <f_mount+0xa>
    81b6:	cd b7       	in	r28, 0x3d	; 61
    81b8:	de b7       	in	r29, 0x3e	; 62
    81ba:	9c 83       	std	Y+4, r25	; 0x04
    81bc:	8b 83       	std	Y+3, r24	; 0x03
    81be:	7e 83       	std	Y+6, r23	; 0x06
    81c0:	6d 83       	std	Y+5, r22	; 0x05
    81c2:	14 2f       	mov	r17, r20
    81c4:	7a 83       	std	Y+2, r23	; 0x02
    81c6:	69 83       	std	Y+1, r22	; 0x01
    81c8:	ce 01       	movw	r24, r28
    81ca:	01 96       	adiw	r24, 0x01	; 1
    81cc:	0e 94 b3 21 	call	0x4366	; 0x4366 <get_ldnumber>
    81d0:	99 23       	and	r25, r25
    81d2:	24 f1       	brlt	.+72     	; 0x821c <f_mount+0x70>
    81d4:	fc 01       	movw	r30, r24
    81d6:	ee 0f       	add	r30, r30
    81d8:	ff 1f       	adc	r31, r31
    81da:	e1 5a       	subi	r30, 0xA1	; 161
    81dc:	fa 4f       	sbci	r31, 0xFA	; 250
    81de:	01 90       	ld	r0, Z+
    81e0:	f0 81       	ld	r31, Z
    81e2:	e0 2d       	mov	r30, r0
    81e4:	30 97       	sbiw	r30, 0x00	; 0
    81e6:	09 f0       	breq	.+2      	; 0x81ea <f_mount+0x3e>
    81e8:	10 82       	st	Z, r1
    81ea:	eb 81       	ldd	r30, Y+3	; 0x03
    81ec:	fc 81       	ldd	r31, Y+4	; 0x04
    81ee:	30 97       	sbiw	r30, 0x00	; 0
    81f0:	09 f0       	breq	.+2      	; 0x81f4 <f_mount+0x48>
    81f2:	10 82       	st	Z, r1
    81f4:	88 0f       	add	r24, r24
    81f6:	99 1f       	adc	r25, r25
    81f8:	fc 01       	movw	r30, r24
    81fa:	e1 5a       	subi	r30, 0xA1	; 161
    81fc:	fa 4f       	sbci	r31, 0xFA	; 250
    81fe:	8b 81       	ldd	r24, Y+3	; 0x03
    8200:	9c 81       	ldd	r25, Y+4	; 0x04
    8202:	91 83       	std	Z+1, r25	; 0x01
    8204:	80 83       	st	Z, r24
    8206:	11 23       	and	r17, r17
    8208:	59 f0       	breq	.+22     	; 0x8220 <f_mount+0x74>
    820a:	40 e0       	ldi	r20, 0x00	; 0
    820c:	be 01       	movw	r22, r28
    820e:	6d 5f       	subi	r22, 0xFD	; 253
    8210:	7f 4f       	sbci	r23, 0xFF	; 255
    8212:	ce 01       	movw	r24, r28
    8214:	05 96       	adiw	r24, 0x05	; 5
    8216:	0e 94 ba 30 	call	0x6174	; 0x6174 <find_volume>
    821a:	03 c0       	rjmp	.+6      	; 0x8222 <f_mount+0x76>
    821c:	8b e0       	ldi	r24, 0x0B	; 11
    821e:	01 c0       	rjmp	.+2      	; 0x8222 <f_mount+0x76>
    8220:	80 e0       	ldi	r24, 0x00	; 0
    8222:	26 96       	adiw	r28, 0x06	; 6
    8224:	0f b6       	in	r0, 0x3f	; 63
    8226:	f8 94       	cli
    8228:	de bf       	out	0x3e, r29	; 62
    822a:	0f be       	out	0x3f, r0	; 63
    822c:	cd bf       	out	0x3d, r28	; 61
    822e:	df 91       	pop	r29
    8230:	cf 91       	pop	r28
    8232:	1f 91       	pop	r17
    8234:	08 95       	ret

00008236 <f_open>:
    8236:	2f 92       	push	r2
    8238:	3f 92       	push	r3
    823a:	4f 92       	push	r4
    823c:	5f 92       	push	r5
    823e:	6f 92       	push	r6
    8240:	7f 92       	push	r7
    8242:	8f 92       	push	r8
    8244:	9f 92       	push	r9
    8246:	af 92       	push	r10
    8248:	bf 92       	push	r11
    824a:	cf 92       	push	r12
    824c:	df 92       	push	r13
    824e:	ef 92       	push	r14
    8250:	ff 92       	push	r15
    8252:	0f 93       	push	r16
    8254:	1f 93       	push	r17
    8256:	cf 93       	push	r28
    8258:	df 93       	push	r29
    825a:	cd b7       	in	r28, 0x3d	; 61
    825c:	de b7       	in	r29, 0x3e	; 62
    825e:	c8 55       	subi	r28, 0x58	; 88
    8260:	d1 09       	sbc	r29, r1
    8262:	0f b6       	in	r0, 0x3f	; 63
    8264:	f8 94       	cli
    8266:	de bf       	out	0x3e, r29	; 62
    8268:	0f be       	out	0x3f, r0	; 63
    826a:	cd bf       	out	0x3d, r28	; 61
    826c:	29 96       	adiw	r28, 0x09	; 9
    826e:	7f af       	std	Y+63, r23	; 0x3f
    8270:	6e af       	std	Y+62, r22	; 0x3e
    8272:	29 97       	sbiw	r28, 0x09	; 9
    8274:	00 97       	sbiw	r24, 0x00	; 0
    8276:	09 f4       	brne	.+2      	; 0x827a <f_open+0x44>
    8278:	9c c2       	rjmp	.+1336   	; 0x87b2 <f_open+0x57c>
    827a:	14 2f       	mov	r17, r20
    827c:	4c 01       	movw	r8, r24
    827e:	04 2f       	mov	r16, r20
    8280:	0f 73       	andi	r16, 0x3F	; 63
    8282:	70 2e       	mov	r7, r16
    8284:	40 2f       	mov	r20, r16
    8286:	be 01       	movw	r22, r28
    8288:	6b 5b       	subi	r22, 0xBB	; 187
    828a:	7f 4f       	sbci	r23, 0xFF	; 255
    828c:	ce 01       	movw	r24, r28
    828e:	89 5b       	subi	r24, 0xB9	; 185
    8290:	9f 4f       	sbci	r25, 0xFF	; 255
    8292:	0e 94 ba 30 	call	0x6174	; 0x6174 <find_volume>
    8296:	81 11       	cpse	r24, r1
    8298:	88 c2       	rjmp	.+1296   	; 0x87aa <f_open+0x574>
    829a:	27 96       	adiw	r28, 0x07	; 7
    829c:	8e ad       	ldd	r24, Y+62	; 0x3e
    829e:	9f ad       	ldd	r25, Y+63	; 0x3f
    82a0:	27 97       	sbiw	r28, 0x07	; 7
    82a2:	9a 83       	std	Y+2, r25	; 0x02
    82a4:	89 83       	std	Y+1, r24	; 0x01
    82a6:	29 96       	adiw	r28, 0x09	; 9
    82a8:	6e ad       	ldd	r22, Y+62	; 0x3e
    82aa:	7f ad       	ldd	r23, Y+63	; 0x3f
    82ac:	29 97       	sbiw	r28, 0x09	; 9
    82ae:	ce 01       	movw	r24, r28
    82b0:	01 96       	adiw	r24, 0x01	; 1
    82b2:	e2 db       	rcall	.-2108   	; 0x7a78 <follow_path>
    82b4:	81 11       	cpse	r24, r1
    82b6:	7f c2       	rjmp	.+1278   	; 0x87b6 <f_open+0x580>
    82b8:	21 96       	adiw	r28, 0x01	; 1
    82ba:	8f ad       	ldd	r24, Y+63	; 0x3f
    82bc:	21 97       	sbiw	r28, 0x01	; 1
    82be:	88 23       	and	r24, r24
    82c0:	0c f0       	brlt	.+2      	; 0x82c4 <f_open+0x8e>
    82c2:	82 c2       	rjmp	.+1284   	; 0x87c8 <f_open+0x592>
    82c4:	7c c2       	rjmp	.+1272   	; 0x87be <f_open+0x588>
    82c6:	84 30       	cpi	r24, 0x04	; 4
    82c8:	09 f0       	breq	.+2      	; 0x82cc <f_open+0x96>
    82ca:	b1 c2       	rjmp	.+1378   	; 0x882e <f_open+0x5f8>
    82cc:	ce 01       	movw	r24, r28
    82ce:	01 96       	adiw	r24, 0x01	; 1
    82d0:	08 d8       	rcall	.-4080   	; 0x72e2 <dir_register>
    82d2:	17 2d       	mov	r17, r7
    82d4:	18 60       	ori	r17, 0x08	; 8
    82d6:	71 2e       	mov	r7, r17
    82d8:	88 23       	and	r24, r24
    82da:	39 f0       	breq	.+14     	; 0x82ea <f_open+0xb4>
    82dc:	66 c2       	rjmp	.+1228   	; 0x87aa <f_open+0x574>
    82de:	8d 81       	ldd	r24, Y+5	; 0x05
    82e0:	81 71       	andi	r24, 0x11	; 17
    82e2:	09 f0       	breq	.+2      	; 0x82e6 <f_open+0xb0>
    82e4:	15 c3       	rjmp	.+1578   	; 0x8910 <f_open+0x6da>
    82e6:	12 fd       	sbrc	r17, 2
    82e8:	15 c3       	rjmp	.+1578   	; 0x8914 <f_open+0x6de>
    82ea:	73 fe       	sbrs	r7, 3
    82ec:	cc c0       	rjmp	.+408    	; 0x8486 <f_open+0x250>
    82ee:	27 96       	adiw	r28, 0x07	; 7
    82f0:	4e ac       	ldd	r4, Y+62	; 0x3e
    82f2:	5f ac       	ldd	r5, Y+63	; 0x3f
    82f4:	27 97       	sbiw	r28, 0x07	; 7
    82f6:	d2 01       	movw	r26, r4
    82f8:	8c 91       	ld	r24, X
    82fa:	84 30       	cpi	r24, 0x04	; 4
    82fc:	09 f0       	breq	.+2      	; 0x8300 <f_open+0xca>
    82fe:	68 c0       	rjmp	.+208    	; 0x83d0 <f_open+0x19a>
    8300:	f4 01       	movw	r30, r8
    8302:	51 82       	std	Z+1, r5	; 0x01
    8304:	40 82       	st	Z, r4
    8306:	b4 01       	movw	r22, r8
    8308:	c2 01       	movw	r24, r4
    830a:	0e 94 84 21 	call	0x4308	; 0x4308 <init_alloc_info>
    830e:	27 96       	adiw	r28, 0x07	; 7
    8310:	ee ad       	ldd	r30, Y+62	; 0x3e
    8312:	ff ad       	ldd	r31, Y+63	; 0x3f
    8314:	27 97       	sbiw	r28, 0x07	; 7
    8316:	85 85       	ldd	r24, Z+13	; 0x0d
    8318:	96 85       	ldd	r25, Z+14	; 0x0e
    831a:	4e e1       	ldi	r20, 0x1E	; 30
    831c:	50 e0       	ldi	r21, 0x00	; 0
    831e:	60 e0       	ldi	r22, 0x00	; 0
    8320:	70 e0       	ldi	r23, 0x00	; 0
    8322:	02 96       	adiw	r24, 0x02	; 2
    8324:	0e 94 fc 20 	call	0x41f8	; 0x41f8 <mem_set>
    8328:	27 96       	adiw	r28, 0x07	; 7
    832a:	ee ad       	ldd	r30, Y+62	; 0x3e
    832c:	ff ad       	ldd	r31, Y+63	; 0x3f
    832e:	27 97       	sbiw	r28, 0x07	; 7
    8330:	85 85       	ldd	r24, Z+13	; 0x0d
    8332:	96 85       	ldd	r25, Z+14	; 0x0e
    8334:	4a e1       	ldi	r20, 0x1A	; 26
    8336:	50 e0       	ldi	r21, 0x00	; 0
    8338:	60 e0       	ldi	r22, 0x00	; 0
    833a:	70 e0       	ldi	r23, 0x00	; 0
    833c:	86 96       	adiw	r24, 0x26	; 38
    833e:	0e 94 fc 20 	call	0x41f8	; 0x41f8 <mem_set>
    8342:	27 96       	adiw	r28, 0x07	; 7
    8344:	ae ad       	ldd	r26, Y+62	; 0x3e
    8346:	bf ad       	ldd	r27, Y+63	; 0x3f
    8348:	27 97       	sbiw	r28, 0x07	; 7
    834a:	1d 96       	adiw	r26, 0x0d	; 13
    834c:	ed 91       	ld	r30, X+
    834e:	fc 91       	ld	r31, X
    8350:	1e 97       	sbiw	r26, 0x0e	; 14
    8352:	80 e2       	ldi	r24, 0x20	; 32
    8354:	84 83       	std	Z+4, r24	; 0x04
    8356:	1d 96       	adiw	r26, 0x0d	; 13
    8358:	ed 91       	ld	r30, X+
    835a:	fc 91       	ld	r31, X
    835c:	1e 97       	sbiw	r26, 0x0e	; 14
    835e:	8c ec       	ldi	r24, 0xCC	; 204
    8360:	80 87       	std	Z+8, r24	; 0x08
    8362:	81 e1       	ldi	r24, 0x11	; 17
    8364:	81 87       	std	Z+9, r24	; 0x09
    8366:	12 86       	std	Z+10, r1	; 0x0a
    8368:	13 86       	std	Z+11, r1	; 0x0b
    836a:	1d 96       	adiw	r26, 0x0d	; 13
    836c:	ed 91       	ld	r30, X+
    836e:	fc 91       	ld	r31, X
    8370:	1e 97       	sbiw	r26, 0x0e	; 14
    8372:	81 e0       	ldi	r24, 0x01	; 1
    8374:	81 a3       	std	Z+33, r24	; 0x21
    8376:	ce 01       	movw	r24, r28
    8378:	01 96       	adiw	r24, 0x01	; 1
    837a:	0e 94 06 30 	call	0x600c	; 0x600c <store_xdir>
    837e:	81 11       	cpse	r24, r1
    8380:	14 c2       	rjmp	.+1064   	; 0x87aa <f_open+0x574>
    8382:	d4 01       	movw	r26, r8
    8384:	16 96       	adiw	r26, 0x06	; 6
    8386:	4d 91       	ld	r20, X+
    8388:	5d 91       	ld	r21, X+
    838a:	6d 91       	ld	r22, X+
    838c:	7c 91       	ld	r23, X
    838e:	19 97       	sbiw	r26, 0x09	; 9
    8390:	41 15       	cp	r20, r1
    8392:	51 05       	cpc	r21, r1
    8394:	61 05       	cpc	r22, r1
    8396:	71 05       	cpc	r23, r1
    8398:	09 f4       	brne	.+2      	; 0x839c <f_open+0x166>
    839a:	72 c0       	rjmp	.+228    	; 0x8480 <f_open+0x24a>
    839c:	00 e0       	ldi	r16, 0x00	; 0
    839e:	10 e0       	ldi	r17, 0x00	; 0
    83a0:	98 01       	movw	r18, r16
    83a2:	c4 01       	movw	r24, r8
    83a4:	0e 94 2c 2c 	call	0x5858	; 0x5858 <remove_chain>
    83a8:	27 96       	adiw	r28, 0x07	; 7
    83aa:	ee ad       	ldd	r30, Y+62	; 0x3e
    83ac:	ff ad       	ldd	r31, Y+63	; 0x3f
    83ae:	27 97       	sbiw	r28, 0x07	; 7
    83b0:	d4 01       	movw	r26, r8
    83b2:	16 96       	adiw	r26, 0x06	; 6
    83b4:	4d 91       	ld	r20, X+
    83b6:	5d 91       	ld	r21, X+
    83b8:	6d 91       	ld	r22, X+
    83ba:	7c 91       	ld	r23, X
    83bc:	19 97       	sbiw	r26, 0x09	; 9
    83be:	41 50       	subi	r20, 0x01	; 1
    83c0:	51 09       	sbc	r21, r1
    83c2:	61 09       	sbc	r22, r1
    83c4:	71 09       	sbc	r23, r1
    83c6:	47 87       	std	Z+15, r20	; 0x0f
    83c8:	50 8b       	std	Z+16, r21	; 0x10
    83ca:	61 8b       	std	Z+17, r22	; 0x11
    83cc:	72 8b       	std	Z+18, r23	; 0x12
    83ce:	04 c2       	rjmp	.+1032   	; 0x87d8 <f_open+0x5a2>
    83d0:	0b a9       	ldd	r16, Y+51	; 0x33
    83d2:	1c a9       	ldd	r17, Y+52	; 0x34
    83d4:	b8 01       	movw	r22, r16
    83d6:	c2 01       	movw	r24, r4
    83d8:	2d db       	rcall	.-2470   	; 0x7a34 <ld_clust>
    83da:	6b 01       	movw	r12, r22
    83dc:	7c 01       	movw	r14, r24
    83de:	8c ec       	ldi	r24, 0xCC	; 204
    83e0:	f8 01       	movw	r30, r16
    83e2:	86 87       	std	Z+14, r24	; 0x0e
    83e4:	81 e1       	ldi	r24, 0x11	; 17
    83e6:	87 87       	std	Z+15, r24	; 0x0f
    83e8:	10 8a       	std	Z+16, r1	; 0x10
    83ea:	11 8a       	std	Z+17, r1	; 0x11
    83ec:	eb a9       	ldd	r30, Y+51	; 0x33
    83ee:	fc a9       	ldd	r31, Y+52	; 0x34
    83f0:	80 e2       	ldi	r24, 0x20	; 32
    83f2:	83 87       	std	Z+11, r24	; 0x0b
    83f4:	6b a9       	ldd	r22, Y+51	; 0x33
    83f6:	7c a9       	ldd	r23, Y+52	; 0x34
    83f8:	20 e0       	ldi	r18, 0x00	; 0
    83fa:	30 e0       	ldi	r19, 0x00	; 0
    83fc:	a9 01       	movw	r20, r18
    83fe:	c2 01       	movw	r24, r4
    8400:	0e 94 26 27 	call	0x4e4c	; 0x4e4c <st_clust>
    8404:	eb a9       	ldd	r30, Y+51	; 0x33
    8406:	fc a9       	ldd	r31, Y+52	; 0x34
    8408:	14 8e       	std	Z+28, r1	; 0x1c
    840a:	15 8e       	std	Z+29, r1	; 0x1d
    840c:	16 8e       	std	Z+30, r1	; 0x1e
    840e:	17 8e       	std	Z+31, r1	; 0x1f
    8410:	27 96       	adiw	r28, 0x07	; 7
    8412:	ee ad       	ldd	r30, Y+62	; 0x3e
    8414:	ff ad       	ldd	r31, Y+63	; 0x3f
    8416:	27 97       	sbiw	r28, 0x07	; 7
    8418:	81 e0       	ldi	r24, 0x01	; 1
    841a:	83 83       	std	Z+3, r24	; 0x03
    841c:	c1 14       	cp	r12, r1
    841e:	d1 04       	cpc	r13, r1
    8420:	e1 04       	cpc	r14, r1
    8422:	f1 04       	cpc	r15, r1
    8424:	69 f1       	breq	.+90     	; 0x8480 <f_open+0x24a>
    8426:	ed 5b       	subi	r30, 0xBD	; 189
    8428:	ff 4f       	sbci	r31, 0xFF	; 255
    842a:	20 80       	ld	r2, Z
    842c:	31 80       	ldd	r3, Z+1	; 0x01
    842e:	42 80       	ldd	r4, Z+2	; 0x02
    8430:	53 80       	ldd	r5, Z+3	; 0x03
    8432:	00 e0       	ldi	r16, 0x00	; 0
    8434:	10 e0       	ldi	r17, 0x00	; 0
    8436:	98 01       	movw	r18, r16
    8438:	b7 01       	movw	r22, r14
    843a:	a6 01       	movw	r20, r12
    843c:	ce 01       	movw	r24, r28
    843e:	01 96       	adiw	r24, 0x01	; 1
    8440:	0e 94 2c 2c 	call	0x5858	; 0x5858 <remove_chain>
    8444:	81 11       	cpse	r24, r1
    8446:	b1 c1       	rjmp	.+866    	; 0x87aa <f_open+0x574>
    8448:	b2 01       	movw	r22, r4
    844a:	a1 01       	movw	r20, r2
    844c:	27 96       	adiw	r28, 0x07	; 7
    844e:	8e ad       	ldd	r24, Y+62	; 0x3e
    8450:	9f ad       	ldd	r25, Y+63	; 0x3f
    8452:	27 97       	sbiw	r28, 0x07	; 7
    8454:	0e 94 8f 22 	call	0x451e	; 0x451e <move_window>
    8458:	27 96       	adiw	r28, 0x07	; 7
    845a:	ee ad       	ldd	r30, Y+62	; 0x3e
    845c:	ff ad       	ldd	r31, Y+63	; 0x3f
    845e:	27 97       	sbiw	r28, 0x07	; 7
    8460:	01 e0       	ldi	r16, 0x01	; 1
    8462:	c0 1a       	sub	r12, r16
    8464:	d1 08       	sbc	r13, r1
    8466:	e1 08       	sbc	r14, r1
    8468:	f1 08       	sbc	r15, r1
    846a:	c7 86       	std	Z+15, r12	; 0x0f
    846c:	d0 8a       	std	Z+16, r13	; 0x10
    846e:	e1 8a       	std	Z+17, r14	; 0x11
    8470:	f2 8a       	std	Z+18, r15	; 0x12
    8472:	b2 c1       	rjmp	.+868    	; 0x87d8 <f_open+0x5a2>
    8474:	11 ff       	sbrs	r17, 1
    8476:	02 c0       	rjmp	.+4      	; 0x847c <f_open+0x246>
    8478:	80 fd       	sbrc	r24, 0
    847a:	4e c2       	rjmp	.+1180   	; 0x8918 <f_open+0x6e2>
    847c:	13 ff       	sbrs	r17, 3
    847e:	03 c0       	rjmp	.+6      	; 0x8486 <f_open+0x250>
    8480:	17 2d       	mov	r17, r7
    8482:	10 64       	ori	r17, 0x40	; 64
    8484:	71 2e       	mov	r7, r17
    8486:	27 96       	adiw	r28, 0x07	; 7
    8488:	ee ad       	ldd	r30, Y+62	; 0x3e
    848a:	ff ad       	ldd	r31, Y+63	; 0x3f
    848c:	27 97       	sbiw	r28, 0x07	; 7
    848e:	ed 5b       	subi	r30, 0xBD	; 189
    8490:	ff 4f       	sbci	r31, 0xFF	; 255
    8492:	80 81       	ld	r24, Z
    8494:	91 81       	ldd	r25, Z+1	; 0x01
    8496:	a2 81       	ldd	r26, Z+2	; 0x02
    8498:	b3 81       	ldd	r27, Z+3	; 0x03
    849a:	f4 01       	movw	r30, r8
    849c:	80 af       	std	Z+56, r24	; 0x38
    849e:	91 af       	std	Z+57, r25	; 0x39
    84a0:	a2 af       	std	Z+58, r26	; 0x3a
    84a2:	b3 af       	std	Z+59, r27	; 0x3b
    84a4:	8b a9       	ldd	r24, Y+51	; 0x33
    84a6:	9c a9       	ldd	r25, Y+52	; 0x34
    84a8:	95 af       	std	Z+61, r25	; 0x3d
    84aa:	84 af       	std	Z+60, r24	; 0x3c
    84ac:	27 96       	adiw	r28, 0x07	; 7
    84ae:	8e ad       	ldd	r24, Y+62	; 0x3e
    84b0:	9f ad       	ldd	r25, Y+63	; 0x3f
    84b2:	27 97       	sbiw	r28, 0x07	; 7
    84b4:	dc 01       	movw	r26, r24
    84b6:	2c 91       	ld	r18, X
    84b8:	24 30       	cpi	r18, 0x04	; 4
    84ba:	11 f5       	brne	.+68     	; 0x8500 <f_open+0x2ca>
    84bc:	4f 81       	ldd	r20, Y+7	; 0x07
    84be:	58 85       	ldd	r21, Y+8	; 0x08
    84c0:	69 85       	ldd	r22, Y+9	; 0x09
    84c2:	7a 85       	ldd	r23, Y+10	; 0x0a
    84c4:	f4 01       	movw	r30, r8
    84c6:	42 8f       	std	Z+26, r20	; 0x1a
    84c8:	53 8f       	std	Z+27, r21	; 0x1b
    84ca:	64 8f       	std	Z+28, r22	; 0x1c
    84cc:	75 8f       	std	Z+29, r23	; 0x1d
    84ce:	4b 85       	ldd	r20, Y+11	; 0x0b
    84d0:	5c 85       	ldd	r21, Y+12	; 0x0c
    84d2:	6d 85       	ldd	r22, Y+13	; 0x0d
    84d4:	7e 85       	ldd	r23, Y+14	; 0x0e
    84d6:	44 27       	eor	r20, r20
    84d8:	2e 81       	ldd	r18, Y+6	; 0x06
    84da:	42 2b       	or	r20, r18
    84dc:	46 8f       	std	Z+30, r20	; 0x1e
    84de:	57 8f       	std	Z+31, r21	; 0x1f
    84e0:	60 a3       	std	Z+32, r22	; 0x20
    84e2:	71 a3       	std	Z+33, r23	; 0x21
    84e4:	25 96       	adiw	r28, 0x05	; 5
    84e6:	4c ad       	ldd	r20, Y+60	; 0x3c
    84e8:	5d ad       	ldd	r21, Y+61	; 0x3d
    84ea:	6e ad       	ldd	r22, Y+62	; 0x3e
    84ec:	7f ad       	ldd	r23, Y+63	; 0x3f
    84ee:	25 97       	sbiw	r28, 0x05	; 5
    84f0:	42 a3       	std	Z+34, r20	; 0x22
    84f2:	53 a3       	std	Z+35, r21	; 0x23
    84f4:	64 a3       	std	Z+36, r22	; 0x24
    84f6:	75 a3       	std	Z+37, r23	; 0x25
    84f8:	b4 01       	movw	r22, r8
    84fa:	0e 94 84 21 	call	0x4308	; 0x4308 <init_alloc_info>
    84fe:	1a c0       	rjmp	.+52     	; 0x8534 <f_open+0x2fe>
    8500:	0b a9       	ldd	r16, Y+51	; 0x33
    8502:	1c a9       	ldd	r17, Y+52	; 0x34
    8504:	b8 01       	movw	r22, r16
    8506:	96 da       	rcall	.-2772   	; 0x7a34 <ld_clust>
    8508:	d4 01       	movw	r26, r8
    850a:	16 96       	adiw	r26, 0x06	; 6
    850c:	6d 93       	st	X+, r22
    850e:	7d 93       	st	X+, r23
    8510:	8d 93       	st	X+, r24
    8512:	9c 93       	st	X, r25
    8514:	19 97       	sbiw	r26, 0x09	; 9
    8516:	c8 01       	movw	r24, r16
    8518:	4c 96       	adiw	r24, 0x1c	; 28
    851a:	0e 94 7d 20 	call	0x40fa	; 0x40fa <ld_dword>
    851e:	8b 01       	movw	r16, r22
    8520:	9c 01       	movw	r18, r24
    8522:	f4 01       	movw	r30, r8
    8524:	02 87       	std	Z+10, r16	; 0x0a
    8526:	13 87       	std	Z+11, r17	; 0x0b
    8528:	24 87       	std	Z+12, r18	; 0x0c
    852a:	35 87       	std	Z+13, r19	; 0x0d
    852c:	16 86       	std	Z+14, r1	; 0x0e
    852e:	17 86       	std	Z+15, r1	; 0x0f
    8530:	10 8a       	std	Z+16, r1	; 0x10
    8532:	11 8a       	std	Z+17, r1	; 0x11
    8534:	27 96       	adiw	r28, 0x07	; 7
    8536:	ee ad       	ldd	r30, Y+62	; 0x3e
    8538:	ff ad       	ldd	r31, Y+63	; 0x3f
    853a:	27 97       	sbiw	r28, 0x07	; 7
    853c:	d4 01       	movw	r26, r8
    853e:	11 96       	adiw	r26, 0x01	; 1
    8540:	fc 93       	st	X, r31
    8542:	ee 93       	st	-X, r30
    8544:	85 81       	ldd	r24, Z+5	; 0x05
    8546:	96 81       	ldd	r25, Z+6	; 0x06
    8548:	13 96       	adiw	r26, 0x03	; 3
    854a:	9c 93       	st	X, r25
    854c:	8e 93       	st	-X, r24
    854e:	12 97       	sbiw	r26, 0x02	; 2
    8550:	96 96       	adiw	r26, 0x26	; 38
    8552:	7c 92       	st	X, r7
    8554:	96 97       	sbiw	r26, 0x26	; 38
    8556:	97 96       	adiw	r26, 0x27	; 39
    8558:	1c 92       	st	X, r1
    855a:	97 97       	sbiw	r26, 0x27	; 39
    855c:	d4 96       	adiw	r26, 0x34	; 52
    855e:	1d 92       	st	X+, r1
    8560:	1d 92       	st	X+, r1
    8562:	1d 92       	st	X+, r1
    8564:	1c 92       	st	X, r1
    8566:	d7 97       	sbiw	r26, 0x37	; 55
    8568:	98 96       	adiw	r26, 0x28	; 40
    856a:	1c 92       	st	X, r1
    856c:	98 97       	sbiw	r26, 0x28	; 40
    856e:	99 96       	adiw	r26, 0x29	; 41
    8570:	1c 92       	st	X, r1
    8572:	99 97       	sbiw	r26, 0x29	; 41
    8574:	9a 96       	adiw	r26, 0x2a	; 42
    8576:	1c 92       	st	X, r1
    8578:	9a 97       	sbiw	r26, 0x2a	; 42
    857a:	9b 96       	adiw	r26, 0x2b	; 43
    857c:	1c 92       	st	X, r1
    857e:	9b 97       	sbiw	r26, 0x2b	; 43
    8580:	9c 96       	adiw	r26, 0x2c	; 44
    8582:	1c 92       	st	X, r1
    8584:	9c 97       	sbiw	r26, 0x2c	; 44
    8586:	9d 96       	adiw	r26, 0x2d	; 45
    8588:	1c 92       	st	X, r1
    858a:	9d 97       	sbiw	r26, 0x2d	; 45
    858c:	9e 96       	adiw	r26, 0x2e	; 46
    858e:	1c 92       	st	X, r1
    8590:	9e 97       	sbiw	r26, 0x2e	; 46
    8592:	9f 96       	adiw	r26, 0x2f	; 47
    8594:	1c 92       	st	X, r1
    8596:	9f 97       	sbiw	r26, 0x2f	; 47
    8598:	75 fe       	sbrs	r7, 5
    859a:	46 c1       	rjmp	.+652    	; 0x8828 <f_open+0x5f2>
    859c:	1a 96       	adiw	r26, 0x0a	; 10
    859e:	3c 90       	ld	r3, X
    85a0:	1a 97       	sbiw	r26, 0x0a	; 10
    85a2:	1b 96       	adiw	r26, 0x0b	; 11
    85a4:	bc 91       	ld	r27, X
    85a6:	69 96       	adiw	r28, 0x19	; 25
    85a8:	bf af       	std	Y+63, r27	; 0x3f
    85aa:	69 97       	sbiw	r28, 0x19	; 25
    85ac:	d4 01       	movw	r26, r8
    85ae:	1c 96       	adiw	r26, 0x0c	; 12
    85b0:	bc 91       	ld	r27, X
    85b2:	62 96       	adiw	r28, 0x12	; 18
    85b4:	bf af       	std	Y+63, r27	; 0x3f
    85b6:	62 97       	sbiw	r28, 0x12	; 18
    85b8:	d4 01       	movw	r26, r8
    85ba:	1d 96       	adiw	r26, 0x0d	; 13
    85bc:	bc 91       	ld	r27, X
    85be:	63 96       	adiw	r28, 0x13	; 19
    85c0:	bf af       	std	Y+63, r27	; 0x3f
    85c2:	63 97       	sbiw	r28, 0x13	; 19
    85c4:	d4 01       	movw	r26, r8
    85c6:	1e 96       	adiw	r26, 0x0e	; 14
    85c8:	2c 90       	ld	r2, X
    85ca:	1e 97       	sbiw	r26, 0x0e	; 14
    85cc:	1f 96       	adiw	r26, 0x0f	; 15
    85ce:	bc 91       	ld	r27, X
    85d0:	64 96       	adiw	r28, 0x14	; 20
    85d2:	bf af       	std	Y+63, r27	; 0x3f
    85d4:	64 97       	sbiw	r28, 0x14	; 20
    85d6:	d4 01       	movw	r26, r8
    85d8:	50 96       	adiw	r26, 0x10	; 16
    85da:	bc 91       	ld	r27, X
    85dc:	65 96       	adiw	r28, 0x15	; 21
    85de:	bf af       	std	Y+63, r27	; 0x3f
    85e0:	65 97       	sbiw	r28, 0x15	; 21
    85e2:	d4 01       	movw	r26, r8
    85e4:	51 96       	adiw	r26, 0x11	; 17
    85e6:	bc 91       	ld	r27, X
    85e8:	66 96       	adiw	r28, 0x16	; 22
    85ea:	bf af       	std	Y+63, r27	; 0x3f
    85ec:	66 97       	sbiw	r28, 0x16	; 22
    85ee:	23 2d       	mov	r18, r3
    85f0:	69 96       	adiw	r28, 0x19	; 25
    85f2:	3f ad       	ldd	r19, Y+63	; 0x3f
    85f4:	69 97       	sbiw	r28, 0x19	; 25
    85f6:	62 96       	adiw	r28, 0x12	; 18
    85f8:	4f ad       	ldd	r20, Y+63	; 0x3f
    85fa:	62 97       	sbiw	r28, 0x12	; 18
    85fc:	63 96       	adiw	r28, 0x13	; 19
    85fe:	5f ad       	ldd	r21, Y+63	; 0x3f
    8600:	63 97       	sbiw	r28, 0x13	; 19
    8602:	62 2d       	mov	r22, r2
    8604:	64 96       	adiw	r28, 0x14	; 20
    8606:	7f ad       	ldd	r23, Y+63	; 0x3f
    8608:	64 97       	sbiw	r28, 0x14	; 20
    860a:	65 96       	adiw	r28, 0x15	; 21
    860c:	8f ad       	ldd	r24, Y+63	; 0x3f
    860e:	65 97       	sbiw	r28, 0x15	; 21
    8610:	9b 2f       	mov	r25, r27
    8612:	a0 e0       	ldi	r26, 0x00	; 0
    8614:	0e 94 63 4c 	call	0x98c6	; 0x98c6 <__cmpdi2_s8>
    8618:	09 f4       	brne	.+2      	; 0x861c <f_open+0x3e6>
    861a:	06 c1       	rjmp	.+524    	; 0x8828 <f_open+0x5f2>
    861c:	d4 01       	movw	r26, r8
    861e:	98 96       	adiw	r26, 0x28	; 40
    8620:	3c 92       	st	X, r3
    8622:	98 97       	sbiw	r26, 0x28	; 40
    8624:	99 96       	adiw	r26, 0x29	; 41
    8626:	3c 93       	st	X, r19
    8628:	99 97       	sbiw	r26, 0x29	; 41
    862a:	9a 96       	adiw	r26, 0x2a	; 42
    862c:	4c 93       	st	X, r20
    862e:	9a 97       	sbiw	r26, 0x2a	; 42
    8630:	9b 96       	adiw	r26, 0x2b	; 43
    8632:	5c 93       	st	X, r21
    8634:	9b 97       	sbiw	r26, 0x2b	; 43
    8636:	9c 96       	adiw	r26, 0x2c	; 44
    8638:	2c 92       	st	X, r2
    863a:	9c 97       	sbiw	r26, 0x2c	; 44
    863c:	9d 96       	adiw	r26, 0x2d	; 45
    863e:	7c 93       	st	X, r23
    8640:	9d 97       	sbiw	r26, 0x2d	; 45
    8642:	9e 96       	adiw	r26, 0x2e	; 46
    8644:	8c 93       	st	X, r24
    8646:	9e 97       	sbiw	r26, 0x2e	; 46
    8648:	9f 96       	adiw	r26, 0x2f	; 47
    864a:	9c 93       	st	X, r25
    864c:	9f 97       	sbiw	r26, 0x2f	; 47
    864e:	16 96       	adiw	r26, 0x06	; 6
    8650:	4d 90       	ld	r4, X+
    8652:	5d 90       	ld	r5, X+
    8654:	6d 90       	ld	r6, X+
    8656:	7c 90       	ld	r7, X
    8658:	19 97       	sbiw	r26, 0x09	; 9
    865a:	81 85       	ldd	r24, Z+9	; 0x09
    865c:	92 85       	ldd	r25, Z+10	; 0x0a
    865e:	a0 e0       	ldi	r26, 0x00	; 0
    8660:	b0 e0       	ldi	r27, 0x00	; 0
    8662:	07 2e       	mov	r0, r23
    8664:	79 e0       	ldi	r23, 0x09	; 9
    8666:	88 0f       	add	r24, r24
    8668:	99 1f       	adc	r25, r25
    866a:	aa 1f       	adc	r26, r26
    866c:	bb 1f       	adc	r27, r27
    866e:	7a 95       	dec	r23
    8670:	d1 f7       	brne	.-12     	; 0x8666 <f_open+0x430>
    8672:	70 2d       	mov	r23, r0
    8674:	8c 01       	movw	r16, r24
    8676:	9d 01       	movw	r18, r26
    8678:	40 e0       	ldi	r20, 0x00	; 0
    867a:	50 e0       	ldi	r21, 0x00	; 0
    867c:	ba 01       	movw	r22, r20
    867e:	2a 96       	adiw	r28, 0x0a	; 10
    8680:	8f af       	std	Y+63, r24	; 0x3f
    8682:	2a 97       	sbiw	r28, 0x0a	; 10
    8684:	2b 96       	adiw	r28, 0x0b	; 11
    8686:	1f af       	std	Y+63, r17	; 0x3f
    8688:	2b 97       	sbiw	r28, 0x0b	; 11
    868a:	2c 96       	adiw	r28, 0x0c	; 12
    868c:	2f af       	std	Y+63, r18	; 0x3f
    868e:	2c 97       	sbiw	r28, 0x0c	; 12
    8690:	2d 96       	adiw	r28, 0x0d	; 13
    8692:	3f af       	std	Y+63, r19	; 0x3f
    8694:	2d 97       	sbiw	r28, 0x0d	; 13
    8696:	2e 96       	adiw	r28, 0x0e	; 14
    8698:	4f af       	std	Y+63, r20	; 0x3f
    869a:	2e 97       	sbiw	r28, 0x0e	; 14
    869c:	2f 96       	adiw	r28, 0x0f	; 15
    869e:	5f af       	std	Y+63, r21	; 0x3f
    86a0:	2f 97       	sbiw	r28, 0x0f	; 15
    86a2:	60 96       	adiw	r28, 0x10	; 16
    86a4:	6f af       	std	Y+63, r22	; 0x3f
    86a6:	60 97       	sbiw	r28, 0x10	; 16
    86a8:	61 96       	adiw	r28, 0x11	; 17
    86aa:	7f af       	std	Y+63, r23	; 0x3f
    86ac:	61 97       	sbiw	r28, 0x11	; 17
    86ae:	28 2f       	mov	r18, r24
    86b0:	31 2f       	mov	r19, r17
    86b2:	2c 96       	adiw	r28, 0x0c	; 12
    86b4:	4f ad       	ldd	r20, Y+63	; 0x3f
    86b6:	2c 97       	sbiw	r28, 0x0c	; 12
    86b8:	2d 96       	adiw	r28, 0x0d	; 13
    86ba:	5f ad       	ldd	r21, Y+63	; 0x3f
    86bc:	2d 97       	sbiw	r28, 0x0d	; 13
    86be:	60 e0       	ldi	r22, 0x00	; 0
    86c0:	70 e0       	ldi	r23, 0x00	; 0
    86c2:	80 e0       	ldi	r24, 0x00	; 0
    86c4:	90 e0       	ldi	r25, 0x00	; 0
    86c6:	a3 2c       	mov	r10, r3
    86c8:	69 96       	adiw	r28, 0x19	; 25
    86ca:	bf ac       	ldd	r11, Y+63	; 0x3f
    86cc:	69 97       	sbiw	r28, 0x19	; 25
    86ce:	62 96       	adiw	r28, 0x12	; 18
    86d0:	cf ac       	ldd	r12, Y+63	; 0x3f
    86d2:	62 97       	sbiw	r28, 0x12	; 18
    86d4:	63 96       	adiw	r28, 0x13	; 19
    86d6:	df ac       	ldd	r13, Y+63	; 0x3f
    86d8:	63 97       	sbiw	r28, 0x13	; 19
    86da:	e2 2c       	mov	r14, r2
    86dc:	64 96       	adiw	r28, 0x14	; 20
    86de:	ff ac       	ldd	r15, Y+63	; 0x3f
    86e0:	64 97       	sbiw	r28, 0x14	; 20
    86e2:	65 96       	adiw	r28, 0x15	; 21
    86e4:	0f ad       	ldd	r16, Y+63	; 0x3f
    86e6:	65 97       	sbiw	r28, 0x15	; 21
    86e8:	66 96       	adiw	r28, 0x16	; 22
    86ea:	1f ad       	ldd	r17, Y+63	; 0x3f
    86ec:	66 97       	sbiw	r28, 0x16	; 22
    86ee:	0e 94 5a 4c 	call	0x98b4	; 0x98b4 <__cmpdi2>
    86f2:	08 f0       	brcs	.+2      	; 0x86f6 <f_open+0x4c0>
    86f4:	7f c0       	rjmp	.+254    	; 0x87f4 <f_open+0x5be>
    86f6:	68 96       	adiw	r28, 0x18	; 24
    86f8:	9f ae       	std	Y+63, r9	; 0x3f
    86fa:	8e ae       	std	Y+62, r8	; 0x3e
    86fc:	68 97       	sbiw	r28, 0x18	; 24
    86fe:	9b 2c       	mov	r9, r11
    8700:	b3 01       	movw	r22, r6
    8702:	a2 01       	movw	r20, r4
    8704:	68 96       	adiw	r28, 0x18	; 24
    8706:	8e ad       	ldd	r24, Y+62	; 0x3e
    8708:	9f ad       	ldd	r25, Y+63	; 0x3f
    870a:	68 97       	sbiw	r28, 0x18	; 24
    870c:	0e 94 33 27 	call	0x4e66	; 0x4e66 <get_fat>
    8710:	2b 01       	movw	r4, r22
    8712:	3c 01       	movw	r6, r24
    8714:	62 30       	cpi	r22, 0x02	; 2
    8716:	71 05       	cpc	r23, r1
    8718:	81 05       	cpc	r24, r1
    871a:	91 05       	cpc	r25, r1
    871c:	08 f0       	brcs	.+2      	; 0x8720 <f_open+0x4ea>
    871e:	d9 c0       	rjmp	.+434    	; 0x88d2 <f_open+0x69c>
    8720:	ec c0       	rjmp	.+472    	; 0x88fa <f_open+0x6c4>
    8722:	b3 01       	movw	r22, r6
    8724:	a2 01       	movw	r20, r4
    8726:	27 96       	adiw	r28, 0x07	; 7
    8728:	8e ad       	ldd	r24, Y+62	; 0x3e
    872a:	9f ad       	ldd	r25, Y+63	; 0x3f
    872c:	27 97       	sbiw	r28, 0x07	; 7
    872e:	0e 94 12 21 	call	0x4224	; 0x4224 <clst2sect>
    8732:	6b 01       	movw	r12, r22
    8734:	7c 01       	movw	r14, r24
    8736:	67 2b       	or	r22, r23
    8738:	68 2b       	or	r22, r24
    873a:	69 2b       	or	r22, r25
    873c:	09 f4       	brne	.+2      	; 0x8740 <f_open+0x50a>
    873e:	72 c0       	rjmp	.+228    	; 0x8824 <f_open+0x5ee>
    8740:	23 2d       	mov	r18, r3
    8742:	69 96       	adiw	r28, 0x19	; 25
    8744:	3f ad       	ldd	r19, Y+63	; 0x3f
    8746:	69 97       	sbiw	r28, 0x19	; 25
    8748:	62 96       	adiw	r28, 0x12	; 18
    874a:	4f ad       	ldd	r20, Y+63	; 0x3f
    874c:	62 97       	sbiw	r28, 0x12	; 18
    874e:	63 96       	adiw	r28, 0x13	; 19
    8750:	5f ad       	ldd	r21, Y+63	; 0x3f
    8752:	63 97       	sbiw	r28, 0x13	; 19
    8754:	62 2d       	mov	r22, r2
    8756:	64 96       	adiw	r28, 0x14	; 20
    8758:	7f ad       	ldd	r23, Y+63	; 0x3f
    875a:	64 97       	sbiw	r28, 0x14	; 20
    875c:	65 96       	adiw	r28, 0x15	; 21
    875e:	8f ad       	ldd	r24, Y+63	; 0x3f
    8760:	65 97       	sbiw	r28, 0x15	; 21
    8762:	66 96       	adiw	r28, 0x16	; 22
    8764:	9f ad       	ldd	r25, Y+63	; 0x3f
    8766:	66 97       	sbiw	r28, 0x16	; 22
    8768:	09 e0       	ldi	r16, 0x09	; 9
    876a:	0e 94 20 4c 	call	0x9840	; 0x9840 <__lshrdi3>
    876e:	2a 96       	adiw	r28, 0x0a	; 10
    8770:	2f af       	std	Y+63, r18	; 0x3f
    8772:	2a 97       	sbiw	r28, 0x0a	; 10
    8774:	2b 96       	adiw	r28, 0x0b	; 11
    8776:	3f af       	std	Y+63, r19	; 0x3f
    8778:	2b 97       	sbiw	r28, 0x0b	; 11
    877a:	2c 96       	adiw	r28, 0x0c	; 12
    877c:	4f af       	std	Y+63, r20	; 0x3f
    877e:	2c 97       	sbiw	r28, 0x0c	; 12
    8780:	2d 96       	adiw	r28, 0x0d	; 13
    8782:	5f af       	std	Y+63, r21	; 0x3f
    8784:	2d 97       	sbiw	r28, 0x0d	; 13
    8786:	2d 96       	adiw	r28, 0x0d	; 13
    8788:	2c ad       	ldd	r18, Y+60	; 0x3c
    878a:	3d ad       	ldd	r19, Y+61	; 0x3d
    878c:	4e ad       	ldd	r20, Y+62	; 0x3e
    878e:	5f ad       	ldd	r21, Y+63	; 0x3f
    8790:	2d 97       	sbiw	r28, 0x0d	; 13
    8792:	c2 0e       	add	r12, r18
    8794:	d3 1e       	adc	r13, r19
    8796:	e4 1e       	adc	r14, r20
    8798:	f5 1e       	adc	r15, r21
    879a:	d4 01       	movw	r26, r8
    879c:	d4 96       	adiw	r26, 0x34	; 52
    879e:	cd 92       	st	X+, r12
    87a0:	dd 92       	st	X+, r13
    87a2:	ed 92       	st	X+, r14
    87a4:	fc 92       	st	X, r15
    87a6:	d7 97       	sbiw	r26, 0x37	; 55
    87a8:	3f c0       	rjmp	.+126    	; 0x8828 <f_open+0x5f2>
    87aa:	f4 01       	movw	r30, r8
    87ac:	11 82       	std	Z+1, r1	; 0x01
    87ae:	10 82       	st	Z, r1
    87b0:	b7 c0       	rjmp	.+366    	; 0x8920 <f_open+0x6ea>
    87b2:	89 e0       	ldi	r24, 0x09	; 9
    87b4:	b5 c0       	rjmp	.+362    	; 0x8920 <f_open+0x6ea>
    87b6:	41 2f       	mov	r20, r17
    87b8:	4c 71       	andi	r20, 0x1C	; 28
    87ba:	59 f0       	breq	.+22     	; 0x87d2 <f_open+0x59c>
    87bc:	84 cd       	rjmp	.-1272   	; 0x82c6 <f_open+0x90>
    87be:	41 2f       	mov	r20, r17
    87c0:	4c 71       	andi	r20, 0x1C	; 28
    87c2:	a1 f5       	brne	.+104    	; 0x882c <f_open+0x5f6>
    87c4:	86 e0       	ldi	r24, 0x06	; 6
    87c6:	05 c0       	rjmp	.+10     	; 0x87d2 <f_open+0x59c>
    87c8:	81 2f       	mov	r24, r17
    87ca:	8c 71       	andi	r24, 0x1C	; 28
    87cc:	09 f0       	breq	.+2      	; 0x87d0 <f_open+0x59a>
    87ce:	87 cd       	rjmp	.-1266   	; 0x82de <f_open+0xa8>
    87d0:	32 c0       	rjmp	.+100    	; 0x8836 <f_open+0x600>
    87d2:	81 11       	cpse	r24, r1
    87d4:	ea cf       	rjmp	.-44     	; 0x87aa <f_open+0x574>
    87d6:	6a ce       	rjmp	.-812    	; 0x84ac <f_open+0x276>
    87d8:	88 23       	and	r24, r24
    87da:	09 f4       	brne	.+2      	; 0x87de <f_open+0x5a8>
    87dc:	51 ce       	rjmp	.-862    	; 0x8480 <f_open+0x24a>
    87de:	e5 cf       	rjmp	.-54     	; 0x87aa <f_open+0x574>
    87e0:	8f ef       	ldi	r24, 0xFF	; 255
    87e2:	9f ef       	ldi	r25, 0xFF	; 255
    87e4:	dc 01       	movw	r26, r24
    87e6:	f4 01       	movw	r30, r8
    87e8:	80 ab       	std	Z+48, r24	; 0x30
    87ea:	91 ab       	std	Z+49, r25	; 0x31
    87ec:	a2 ab       	std	Z+50, r26	; 0x32
    87ee:	b3 ab       	std	Z+51, r27	; 0x33
    87f0:	81 e0       	ldi	r24, 0x01	; 1
    87f2:	db cf       	rjmp	.-74     	; 0x87aa <f_open+0x574>
    87f4:	d4 01       	movw	r26, r8
    87f6:	d0 96       	adiw	r26, 0x30	; 48
    87f8:	4d 92       	st	X+, r4
    87fa:	5d 92       	st	X+, r5
    87fc:	6d 92       	st	X+, r6
    87fe:	7c 92       	st	X, r7
    8800:	d3 97       	sbiw	r26, 0x33	; 51
    8802:	23 2d       	mov	r18, r3
    8804:	69 96       	adiw	r28, 0x19	; 25
    8806:	3f ad       	ldd	r19, Y+63	; 0x3f
    8808:	69 97       	sbiw	r28, 0x19	; 25
    880a:	31 70       	andi	r19, 0x01	; 1
    880c:	40 e0       	ldi	r20, 0x00	; 0
    880e:	50 e0       	ldi	r21, 0x00	; 0
    8810:	60 e0       	ldi	r22, 0x00	; 0
    8812:	70 e0       	ldi	r23, 0x00	; 0
    8814:	80 e0       	ldi	r24, 0x00	; 0
    8816:	90 e0       	ldi	r25, 0x00	; 0
    8818:	a0 e0       	ldi	r26, 0x00	; 0
    881a:	0e 94 63 4c 	call	0x98c6	; 0x98c6 <__cmpdi2_s8>
    881e:	09 f0       	breq	.+2      	; 0x8822 <f_open+0x5ec>
    8820:	80 cf       	rjmp	.-256    	; 0x8722 <f_open+0x4ec>
    8822:	02 c0       	rjmp	.+4      	; 0x8828 <f_open+0x5f2>
    8824:	82 e0       	ldi	r24, 0x02	; 2
    8826:	c1 cf       	rjmp	.-126    	; 0x87aa <f_open+0x574>
    8828:	80 e0       	ldi	r24, 0x00	; 0
    882a:	7a c0       	rjmp	.+244    	; 0x8920 <f_open+0x6ea>
    882c:	86 e0       	ldi	r24, 0x06	; 6
    882e:	b7 2d       	mov	r27, r7
    8830:	b8 60       	ori	r27, 0x08	; 8
    8832:	7b 2e       	mov	r7, r27
    8834:	ce cf       	rjmp	.-100    	; 0x87d2 <f_open+0x59c>
    8836:	8d 81       	ldd	r24, Y+5	; 0x05
    8838:	84 fd       	sbrc	r24, 4
    883a:	70 c0       	rjmp	.+224    	; 0x891c <f_open+0x6e6>
    883c:	1b ce       	rjmp	.-970    	; 0x8474 <f_open+0x23e>
    883e:	23 2d       	mov	r18, r3
    8840:	39 2d       	mov	r19, r9
    8842:	62 96       	adiw	r28, 0x12	; 18
    8844:	4f ad       	ldd	r20, Y+63	; 0x3f
    8846:	62 97       	sbiw	r28, 0x12	; 18
    8848:	63 96       	adiw	r28, 0x13	; 19
    884a:	5f ad       	ldd	r21, Y+63	; 0x3f
    884c:	63 97       	sbiw	r28, 0x13	; 19
    884e:	62 2d       	mov	r22, r2
    8850:	64 96       	adiw	r28, 0x14	; 20
    8852:	7f ad       	ldd	r23, Y+63	; 0x3f
    8854:	64 97       	sbiw	r28, 0x14	; 20
    8856:	65 96       	adiw	r28, 0x15	; 21
    8858:	8f ad       	ldd	r24, Y+63	; 0x3f
    885a:	65 97       	sbiw	r28, 0x15	; 21
    885c:	66 96       	adiw	r28, 0x16	; 22
    885e:	9f ad       	ldd	r25, Y+63	; 0x3f
    8860:	66 97       	sbiw	r28, 0x16	; 22
    8862:	2a 96       	adiw	r28, 0x0a	; 10
    8864:	af ac       	ldd	r10, Y+63	; 0x3f
    8866:	2a 97       	sbiw	r28, 0x0a	; 10
    8868:	2b 96       	adiw	r28, 0x0b	; 11
    886a:	bf ac       	ldd	r11, Y+63	; 0x3f
    886c:	2b 97       	sbiw	r28, 0x0b	; 11
    886e:	2c 96       	adiw	r28, 0x0c	; 12
    8870:	cf ac       	ldd	r12, Y+63	; 0x3f
    8872:	2c 97       	sbiw	r28, 0x0c	; 12
    8874:	2d 96       	adiw	r28, 0x0d	; 13
    8876:	df ac       	ldd	r13, Y+63	; 0x3f
    8878:	2d 97       	sbiw	r28, 0x0d	; 13
    887a:	2e 96       	adiw	r28, 0x0e	; 14
    887c:	ef ac       	ldd	r14, Y+63	; 0x3f
    887e:	2e 97       	sbiw	r28, 0x0e	; 14
    8880:	2f 96       	adiw	r28, 0x0f	; 15
    8882:	ff ac       	ldd	r15, Y+63	; 0x3f
    8884:	2f 97       	sbiw	r28, 0x0f	; 15
    8886:	60 96       	adiw	r28, 0x10	; 16
    8888:	0f ad       	ldd	r16, Y+63	; 0x3f
    888a:	60 97       	sbiw	r28, 0x10	; 16
    888c:	61 96       	adiw	r28, 0x11	; 17
    888e:	1f ad       	ldd	r17, Y+63	; 0x3f
    8890:	61 97       	sbiw	r28, 0x11	; 17
    8892:	0e 94 51 4c 	call	0x98a2	; 0x98a2 <__subdi3>
    8896:	32 2e       	mov	r3, r18
    8898:	93 2e       	mov	r9, r19
    889a:	62 96       	adiw	r28, 0x12	; 18
    889c:	4f af       	std	Y+63, r20	; 0x3f
    889e:	62 97       	sbiw	r28, 0x12	; 18
    88a0:	63 96       	adiw	r28, 0x13	; 19
    88a2:	5f af       	std	Y+63, r21	; 0x3f
    88a4:	63 97       	sbiw	r28, 0x13	; 19
    88a6:	26 2e       	mov	r2, r22
    88a8:	64 96       	adiw	r28, 0x14	; 20
    88aa:	7f af       	std	Y+63, r23	; 0x3f
    88ac:	64 97       	sbiw	r28, 0x14	; 20
    88ae:	65 96       	adiw	r28, 0x15	; 21
    88b0:	8f af       	std	Y+63, r24	; 0x3f
    88b2:	65 97       	sbiw	r28, 0x15	; 21
    88b4:	66 96       	adiw	r28, 0x16	; 22
    88b6:	9f af       	std	Y+63, r25	; 0x3f
    88b8:	66 97       	sbiw	r28, 0x16	; 22
    88ba:	fc d7       	rcall	.+4088   	; 0x98b4 <__cmpdi2>
    88bc:	11 f0       	breq	.+4      	; 0x88c2 <f_open+0x68c>
    88be:	08 f0       	brcs	.+2      	; 0x88c2 <f_open+0x68c>
    88c0:	1f cf       	rjmp	.-450    	; 0x8700 <f_open+0x4ca>
    88c2:	69 96       	adiw	r28, 0x19	; 25
    88c4:	3f af       	std	Y+63, r19	; 0x3f
    88c6:	69 97       	sbiw	r28, 0x19	; 25
    88c8:	68 96       	adiw	r28, 0x18	; 24
    88ca:	8e ac       	ldd	r8, Y+62	; 0x3e
    88cc:	9f ac       	ldd	r9, Y+63	; 0x3f
    88ce:	68 97       	sbiw	r28, 0x18	; 24
    88d0:	91 cf       	rjmp	.-222    	; 0x87f4 <f_open+0x5be>
    88d2:	6f 3f       	cpi	r22, 0xFF	; 255
    88d4:	7f 4f       	sbci	r23, 0xFF	; 255
    88d6:	8f 4f       	sbci	r24, 0xFF	; 255
    88d8:	9f 4f       	sbci	r25, 0xFF	; 255
    88da:	09 f0       	breq	.+2      	; 0x88de <f_open+0x6a8>
    88dc:	b0 cf       	rjmp	.-160    	; 0x883e <f_open+0x608>
    88de:	68 96       	adiw	r28, 0x18	; 24
    88e0:	8e ac       	ldd	r8, Y+62	; 0x3e
    88e2:	9f ac       	ldd	r9, Y+63	; 0x3f
    88e4:	68 97       	sbiw	r28, 0x18	; 24
    88e6:	7c cf       	rjmp	.-264    	; 0x87e0 <f_open+0x5aa>
    88e8:	d4 01       	movw	r26, r8
    88ea:	d0 96       	adiw	r26, 0x30	; 48
    88ec:	4d 92       	st	X+, r4
    88ee:	5d 92       	st	X+, r5
    88f0:	6d 92       	st	X+, r6
    88f2:	7c 92       	st	X, r7
    88f4:	d3 97       	sbiw	r26, 0x33	; 51
    88f6:	82 e0       	ldi	r24, 0x02	; 2
    88f8:	58 cf       	rjmp	.-336    	; 0x87aa <f_open+0x574>
    88fa:	68 96       	adiw	r28, 0x18	; 24
    88fc:	8e ac       	ldd	r8, Y+62	; 0x3e
    88fe:	9f ac       	ldd	r9, Y+63	; 0x3f
    8900:	68 97       	sbiw	r28, 0x18	; 24
    8902:	6f 3f       	cpi	r22, 0xFF	; 255
    8904:	7f 4f       	sbci	r23, 0xFF	; 255
    8906:	8f 4f       	sbci	r24, 0xFF	; 255
    8908:	9f 4f       	sbci	r25, 0xFF	; 255
    890a:	09 f4       	brne	.+2      	; 0x890e <f_open+0x6d8>
    890c:	69 cf       	rjmp	.-302    	; 0x87e0 <f_open+0x5aa>
    890e:	ec cf       	rjmp	.-40     	; 0x88e8 <f_open+0x6b2>
    8910:	87 e0       	ldi	r24, 0x07	; 7
    8912:	4b cf       	rjmp	.-362    	; 0x87aa <f_open+0x574>
    8914:	88 e0       	ldi	r24, 0x08	; 8
    8916:	49 cf       	rjmp	.-366    	; 0x87aa <f_open+0x574>
    8918:	87 e0       	ldi	r24, 0x07	; 7
    891a:	47 cf       	rjmp	.-370    	; 0x87aa <f_open+0x574>
    891c:	84 e0       	ldi	r24, 0x04	; 4
    891e:	45 cf       	rjmp	.-374    	; 0x87aa <f_open+0x574>
    8920:	c8 5a       	subi	r28, 0xA8	; 168
    8922:	df 4f       	sbci	r29, 0xFF	; 255
    8924:	0f b6       	in	r0, 0x3f	; 63
    8926:	f8 94       	cli
    8928:	de bf       	out	0x3e, r29	; 62
    892a:	0f be       	out	0x3f, r0	; 63
    892c:	cd bf       	out	0x3d, r28	; 61
    892e:	df 91       	pop	r29
    8930:	cf 91       	pop	r28
    8932:	1f 91       	pop	r17
    8934:	0f 91       	pop	r16
    8936:	ff 90       	pop	r15
    8938:	ef 90       	pop	r14
    893a:	df 90       	pop	r13
    893c:	cf 90       	pop	r12
    893e:	bf 90       	pop	r11
    8940:	af 90       	pop	r10
    8942:	9f 90       	pop	r9
    8944:	8f 90       	pop	r8
    8946:	7f 90       	pop	r7
    8948:	6f 90       	pop	r6
    894a:	5f 90       	pop	r5
    894c:	4f 90       	pop	r4
    894e:	3f 90       	pop	r3
    8950:	2f 90       	pop	r2
    8952:	08 95       	ret

00008954 <f_getfree>:
FRESULT f_getfree (
	const TCHAR* path,	/* Logical drive number */
	DWORD* nclst,		/* Pointer to a variable to return number of free clusters */
	FATFS** fatfs		/* Pointer to return pointer to corresponding filesystem object */
)
{
    8954:	3f 92       	push	r3
    8956:	4f 92       	push	r4
    8958:	5f 92       	push	r5
    895a:	6f 92       	push	r6
    895c:	7f 92       	push	r7
    895e:	8f 92       	push	r8
    8960:	9f 92       	push	r9
    8962:	af 92       	push	r10
    8964:	bf 92       	push	r11
    8966:	cf 92       	push	r12
    8968:	df 92       	push	r13
    896a:	ef 92       	push	r14
    896c:	ff 92       	push	r15
    896e:	0f 93       	push	r16
    8970:	1f 93       	push	r17
    8972:	cf 93       	push	r28
    8974:	df 93       	push	r29
    8976:	cd b7       	in	r28, 0x3d	; 61
    8978:	de b7       	in	r29, 0x3e	; 62
    897a:	e0 97       	sbiw	r28, 0x30	; 48
    897c:	0f b6       	in	r0, 0x3f	; 63
    897e:	f8 94       	cli
    8980:	de bf       	out	0x3e, r29	; 62
    8982:	0f be       	out	0x3f, r0	; 63
    8984:	cd bf       	out	0x3d, r28	; 61
    8986:	9a a7       	std	Y+42, r25	; 0x2a
    8988:	89 a7       	std	Y+41, r24	; 0x29
    898a:	78 ab       	std	Y+48, r23	; 0x30
    898c:	6f a7       	std	Y+47, r22	; 0x2f
    898e:	8a 01       	movw	r16, r20
	UINT i;
	FFOBJID obj;


	/* Get logical drive */
	res = find_volume(&path, &fs, 0);
    8990:	40 e0       	ldi	r20, 0x00	; 0
    8992:	be 01       	movw	r22, r28
    8994:	6f 5f       	subi	r22, 0xFF	; 255
    8996:	7f 4f       	sbci	r23, 0xFF	; 255
    8998:	ce 01       	movw	r24, r28
    899a:	89 96       	adiw	r24, 0x29	; 41
    899c:	0e 94 ba 30 	call	0x6174	; 0x6174 <find_volume>
    89a0:	38 2e       	mov	r3, r24
	if (res == FR_OK) {
    89a2:	81 11       	cpse	r24, r1
    89a4:	23 c1       	rjmp	.+582    	; 0x8bec <f_getfree+0x298>
		*fatfs = fs;				/* Return ptr to the fs object */
    89a6:	e9 81       	ldd	r30, Y+1	; 0x01
    89a8:	fa 81       	ldd	r31, Y+2	; 0x02
    89aa:	d8 01       	movw	r26, r16
    89ac:	ed 93       	st	X+, r30
    89ae:	fc 93       	st	X, r31
		/* If free_clst is valid, return it without full FAT scan */
		if (fs->free_clst <= fs->n_fatent - 2) {
    89b0:	83 89       	ldd	r24, Z+19	; 0x13
    89b2:	94 89       	ldd	r25, Z+20	; 0x14
    89b4:	a5 89       	ldd	r26, Z+21	; 0x15
    89b6:	b6 89       	ldd	r27, Z+22	; 0x16
    89b8:	47 a0       	ldd	r4, Z+39	; 0x27
    89ba:	50 a4       	ldd	r5, Z+40	; 0x28
    89bc:	61 a4       	ldd	r6, Z+41	; 0x29
    89be:	72 a4       	ldd	r7, Z+42	; 0x2a
    89c0:	53 01       	movw	r10, r6
    89c2:	42 01       	movw	r8, r4
    89c4:	22 e0       	ldi	r18, 0x02	; 2
    89c6:	82 1a       	sub	r8, r18
    89c8:	91 08       	sbc	r9, r1
    89ca:	a1 08       	sbc	r10, r1
    89cc:	b1 08       	sbc	r11, r1
    89ce:	88 16       	cp	r8, r24
    89d0:	99 06       	cpc	r9, r25
    89d2:	aa 06       	cpc	r10, r26
    89d4:	bb 06       	cpc	r11, r27
    89d6:	38 f0       	brcs	.+14     	; 0x89e6 <f_getfree+0x92>
			*nclst = fs->free_clst;
    89d8:	ef a5       	ldd	r30, Y+47	; 0x2f
    89da:	f8 a9       	ldd	r31, Y+48	; 0x30
    89dc:	80 83       	st	Z, r24
    89de:	91 83       	std	Z+1, r25	; 0x01
    89e0:	a2 83       	std	Z+2, r26	; 0x02
    89e2:	b3 83       	std	Z+3, r27	; 0x03
    89e4:	03 c1       	rjmp	.+518    	; 0x8bec <f_getfree+0x298>
		} else {
			/* Scan FAT to obtain number of free clusters */
			nfree = 0;
			if (fs->fs_type == FS_FAT12) {	/* FAT12: Scan bit field FAT entries */
    89e6:	80 81       	ld	r24, Z
    89e8:	81 30       	cpi	r24, 0x01	; 1
    89ea:	b9 f5       	brne	.+110    	; 0x8a5a <f_getfree+0x106>
				clst = 2; obj.fs = fs;
    89ec:	fc 83       	std	Y+4, r31	; 0x04
    89ee:	eb 83       	std	Y+3, r30	; 0x03
    89f0:	81 2c       	mov	r8, r1
    89f2:	91 2c       	mov	r9, r1
    89f4:	54 01       	movw	r10, r8
    89f6:	68 94       	set
    89f8:	81 f8       	bld	r8, 1
		/* If free_clst is valid, return it without full FAT scan */
		if (fs->free_clst <= fs->n_fatent - 2) {
			*nclst = fs->free_clst;
		} else {
			/* Scan FAT to obtain number of free clusters */
			nfree = 0;
    89fa:	c1 2c       	mov	r12, r1
    89fc:	d1 2c       	mov	r13, r1
    89fe:	76 01       	movw	r14, r12
			if (fs->fs_type == FS_FAT12) {	/* FAT12: Scan bit field FAT entries */
				clst = 2; obj.fs = fs;
				do {
					stat = get_fat(&obj, clst);
    8a00:	b5 01       	movw	r22, r10
    8a02:	a4 01       	movw	r20, r8
    8a04:	ce 01       	movw	r24, r28
    8a06:	03 96       	adiw	r24, 0x03	; 3
    8a08:	0e 94 33 27 	call	0x4e66	; 0x4e66 <get_fat>
					if (stat == 0xFFFFFFFF) { res = FR_DISK_ERR; break; }
    8a0c:	6f 3f       	cpi	r22, 0xFF	; 255
    8a0e:	ff ef       	ldi	r31, 0xFF	; 255
    8a10:	7f 07       	cpc	r23, r31
    8a12:	8f 07       	cpc	r24, r31
    8a14:	9f 07       	cpc	r25, r31
    8a16:	09 f4       	brne	.+2      	; 0x8a1a <f_getfree+0xc6>
    8a18:	d0 c0       	rjmp	.+416    	; 0x8bba <f_getfree+0x266>
					if (stat == 1) { res = FR_INT_ERR; break; }
    8a1a:	61 30       	cpi	r22, 0x01	; 1
    8a1c:	71 05       	cpc	r23, r1
    8a1e:	81 05       	cpc	r24, r1
    8a20:	91 05       	cpc	r25, r1
    8a22:	09 f4       	brne	.+2      	; 0x8a26 <f_getfree+0xd2>
    8a24:	cd c0       	rjmp	.+410    	; 0x8bc0 <f_getfree+0x26c>
					if (stat == 0) nfree++;
    8a26:	67 2b       	or	r22, r23
    8a28:	68 2b       	or	r22, r24
    8a2a:	69 2b       	or	r22, r25
    8a2c:	29 f4       	brne	.+10     	; 0x8a38 <f_getfree+0xe4>
    8a2e:	2f ef       	ldi	r18, 0xFF	; 255
    8a30:	c2 1a       	sub	r12, r18
    8a32:	d2 0a       	sbc	r13, r18
    8a34:	e2 0a       	sbc	r14, r18
    8a36:	f2 0a       	sbc	r15, r18
				} while (++clst < fs->n_fatent);
    8a38:	8f ef       	ldi	r24, 0xFF	; 255
    8a3a:	88 1a       	sub	r8, r24
    8a3c:	98 0a       	sbc	r9, r24
    8a3e:	a8 0a       	sbc	r10, r24
    8a40:	b8 0a       	sbc	r11, r24
    8a42:	e9 81       	ldd	r30, Y+1	; 0x01
    8a44:	fa 81       	ldd	r31, Y+2	; 0x02
    8a46:	87 a1       	ldd	r24, Z+39	; 0x27
    8a48:	90 a5       	ldd	r25, Z+40	; 0x28
    8a4a:	a1 a5       	ldd	r26, Z+41	; 0x29
    8a4c:	b2 a5       	ldd	r27, Z+42	; 0x2a
    8a4e:	88 16       	cp	r8, r24
    8a50:	99 06       	cpc	r9, r25
    8a52:	aa 06       	cpc	r10, r26
    8a54:	bb 06       	cpc	r11, r27
    8a56:	a0 f2       	brcs	.-88     	; 0x8a00 <f_getfree+0xac>
    8a58:	ba c0       	rjmp	.+372    	; 0x8bce <f_getfree+0x27a>
			} else {
#if FF_FS_EXFAT
				if (fs->fs_type == FS_EXFAT) {	/* exFAT: Scan allocation bitmap */
    8a5a:	84 30       	cpi	r24, 0x04	; 4
    8a5c:	09 f0       	breq	.+2      	; 0x8a60 <f_getfree+0x10c>
    8a5e:	55 c0       	rjmp	.+170    	; 0x8b0a <f_getfree+0x1b6>
					BYTE bm;
					UINT b;

					clst = fs->n_fatent - 2;	/* Number of clusters */
					sect = fs->bitbase;			/* Bitmap sector */
    8a60:	ff 96       	adiw	r30, 0x3f	; 63
    8a62:	40 81       	ld	r20, Z
    8a64:	51 81       	ldd	r21, Z+1	; 0x01
    8a66:	62 81       	ldd	r22, Z+2	; 0x02
    8a68:	73 81       	ldd	r23, Z+3	; 0x03
					i = 0;						/* Offset in the sector */
    8a6a:	00 e0       	ldi	r16, 0x00	; 0
    8a6c:	10 e0       	ldi	r17, 0x00	; 0
		/* If free_clst is valid, return it without full FAT scan */
		if (fs->free_clst <= fs->n_fatent - 2) {
			*nclst = fs->free_clst;
		} else {
			/* Scan FAT to obtain number of free clusters */
			nfree = 0;
    8a6e:	c1 2c       	mov	r12, r1
    8a70:	d1 2c       	mov	r13, r1
    8a72:	76 01       	movw	r14, r12
    8a74:	02 c0       	rjmp	.+4      	; 0x8a7a <f_getfree+0x126>
					do {	/* Counts numbuer of bits with zero in the bitmap */
						if (i == 0) {
							res = move_window(fs, sect++);
							if (res != FR_OK) break;
						}
						for (b = 8, bm = fs->win[i]; b && clst; b--, clst--) {
    8a76:	53 01       	movw	r10, r6
    8a78:	42 01       	movw	r8, r4

					clst = fs->n_fatent - 2;	/* Number of clusters */
					sect = fs->bitbase;			/* Bitmap sector */
					i = 0;						/* Offset in the sector */
					do {	/* Counts numbuer of bits with zero in the bitmap */
						if (i == 0) {
    8a7a:	01 15       	cp	r16, r1
    8a7c:	11 05       	cpc	r17, r1
    8a7e:	79 f4       	brne	.+30     	; 0x8a9e <f_getfree+0x14a>
							res = move_window(fs, sect++);
    8a80:	2a 01       	movw	r4, r20
    8a82:	3b 01       	movw	r6, r22
    8a84:	9f ef       	ldi	r25, 0xFF	; 255
    8a86:	49 1a       	sub	r4, r25
    8a88:	59 0a       	sbc	r5, r25
    8a8a:	69 0a       	sbc	r6, r25
    8a8c:	79 0a       	sbc	r7, r25
    8a8e:	89 81       	ldd	r24, Y+1	; 0x01
    8a90:	9a 81       	ldd	r25, Y+2	; 0x02
    8a92:	0e 94 8f 22 	call	0x451e	; 0x451e <move_window>
							if (res != FR_OK) break;
    8a96:	81 11       	cpse	r24, r1
    8a98:	97 c0       	rjmp	.+302    	; 0x8bc8 <f_getfree+0x274>
					clst = fs->n_fatent - 2;	/* Number of clusters */
					sect = fs->bitbase;			/* Bitmap sector */
					i = 0;						/* Offset in the sector */
					do {	/* Counts numbuer of bits with zero in the bitmap */
						if (i == 0) {
							res = move_window(fs, sect++);
    8a9a:	b3 01       	movw	r22, r6
    8a9c:	a2 01       	movw	r20, r4
							if (res != FR_OK) break;
						}
						for (b = 8, bm = fs->win[i]; b && clst; b--, clst--) {
    8a9e:	e9 81       	ldd	r30, Y+1	; 0x01
    8aa0:	fa 81       	ldd	r31, Y+2	; 0x02
    8aa2:	e0 0f       	add	r30, r16
    8aa4:	f1 1f       	adc	r31, r17
    8aa6:	e9 5b       	subi	r30, 0xB9	; 185
    8aa8:	ff 4f       	sbci	r31, 0xFF	; 255
    8aaa:	80 81       	ld	r24, Z
    8aac:	81 14       	cp	r8, r1
    8aae:	91 04       	cpc	r9, r1
    8ab0:	a1 04       	cpc	r10, r1
    8ab2:	b1 04       	cpc	r11, r1
    8ab4:	09 f4       	brne	.+2      	; 0x8ab8 <f_getfree+0x164>
    8ab6:	8b c0       	rjmp	.+278    	; 0x8bce <f_getfree+0x27a>
    8ab8:	24 01       	movw	r4, r8
    8aba:	35 01       	movw	r6, r10
    8abc:	a8 e0       	ldi	r26, 0x08	; 8
    8abe:	4a 1a       	sub	r4, r26
    8ac0:	51 08       	sbc	r5, r1
    8ac2:	61 08       	sbc	r6, r1
    8ac4:	71 08       	sbc	r7, r1
							if (!(bm & 1)) nfree++;
    8ac6:	80 fd       	sbrc	r24, 0
    8ac8:	05 c0       	rjmp	.+10     	; 0x8ad4 <f_getfree+0x180>
    8aca:	bf ef       	ldi	r27, 0xFF	; 255
    8acc:	cb 1a       	sub	r12, r27
    8ace:	db 0a       	sbc	r13, r27
    8ad0:	eb 0a       	sbc	r14, r27
    8ad2:	fb 0a       	sbc	r15, r27
							bm >>= 1;
    8ad4:	86 95       	lsr	r24
					do {	/* Counts numbuer of bits with zero in the bitmap */
						if (i == 0) {
							res = move_window(fs, sect++);
							if (res != FR_OK) break;
						}
						for (b = 8, bm = fs->win[i]; b && clst; b--, clst--) {
    8ad6:	e1 e0       	ldi	r30, 0x01	; 1
    8ad8:	8e 1a       	sub	r8, r30
    8ada:	91 08       	sbc	r9, r1
    8adc:	a1 08       	sbc	r10, r1
    8ade:	b1 08       	sbc	r11, r1
    8ae0:	84 14       	cp	r8, r4
    8ae2:	95 04       	cpc	r9, r5
    8ae4:	a6 04       	cpc	r10, r6
    8ae6:	b7 04       	cpc	r11, r7
    8ae8:	31 f0       	breq	.+12     	; 0x8af6 <f_getfree+0x1a2>
    8aea:	81 14       	cp	r8, r1
    8aec:	91 04       	cpc	r9, r1
    8aee:	a1 04       	cpc	r10, r1
    8af0:	b1 04       	cpc	r11, r1
    8af2:	49 f7       	brne	.-46     	; 0x8ac6 <f_getfree+0x172>
    8af4:	6c c0       	rjmp	.+216    	; 0x8bce <f_getfree+0x27a>
							if (!(bm & 1)) nfree++;
							bm >>= 1;
						}
						i = (i + 1) % SS(fs);
    8af6:	0f 5f       	subi	r16, 0xFF	; 255
    8af8:	1f 4f       	sbci	r17, 0xFF	; 255
    8afa:	11 70       	andi	r17, 0x01	; 1
					} while (clst);
    8afc:	41 14       	cp	r4, r1
    8afe:	51 04       	cpc	r5, r1
    8b00:	61 04       	cpc	r6, r1
    8b02:	71 04       	cpc	r7, r1
    8b04:	09 f0       	breq	.+2      	; 0x8b08 <f_getfree+0x1b4>
    8b06:	b7 cf       	rjmp	.-146    	; 0x8a76 <f_getfree+0x122>
    8b08:	62 c0       	rjmp	.+196    	; 0x8bce <f_getfree+0x27a>
				} else
#endif
				{	/* FAT16/32: Scan WORD/DWORD FAT entries */
					clst = fs->n_fatent;	/* Number of entries */
					sect = fs->fatbase;		/* Top of the FAT */
    8b0a:	83 a8       	ldd	r8, Z+51	; 0x33
    8b0c:	94 a8       	ldd	r9, Z+52	; 0x34
    8b0e:	a5 a8       	ldd	r10, Z+53	; 0x35
    8b10:	b6 a8       	ldd	r11, Z+54	; 0x36
					i = 0;					/* Offset in the sector */
    8b12:	00 e0       	ldi	r16, 0x00	; 0
    8b14:	10 e0       	ldi	r17, 0x00	; 0
		/* If free_clst is valid, return it without full FAT scan */
		if (fs->free_clst <= fs->n_fatent - 2) {
			*nclst = fs->free_clst;
		} else {
			/* Scan FAT to obtain number of free clusters */
			nfree = 0;
    8b16:	c1 2c       	mov	r12, r1
    8b18:	d1 2c       	mov	r13, r1
    8b1a:	76 01       	movw	r14, r12
				{	/* FAT16/32: Scan WORD/DWORD FAT entries */
					clst = fs->n_fatent;	/* Number of entries */
					sect = fs->fatbase;		/* Top of the FAT */
					i = 0;					/* Offset in the sector */
					do {	/* Counts numbuer of entries with zero in the FAT */
						if (i == 0) {
    8b1c:	01 15       	cp	r16, r1
    8b1e:	11 05       	cpc	r17, r1
    8b20:	a9 f4       	brne	.+42     	; 0x8b4c <f_getfree+0x1f8>
							res = move_window(fs, sect++);
    8b22:	d5 01       	movw	r26, r10
    8b24:	c4 01       	movw	r24, r8
    8b26:	01 96       	adiw	r24, 0x01	; 1
    8b28:	a1 1d       	adc	r26, r1
    8b2a:	b1 1d       	adc	r27, r1
    8b2c:	8b a7       	std	Y+43, r24	; 0x2b
    8b2e:	9c a7       	std	Y+44, r25	; 0x2c
    8b30:	ad a7       	std	Y+45, r26	; 0x2d
    8b32:	be a7       	std	Y+46, r27	; 0x2e
    8b34:	b5 01       	movw	r22, r10
    8b36:	a4 01       	movw	r20, r8
    8b38:	89 81       	ldd	r24, Y+1	; 0x01
    8b3a:	9a 81       	ldd	r25, Y+2	; 0x02
    8b3c:	0e 94 8f 22 	call	0x451e	; 0x451e <move_window>
							if (res != FR_OK) break;
    8b40:	81 11       	cpse	r24, r1
    8b42:	44 c0       	rjmp	.+136    	; 0x8bcc <f_getfree+0x278>
					clst = fs->n_fatent;	/* Number of entries */
					sect = fs->fatbase;		/* Top of the FAT */
					i = 0;					/* Offset in the sector */
					do {	/* Counts numbuer of entries with zero in the FAT */
						if (i == 0) {
							res = move_window(fs, sect++);
    8b44:	8b a4       	ldd	r8, Y+43	; 0x2b
    8b46:	9c a4       	ldd	r9, Y+44	; 0x2c
    8b48:	ad a4       	ldd	r10, Y+45	; 0x2d
    8b4a:	be a4       	ldd	r11, Y+46	; 0x2e
							if (res != FR_OK) break;
						}
						if (fs->fs_type == FS_FAT16) {
    8b4c:	e9 81       	ldd	r30, Y+1	; 0x01
    8b4e:	fa 81       	ldd	r31, Y+2	; 0x02
    8b50:	80 81       	ld	r24, Z
    8b52:	82 30       	cpi	r24, 0x02	; 2
    8b54:	a1 f4       	brne	.+40     	; 0x8b7e <f_getfree+0x22a>
							if (ld_word(fs->win + i) == 0) nfree++;
    8b56:	e9 5b       	subi	r30, 0xB9	; 185
    8b58:	ff 4f       	sbci	r31, 0xFF	; 255
    8b5a:	e0 0f       	add	r30, r16
    8b5c:	f1 1f       	adc	r31, r17
static WORD ld_word (const BYTE* ptr)	/*	 Load a 2-byte little-endian word */
{
	WORD rv;

	rv = ptr[1];
	rv = rv << 8 | ptr[0];
    8b5e:	81 81       	ldd	r24, Z+1	; 0x01
    8b60:	90 e0       	ldi	r25, 0x00	; 0
    8b62:	98 2f       	mov	r25, r24
    8b64:	88 27       	eor	r24, r24
						if (i == 0) {
							res = move_window(fs, sect++);
							if (res != FR_OK) break;
						}
						if (fs->fs_type == FS_FAT16) {
							if (ld_word(fs->win + i) == 0) nfree++;
    8b66:	20 81       	ld	r18, Z
    8b68:	82 2b       	or	r24, r18
    8b6a:	89 2b       	or	r24, r25
    8b6c:	29 f4       	brne	.+10     	; 0x8b78 <f_getfree+0x224>
    8b6e:	9f ef       	ldi	r25, 0xFF	; 255
    8b70:	c9 1a       	sub	r12, r25
    8b72:	d9 0a       	sbc	r13, r25
    8b74:	e9 0a       	sbc	r14, r25
    8b76:	f9 0a       	sbc	r15, r25
							i += 2;
    8b78:	0e 5f       	subi	r16, 0xFE	; 254
    8b7a:	1f 4f       	sbci	r17, 0xFF	; 255
    8b7c:	15 c0       	rjmp	.+42     	; 0x8ba8 <f_getfree+0x254>
						} else {
							if ((ld_dword(fs->win + i) & 0x0FFFFFFF) == 0) nfree++;
    8b7e:	cf 01       	movw	r24, r30
    8b80:	89 5b       	subi	r24, 0xB9	; 185
    8b82:	9f 4f       	sbci	r25, 0xFF	; 255
    8b84:	80 0f       	add	r24, r16
    8b86:	91 1f       	adc	r25, r17
    8b88:	0e 94 7d 20 	call	0x40fa	; 0x40fa <ld_dword>
    8b8c:	dc 01       	movw	r26, r24
    8b8e:	cb 01       	movw	r24, r22
    8b90:	bf 70       	andi	r27, 0x0F	; 15
    8b92:	89 2b       	or	r24, r25
    8b94:	8a 2b       	or	r24, r26
    8b96:	8b 2b       	or	r24, r27
    8b98:	29 f4       	brne	.+10     	; 0x8ba4 <f_getfree+0x250>
    8b9a:	af ef       	ldi	r26, 0xFF	; 255
    8b9c:	ca 1a       	sub	r12, r26
    8b9e:	da 0a       	sbc	r13, r26
    8ba0:	ea 0a       	sbc	r14, r26
    8ba2:	fa 0a       	sbc	r15, r26
							i += 4;
    8ba4:	0c 5f       	subi	r16, 0xFC	; 252
    8ba6:	1f 4f       	sbci	r17, 0xFF	; 255
						}
						i %= SS(fs);
    8ba8:	11 70       	andi	r17, 0x01	; 1
					} while (--clst);
    8baa:	b1 e0       	ldi	r27, 0x01	; 1
    8bac:	4b 1a       	sub	r4, r27
    8bae:	51 08       	sbc	r5, r1
    8bb0:	61 08       	sbc	r6, r1
    8bb2:	71 08       	sbc	r7, r1
    8bb4:	09 f0       	breq	.+2      	; 0x8bb8 <f_getfree+0x264>
    8bb6:	b2 cf       	rjmp	.-156    	; 0x8b1c <f_getfree+0x1c8>
    8bb8:	0a c0       	rjmp	.+20     	; 0x8bce <f_getfree+0x27a>
			nfree = 0;
			if (fs->fs_type == FS_FAT12) {	/* FAT12: Scan bit field FAT entries */
				clst = 2; obj.fs = fs;
				do {
					stat = get_fat(&obj, clst);
					if (stat == 0xFFFFFFFF) { res = FR_DISK_ERR; break; }
    8bba:	33 24       	eor	r3, r3
    8bbc:	33 94       	inc	r3
    8bbe:	07 c0       	rjmp	.+14     	; 0x8bce <f_getfree+0x27a>
					if (stat == 1) { res = FR_INT_ERR; break; }
    8bc0:	68 94       	set
    8bc2:	33 24       	eor	r3, r3
    8bc4:	31 f8       	bld	r3, 1
    8bc6:	03 c0       	rjmp	.+6      	; 0x8bce <f_getfree+0x27a>
					clst = fs->n_fatent - 2;	/* Number of clusters */
					sect = fs->bitbase;			/* Bitmap sector */
					i = 0;						/* Offset in the sector */
					do {	/* Counts numbuer of bits with zero in the bitmap */
						if (i == 0) {
							res = move_window(fs, sect++);
    8bc8:	38 2e       	mov	r3, r24
    8bca:	01 c0       	rjmp	.+2      	; 0x8bce <f_getfree+0x27a>
					clst = fs->n_fatent;	/* Number of entries */
					sect = fs->fatbase;		/* Top of the FAT */
					i = 0;					/* Offset in the sector */
					do {	/* Counts numbuer of entries with zero in the FAT */
						if (i == 0) {
							res = move_window(fs, sect++);
    8bcc:	38 2e       	mov	r3, r24
						}
						i %= SS(fs);
					} while (--clst);
				}
			}
			*nclst = nfree;			/* Return the free clusters */
    8bce:	ef a5       	ldd	r30, Y+47	; 0x2f
    8bd0:	f8 a9       	ldd	r31, Y+48	; 0x30
    8bd2:	c0 82       	st	Z, r12
    8bd4:	d1 82       	std	Z+1, r13	; 0x01
    8bd6:	e2 82       	std	Z+2, r14	; 0x02
    8bd8:	f3 82       	std	Z+3, r15	; 0x03
			fs->free_clst = nfree;	/* Now free_clst is valid */
    8bda:	e9 81       	ldd	r30, Y+1	; 0x01
    8bdc:	fa 81       	ldd	r31, Y+2	; 0x02
    8bde:	c3 8a       	std	Z+19, r12	; 0x13
    8be0:	d4 8a       	std	Z+20, r13	; 0x14
    8be2:	e5 8a       	std	Z+21, r14	; 0x15
    8be4:	f6 8a       	std	Z+22, r15	; 0x16
			fs->fsi_flag |= 1;		/* FAT32: FSInfo is to be updated */
    8be6:	84 81       	ldd	r24, Z+4	; 0x04
    8be8:	81 60       	ori	r24, 0x01	; 1
    8bea:	84 83       	std	Z+4, r24	; 0x04
		}
	}

	LEAVE_FF(fs, res);
}
    8bec:	83 2d       	mov	r24, r3
    8bee:	e0 96       	adiw	r28, 0x30	; 48
    8bf0:	0f b6       	in	r0, 0x3f	; 63
    8bf2:	f8 94       	cli
    8bf4:	de bf       	out	0x3e, r29	; 62
    8bf6:	0f be       	out	0x3f, r0	; 63
    8bf8:	cd bf       	out	0x3d, r28	; 61
    8bfa:	df 91       	pop	r29
    8bfc:	cf 91       	pop	r28
    8bfe:	1f 91       	pop	r17
    8c00:	0f 91       	pop	r16
    8c02:	ff 90       	pop	r15
    8c04:	ef 90       	pop	r14
    8c06:	df 90       	pop	r13
    8c08:	cf 90       	pop	r12
    8c0a:	bf 90       	pop	r11
    8c0c:	af 90       	pop	r10
    8c0e:	9f 90       	pop	r9
    8c10:	8f 90       	pop	r8
    8c12:	7f 90       	pop	r7
    8c14:	6f 90       	pop	r6
    8c16:	5f 90       	pop	r5
    8c18:	4f 90       	pop	r4
    8c1a:	3f 90       	pop	r3
    8c1c:	08 95       	ret

00008c1e <ff_uni2oem>:

WCHAR ff_uni2oem(	/* Returns converted character, zero on error */
	DWORD	uni,	/* Character code to be converted */
	WORD	cp		/* OEM code page */
)
{
    8c1e:	cf 93       	push	r28
    8c20:	df 93       	push	r29
	WCHAR c = 0;
	WCHAR d, uc;
	int i, n, li, hi;


	if (uni < 0x80) {	/* ASCII? */
    8c22:	60 38       	cpi	r22, 0x80	; 128
    8c24:	71 05       	cpc	r23, r1
    8c26:	81 05       	cpc	r24, r1
    8c28:	91 05       	cpc	r25, r1
    8c2a:	18 f4       	brcc	.+6      	; 0x8c32 <ff_uni2oem+0x14>
		c = (WCHAR)uni;
    8c2c:	26 2f       	mov	r18, r22
    8c2e:	97 2f       	mov	r25, r23
    8c30:	50 c0       	rjmp	.+160    	; 0x8cd2 <ff_uni2oem+0xb4>

	} else {			/* Unicode to CP932 */
		if (uni < 0x10000) { /* Is it in BMP? */
    8c32:	61 15       	cp	r22, r1
    8c34:	71 05       	cpc	r23, r1
    8c36:	21 e0       	ldi	r18, 0x01	; 1
    8c38:	82 07       	cpc	r24, r18
    8c3a:	91 05       	cpc	r25, r1
    8c3c:	08 f0       	brcs	.+2      	; 0x8c40 <ff_uni2oem+0x22>
    8c3e:	37 c0       	rjmp	.+110    	; 0x8cae <ff_uni2oem+0x90>
			uc = (WCHAR)uni;
			if (cp == FF_CODE_PAGE) {
    8c40:	44 3a       	cpi	r20, 0xA4	; 164
    8c42:	53 40       	sbci	r21, 0x03	; 3
    8c44:	09 f0       	breq	.+2      	; 0x8c48 <ff_uni2oem+0x2a>
    8c46:	36 c0       	rjmp	.+108    	; 0x8cb4 <ff_uni2oem+0x96>
				li = 0; hi = sizeof uni2sjis / 4 - 1;
				for (n = 16; n; n--) {
					i = li + (hi - li) / 2;
					d = (WCHAR)pgm_read_word(&uni2sjis[i * 2]);
    8c48:	ec ef       	ldi	r30, 0xFC	; 252
    8c4a:	f1 e2       	ldi	r31, 0x21	; 33
    8c4c:	25 91       	lpm	r18, Z+
    8c4e:	34 91       	lpm	r19, Z
					if (uc == d) break;
    8c50:	62 17       	cp	r22, r18
    8c52:	73 07       	cpc	r23, r19
    8c54:	91 f1       	breq	.+100    	; 0x8cba <ff_uni2oem+0x9c>
    8c56:	40 e1       	ldi	r20, 0x10	; 16
    8c58:	50 e0       	ldi	r21, 0x00	; 0
    8c5a:	86 e9       	ldi	r24, 0x96	; 150
    8c5c:	97 e0       	ldi	r25, 0x07	; 7
    8c5e:	cc e2       	ldi	r28, 0x2C	; 44
    8c60:	df e0       	ldi	r29, 0x0F	; 15
    8c62:	a0 e0       	ldi	r26, 0x00	; 0
    8c64:	b0 e0       	ldi	r27, 0x00	; 0
    8c66:	17 c0       	rjmp	.+46     	; 0x8c96 <ff_uni2oem+0x78>
		if (uni < 0x10000) { /* Is it in BMP? */
			uc = (WCHAR)uni;
			if (cp == FF_CODE_PAGE) {
				li = 0; hi = sizeof uni2sjis / 4 - 1;
				for (n = 16; n; n--) {
					i = li + (hi - li) / 2;
    8c68:	9e 01       	movw	r18, r28
    8c6a:	2a 1b       	sub	r18, r26
    8c6c:	3b 0b       	sbc	r19, r27
    8c6e:	c9 01       	movw	r24, r18
    8c70:	99 23       	and	r25, r25
    8c72:	0c f4       	brge	.+2      	; 0x8c76 <ff_uni2oem+0x58>
    8c74:	01 96       	adiw	r24, 0x01	; 1
    8c76:	95 95       	asr	r25
    8c78:	87 95       	ror	r24
    8c7a:	8a 0f       	add	r24, r26
    8c7c:	9b 1f       	adc	r25, r27
					d = (WCHAR)pgm_read_word(&uni2sjis[i * 2]);
    8c7e:	fc 01       	movw	r30, r24
    8c80:	ee 0f       	add	r30, r30
    8c82:	ff 1f       	adc	r31, r31
    8c84:	ee 0f       	add	r30, r30
    8c86:	ff 1f       	adc	r31, r31
    8c88:	ec 55       	subi	r30, 0x5C	; 92
    8c8a:	fc 4f       	sbci	r31, 0xFC	; 252
    8c8c:	25 91       	lpm	r18, Z+
    8c8e:	34 91       	lpm	r19, Z
					if (uc == d) break;
    8c90:	62 17       	cp	r22, r18
    8c92:	73 07       	cpc	r23, r19
    8c94:	a1 f0       	breq	.+40     	; 0x8cbe <ff_uni2oem+0xa0>
					if (uc > d) {
    8c96:	26 17       	cp	r18, r22
    8c98:	37 07       	cpc	r19, r23
    8c9a:	10 f0       	brcs	.+4      	; 0x8ca0 <ff_uni2oem+0x82>
    8c9c:	ec 01       	movw	r28, r24
    8c9e:	01 c0       	rjmp	.+2      	; 0x8ca2 <ff_uni2oem+0x84>
    8ca0:	dc 01       	movw	r26, r24
    8ca2:	41 50       	subi	r20, 0x01	; 1
    8ca4:	51 09       	sbc	r21, r1
	} else {			/* Unicode to CP932 */
		if (uni < 0x10000) { /* Is it in BMP? */
			uc = (WCHAR)uni;
			if (cp == FF_CODE_PAGE) {
				li = 0; hi = sizeof uni2sjis / 4 - 1;
				for (n = 16; n; n--) {
    8ca6:	01 f7       	brne	.-64     	; 0x8c68 <ff_uni2oem+0x4a>
						li = i;
					} else {
						hi = i;
					}
				}
				c = n ? (WCHAR)pgm_read_word(&uni2sjis[i * 2 + 1]) : 0;
    8ca8:	20 e0       	ldi	r18, 0x00	; 0
    8caa:	90 e0       	ldi	r25, 0x00	; 0
    8cac:	12 c0       	rjmp	.+36     	; 0x8cd2 <ff_uni2oem+0xb4>
WCHAR ff_uni2oem(	/* Returns converted character, zero on error */
	DWORD	uni,	/* Character code to be converted */
	WORD	cp		/* OEM code page */
)
{
	WCHAR c = 0;
    8cae:	20 e0       	ldi	r18, 0x00	; 0
    8cb0:	90 e0       	ldi	r25, 0x00	; 0
    8cb2:	0f c0       	rjmp	.+30     	; 0x8cd2 <ff_uni2oem+0xb4>
    8cb4:	20 e0       	ldi	r18, 0x00	; 0
    8cb6:	90 e0       	ldi	r25, 0x00	; 0
    8cb8:	0c c0       	rjmp	.+24     	; 0x8cd2 <ff_uni2oem+0xb4>
		if (uni < 0x10000) { /* Is it in BMP? */
			uc = (WCHAR)uni;
			if (cp == FF_CODE_PAGE) {
				li = 0; hi = sizeof uni2sjis / 4 - 1;
				for (n = 16; n; n--) {
					i = li + (hi - li) / 2;
    8cba:	86 e9       	ldi	r24, 0x96	; 150
    8cbc:	97 e0       	ldi	r25, 0x07	; 7
						li = i;
					} else {
						hi = i;
					}
				}
				c = n ? (WCHAR)pgm_read_word(&uni2sjis[i * 2 + 1]) : 0;
    8cbe:	fc 01       	movw	r30, r24
    8cc0:	ee 0f       	add	r30, r30
    8cc2:	ff 1f       	adc	r31, r31
    8cc4:	ee 0f       	add	r30, r30
    8cc6:	ff 1f       	adc	r31, r31
    8cc8:	ea 55       	subi	r30, 0x5A	; 90
    8cca:	fc 4f       	sbci	r31, 0xFC	; 252
    8ccc:	85 91       	lpm	r24, Z+
    8cce:	94 91       	lpm	r25, Z
    8cd0:	28 2f       	mov	r18, r24
			}
		}
	}

	return c;
}
    8cd2:	82 2f       	mov	r24, r18
    8cd4:	df 91       	pop	r29
    8cd6:	cf 91       	pop	r28
    8cd8:	08 95       	ret

00008cda <ff_oem2uni>:
{
	const WCHAR *p;
	WCHAR c = 0;


	if (oem < 0x80) {	/* ASCII? */
    8cda:	80 38       	cpi	r24, 0x80	; 128
    8cdc:	91 05       	cpc	r25, r1
    8cde:	b8 f0       	brcs	.+46     	; 0x8d0e <ff_oem2uni+0x34>
		c = oem;

	} else {			/* CP932 to unicode (in incremental search) */
		if (cp == FF_CODE_PAGE) {
    8ce0:	64 3a       	cpi	r22, 0xA4	; 164
    8ce2:	73 40       	sbci	r23, 0x03	; 3
    8ce4:	91 f4       	brne	.+36     	; 0x8d0a <ff_oem2uni+0x30>
    8ce6:	46 ea       	ldi	r20, 0xA6	; 166
    8ce8:	53 e0       	ldi	r21, 0x03	; 3
			p = &uni2sjis[1];
			do {
				c = (WCHAR)pgm_read_word(p);
    8cea:	fa 01       	movw	r30, r20
    8cec:	25 91       	lpm	r18, Z+
    8cee:	34 91       	lpm	r19, Z
				p += 2;
    8cf0:	4c 5f       	subi	r20, 0xFC	; 252
    8cf2:	5f 4f       	sbci	r21, 0xFF	; 255
			} while (c && c != oem);
    8cf4:	21 15       	cp	r18, r1
    8cf6:	31 05       	cpc	r19, r1
    8cf8:	19 f0       	breq	.+6      	; 0x8d00 <ff_oem2uni+0x26>
    8cfa:	82 17       	cp	r24, r18
    8cfc:	93 07       	cpc	r25, r19
    8cfe:	a9 f7       	brne	.-22     	; 0x8cea <ff_oem2uni+0x10>
			c = (WCHAR)pgm_read_word(p - 3);
    8d00:	fa 01       	movw	r30, r20
    8d02:	36 97       	sbiw	r30, 0x06	; 6
    8d04:	85 91       	lpm	r24, Z+
    8d06:	94 91       	lpm	r25, Z
    8d08:	08 95       	ret
	WCHAR	oem,	/* Character code to be converted */
	WORD	cp		/* OEM code page */
)
{
	const WCHAR *p;
	WCHAR c = 0;
    8d0a:	80 e0       	ldi	r24, 0x00	; 0
    8d0c:	90 e0       	ldi	r25, 0x00	; 0
			c = (WCHAR)pgm_read_word(p - 3);
		}
	}

	return c;
}
    8d0e:	08 95       	ret

00008d10 <ff_wtoupper>:
	};
	const WCHAR *p;
	WORD uc, bc, nc, cmd;


	if (uni < 0x10000) {	/* Is it in BMP? */
    8d10:	61 15       	cp	r22, r1
    8d12:	71 05       	cpc	r23, r1
    8d14:	21 e0       	ldi	r18, 0x01	; 1
    8d16:	82 07       	cpc	r24, r18
    8d18:	91 05       	cpc	r25, r1
    8d1a:	08 f0       	brcs	.+2      	; 0x8d1e <ff_wtoupper+0xe>
    8d1c:	5b c0       	rjmp	.+182    	; 0x8dd4 <ff_wtoupper+0xc4>
		uc = (WORD)uni;
		p = uc < 0x1000 ? cvt1 : cvt2;
    8d1e:	61 15       	cp	r22, r1
    8d20:	80 e1       	ldi	r24, 0x10	; 16
    8d22:	78 07       	cpc	r23, r24
    8d24:	18 f0       	brcs	.+6      	; 0x8d2c <ff_wtoupper+0x1c>
    8d26:	46 ef       	ldi	r20, 0xF6	; 246
    8d28:	50 e0       	ldi	r21, 0x00	; 0
    8d2a:	02 c0       	rjmp	.+4      	; 0x8d30 <ff_wtoupper+0x20>
    8d2c:	42 eb       	ldi	r20, 0xB2	; 178
    8d2e:	51 e0       	ldi	r21, 0x01	; 1
		for (;;) {
			bc = pgm_read_word(p++);							/* Get block base */
    8d30:	fa 01       	movw	r30, r20
    8d32:	85 91       	lpm	r24, Z+
    8d34:	94 91       	lpm	r25, Z
    8d36:	dc 01       	movw	r26, r24
			if (!bc || uc < bc) break;
    8d38:	00 97       	sbiw	r24, 0x00	; 0
    8d3a:	09 f4       	brne	.+2      	; 0x8d3e <ff_wtoupper+0x2e>
    8d3c:	49 c0       	rjmp	.+146    	; 0x8dd0 <ff_wtoupper+0xc0>
    8d3e:	68 17       	cp	r22, r24
    8d40:	79 07       	cpc	r23, r25
    8d42:	08 f4       	brcc	.+2      	; 0x8d46 <ff_wtoupper+0x36>
    8d44:	45 c0       	rjmp	.+138    	; 0x8dd0 <ff_wtoupper+0xc0>
			nc = pgm_read_word(p++); cmd = nc >> 8; nc &= 0xFF;	/* Get processing command and block size */
    8d46:	4c 5f       	subi	r20, 0xFC	; 252
    8d48:	5f 4f       	sbci	r21, 0xFF	; 255
    8d4a:	fa 01       	movw	r30, r20
    8d4c:	32 97       	sbiw	r30, 0x02	; 2
    8d4e:	25 91       	lpm	r18, Z+
    8d50:	34 91       	lpm	r19, Z
    8d52:	e3 2f       	mov	r30, r19
    8d54:	ff 27       	eor	r31, r31
    8d56:	33 27       	eor	r19, r19
			if (uc < bc + nc) {	/* In the block? */
    8d58:	82 0f       	add	r24, r18
    8d5a:	93 1f       	adc	r25, r19
    8d5c:	68 17       	cp	r22, r24
    8d5e:	79 07       	cpc	r23, r25
    8d60:	78 f5       	brcc	.+94     	; 0x8dc0 <ff_wtoupper+0xb0>
				switch (cmd) {
    8d62:	e9 30       	cpi	r30, 0x09	; 9
    8d64:	f1 05       	cpc	r31, r1
    8d66:	a0 f5       	brcc	.+104    	; 0x8dd0 <ff_wtoupper+0xc0>
    8d68:	88 27       	eor	r24, r24
    8d6a:	ee 58       	subi	r30, 0x8E	; 142
    8d6c:	ff 4f       	sbci	r31, 0xFF	; 255
    8d6e:	8f 4f       	sbci	r24, 0xFF	; 255
    8d70:	2b c5       	rjmp	.+2646   	; 0x97c8 <__tablejump2__>
				case 0:	uc = p[uc - bc]; break;		/* Table conversion */
    8d72:	6a 1b       	sub	r22, r26
    8d74:	7b 0b       	sbc	r23, r27
    8d76:	66 0f       	add	r22, r22
    8d78:	77 1f       	adc	r23, r23
    8d7a:	fa 01       	movw	r30, r20
    8d7c:	e6 0f       	add	r30, r22
    8d7e:	f7 1f       	adc	r31, r23
    8d80:	60 81       	ld	r22, Z
    8d82:	71 81       	ldd	r23, Z+1	; 0x01
    8d84:	25 c0       	rjmp	.+74     	; 0x8dd0 <ff_wtoupper+0xc0>
				case 1:	uc -= (uc - bc) & 1; break;	/* Case pairs */
    8d86:	cb 01       	movw	r24, r22
    8d88:	8a 1b       	sub	r24, r26
    8d8a:	9b 0b       	sbc	r25, r27
    8d8c:	81 70       	andi	r24, 0x01	; 1
    8d8e:	99 27       	eor	r25, r25
    8d90:	68 1b       	sub	r22, r24
    8d92:	79 0b       	sbc	r23, r25
    8d94:	1d c0       	rjmp	.+58     	; 0x8dd0 <ff_wtoupper+0xc0>
				case 2: uc -= 16; break;			/* Shift -16 */
    8d96:	60 51       	subi	r22, 0x10	; 16
    8d98:	71 09       	sbc	r23, r1
    8d9a:	1a c0       	rjmp	.+52     	; 0x8dd0 <ff_wtoupper+0xc0>
				case 3:	uc -= 32; break;			/* Shift -32 */
    8d9c:	60 52       	subi	r22, 0x20	; 32
    8d9e:	71 09       	sbc	r23, r1
    8da0:	17 c0       	rjmp	.+46     	; 0x8dd0 <ff_wtoupper+0xc0>
				case 4:	uc -= 48; break;			/* Shift -48 */
    8da2:	60 53       	subi	r22, 0x30	; 48
    8da4:	71 09       	sbc	r23, r1
    8da6:	14 c0       	rjmp	.+40     	; 0x8dd0 <ff_wtoupper+0xc0>
				case 5:	uc -= 26; break;			/* Shift -26 */
    8da8:	6a 51       	subi	r22, 0x1A	; 26
    8daa:	71 09       	sbc	r23, r1
    8dac:	11 c0       	rjmp	.+34     	; 0x8dd0 <ff_wtoupper+0xc0>
				case 6:	uc += 8; break;				/* Shift +8 */
    8dae:	68 5f       	subi	r22, 0xF8	; 248
    8db0:	7f 4f       	sbci	r23, 0xFF	; 255
    8db2:	0e c0       	rjmp	.+28     	; 0x8dd0 <ff_wtoupper+0xc0>
				case 7: uc -= 80; break;			/* Shift -80 */
    8db4:	60 55       	subi	r22, 0x50	; 80
    8db6:	71 09       	sbc	r23, r1
    8db8:	0b c0       	rjmp	.+22     	; 0x8dd0 <ff_wtoupper+0xc0>
				case 8:	uc -= 0x1C60; break;		/* Shift -0x1C60 */
    8dba:	60 56       	subi	r22, 0x60	; 96
    8dbc:	7c 41       	sbci	r23, 0x1C	; 28
    8dbe:	08 c0       	rjmp	.+16     	; 0x8dd0 <ff_wtoupper+0xc0>
				}
				break;
			}
			if (!cmd) p += nc;
    8dc0:	ef 2b       	or	r30, r31
    8dc2:	09 f0       	breq	.+2      	; 0x8dc6 <ff_wtoupper+0xb6>
    8dc4:	b5 cf       	rjmp	.-150    	; 0x8d30 <ff_wtoupper+0x20>
    8dc6:	22 0f       	add	r18, r18
    8dc8:	33 1f       	adc	r19, r19
    8dca:	42 0f       	add	r20, r18
    8dcc:	53 1f       	adc	r21, r19
    8dce:	b0 cf       	rjmp	.-160    	; 0x8d30 <ff_wtoupper+0x20>
		}
		uni = uc;
    8dd0:	80 e0       	ldi	r24, 0x00	; 0
    8dd2:	90 e0       	ldi	r25, 0x00	; 0
	}

	return uni;
}
    8dd4:	08 95       	ret

00008dd6 <Serial_begin>:
	Serial_write(' ');
}

uint8_t Serial_available(){
	return ((UCSR0A & (1<<RXC0)) !=0);
}
    8dd6:	dc 01       	movw	r26, r24
    8dd8:	cb 01       	movw	r24, r22
    8dda:	88 0f       	add	r24, r24
    8ddc:	99 1f       	adc	r25, r25
    8dde:	aa 1f       	adc	r26, r26
    8de0:	bb 1f       	adc	r27, r27
    8de2:	88 0f       	add	r24, r24
    8de4:	99 1f       	adc	r25, r25
    8de6:	aa 1f       	adc	r26, r26
    8de8:	bb 1f       	adc	r27, r27
    8dea:	9c 01       	movw	r18, r24
    8dec:	ad 01       	movw	r20, r26
    8dee:	22 0f       	add	r18, r18
    8df0:	33 1f       	adc	r19, r19
    8df2:	44 1f       	adc	r20, r20
    8df4:	55 1f       	adc	r21, r21
    8df6:	22 0f       	add	r18, r18
    8df8:	33 1f       	adc	r19, r19
    8dfa:	44 1f       	adc	r20, r20
    8dfc:	55 1f       	adc	r21, r21
    8dfe:	60 e0       	ldi	r22, 0x00	; 0
    8e00:	74 e2       	ldi	r23, 0x24	; 36
    8e02:	84 ef       	ldi	r24, 0xF4	; 244
    8e04:	90 e0       	ldi	r25, 0x00	; 0
    8e06:	be d4       	rcall	.+2428   	; 0x9784 <__udivmodsi4>
    8e08:	ba 01       	movw	r22, r20
    8e0a:	a9 01       	movw	r20, r18
    8e0c:	41 50       	subi	r20, 0x01	; 1
    8e0e:	51 09       	sbc	r21, r1
    8e10:	61 09       	sbc	r22, r1
    8e12:	71 09       	sbc	r23, r1
    8e14:	bb 27       	eor	r27, r27
    8e16:	a7 2f       	mov	r26, r23
    8e18:	96 2f       	mov	r25, r22
    8e1a:	85 2f       	mov	r24, r21
    8e1c:	80 93 c5 00 	sts	0x00C5, r24	; 0x8000c5 <__TEXT_REGION_LENGTH__+0x7000c5>
    8e20:	40 93 c4 00 	sts	0x00C4, r20	; 0x8000c4 <__TEXT_REGION_LENGTH__+0x7000c4>
    8e24:	88 e1       	ldi	r24, 0x18	; 24
    8e26:	80 93 c1 00 	sts	0x00C1, r24	; 0x8000c1 <__TEXT_REGION_LENGTH__+0x7000c1>
    8e2a:	86 e0       	ldi	r24, 0x06	; 6
    8e2c:	80 93 c2 00 	sts	0x00C2, r24	; 0x8000c2 <__TEXT_REGION_LENGTH__+0x7000c2>
    8e30:	08 95       	ret

00008e32 <Serial_write>:
    8e32:	e0 ec       	ldi	r30, 0xC0	; 192
    8e34:	f0 e0       	ldi	r31, 0x00	; 0
    8e36:	90 81       	ld	r25, Z
    8e38:	95 ff       	sbrs	r25, 5
    8e3a:	fd cf       	rjmp	.-6      	; 0x8e36 <Serial_write+0x4>
    8e3c:	80 93 c6 00 	sts	0x00C6, r24	; 0x8000c6 <__TEXT_REGION_LENGTH__+0x7000c6>
    8e40:	08 95       	ret

00008e42 <Serial_println>:
    8e42:	cf 93       	push	r28
    8e44:	df 93       	push	r29
    8e46:	ec 01       	movw	r28, r24
    8e48:	88 81       	ld	r24, Y
    8e4a:	88 23       	and	r24, r24
    8e4c:	29 f0       	breq	.+10     	; 0x8e58 <Serial_println+0x16>
    8e4e:	21 96       	adiw	r28, 0x01	; 1
    8e50:	f0 df       	rcall	.-32     	; 0x8e32 <Serial_write>
    8e52:	89 91       	ld	r24, Y+
    8e54:	81 11       	cpse	r24, r1
    8e56:	fc cf       	rjmp	.-8      	; 0x8e50 <Serial_println+0xe>
    8e58:	80 e2       	ldi	r24, 0x20	; 32
    8e5a:	eb df       	rcall	.-42     	; 0x8e32 <Serial_write>
    8e5c:	df 91       	pop	r29
    8e5e:	cf 91       	pop	r28
    8e60:	08 95       	ret

00008e62 <main>:

int main(void)
{
    Serial_begin(9600);
    8e62:	60 e8       	ldi	r22, 0x80	; 128
    8e64:	75 e2       	ldi	r23, 0x25	; 37
    8e66:	80 e0       	ldi	r24, 0x00	; 0
    8e68:	90 e0       	ldi	r25, 0x00	; 0
    8e6a:	b5 df       	rcall	.-150    	; 0x8dd6 <Serial_begin>
	Serial_println("Staring...");
    8e6c:	82 e7       	ldi	r24, 0x72	; 114
    8e6e:	92 e0       	ldi	r25, 0x02	; 2
    8e70:	e8 df       	rcall	.-48     	; 0x8e42 <Serial_println>
	#else
		//round up by default
		__ticks_dc = (uint32_t)(ceil(fabs(__tmp)));
	#endif

	__builtin_avr_delay_cycles(__ticks_dc);
    8e72:	2f ef       	ldi	r18, 0xFF	; 255
    8e74:	39 e6       	ldi	r19, 0x69	; 105
    8e76:	88 e1       	ldi	r24, 0x18	; 24
    8e78:	21 50       	subi	r18, 0x01	; 1
    8e7a:	30 40       	sbci	r19, 0x00	; 0
    8e7c:	80 40       	sbci	r24, 0x00	; 0
    8e7e:	e1 f7       	brne	.-8      	; 0x8e78 <main+0x16>
    8e80:	00 c0       	rjmp	.+0      	; 0x8e82 <main+0x20>
    8e82:	00 00       	nop
	_delay_ms(500);
	fresult=f_mount(&fs,"",0);
    8e84:	40 e0       	ldi	r20, 0x00	; 0
    8e86:	6e ec       	ldi	r22, 0xCE	; 206
    8e88:	72 e0       	ldi	r23, 0x02	; 2
    8e8a:	8b e6       	ldi	r24, 0x6B	; 107
    8e8c:	95 e0       	ldi	r25, 0x05	; 5
    8e8e:	8e d9       	rcall	.-3300   	; 0x81ac <f_mount>
    8e90:	80 93 bd 08 	sts	0x08BD, r24	; 0x8008bd <fresult>
	if(fresult!=FR_OK)
    8e94:	88 23       	and	r24, r24
	{
		Serial_println("error mounting sd card");
    8e96:	21 f0       	breq	.+8      	; 0x8ea0 <main+0x3e>
    8e98:	8d e7       	ldi	r24, 0x7D	; 125
    8e9a:	92 e0       	ldi	r25, 0x02	; 2
    8e9c:	d2 df       	rcall	.-92     	; 0x8e42 <Serial_println>
	}
	else
	{
		Serial_println("sd card mounted successfully");
    8e9e:	85 c0       	rjmp	.+266    	; 0x8faa <main+0x148>
    8ea0:	84 e9       	ldi	r24, 0x94	; 148
    8ea2:	92 e0       	ldi	r25, 0x02	; 2
    8ea4:	ce df       	rcall	.-100    	; 0x8e42 <Serial_println>
		f_getfree("",&fre_clust,&pfs);
    8ea6:	4b eb       	ldi	r20, 0xBB	; 187
    8ea8:	58 e0       	ldi	r21, 0x08	; 8
    8eaa:	67 e6       	ldi	r22, 0x67	; 103
    8eac:	75 e0       	ldi	r23, 0x05	; 5
    8eae:	8e ec       	ldi	r24, 0xCE	; 206
    8eb0:	92 e0       	ldi	r25, 0x02	; 2
    8eb2:	50 dd       	rcall	.-1376   	; 0x8954 <f_getfree>
		total=(uint32_t)((pfs-> n_fatent-2) * pfs->csize * 0.5);
    8eb4:	e0 91 bb 08 	lds	r30, 0x08BB	; 0x8008bb <pfs>
    8eb8:	f0 91 bc 08 	lds	r31, 0x08BC	; 0x8008bc <pfs+0x1>
    8ebc:	87 a1       	ldd	r24, Z+39	; 0x27
    8ebe:	90 a5       	ldd	r25, Z+40	; 0x28
    8ec0:	a1 a5       	ldd	r26, Z+41	; 0x29
    8ec2:	b2 a5       	ldd	r27, Z+42	; 0x2a
    8ec4:	9c 01       	movw	r18, r24
    8ec6:	ad 01       	movw	r20, r26
    8ec8:	22 50       	subi	r18, 0x02	; 2
    8eca:	31 09       	sbc	r19, r1
    8ecc:	41 09       	sbc	r20, r1
    8ece:	51 09       	sbc	r21, r1
    8ed0:	a1 85       	ldd	r26, Z+9	; 0x09
    8ed2:	b2 85       	ldd	r27, Z+10	; 0x0a
    8ed4:	90 d4       	rcall	.+2336   	; 0x97f6 <__muluhisi3>
    8ed6:	51 d3       	rcall	.+1698   	; 0x957a <__floatunsisf>
    8ed8:	20 e0       	ldi	r18, 0x00	; 0
    8eda:	30 e0       	ldi	r19, 0x00	; 0
    8edc:	40 e0       	ldi	r20, 0x00	; 0
    8ede:	5f e3       	ldi	r21, 0x3F	; 63
    8ee0:	b2 d3       	rcall	.+1892   	; 0x9646 <__mulsf3>
    8ee2:	1f d3       	rcall	.+1598   	; 0x9522 <__fixunssfsi>
    8ee4:	60 93 be 08 	sts	0x08BE, r22	; 0x8008be <total>
    8ee8:	70 93 bf 08 	sts	0x08BF, r23	; 0x8008bf <total+0x1>
    8eec:	80 93 c0 08 	sts	0x08C0, r24	; 0x8008c0 <total+0x2>
    8ef0:	90 93 c1 08 	sts	0x08C1, r25	; 0x8008c1 <total+0x3>
		sprintf(buffer,"Total:%lu KB\r\n",total);
    8ef4:	9f 93       	push	r25
    8ef6:	8f 93       	push	r24
    8ef8:	7f 93       	push	r23
    8efa:	6f 93       	push	r22
    8efc:	81 eb       	ldi	r24, 0xB1	; 177
    8efe:	92 e0       	ldi	r25, 0x02	; 2
    8f00:	9f 93       	push	r25
    8f02:	8f 93       	push	r24
    8f04:	c9 eb       	ldi	r28, 0xB9	; 185
    8f06:	d7 e0       	ldi	r29, 0x07	; 7
    8f08:	df 93       	push	r29
    8f0a:	cf 93       	push	r28
		Serial_println(buffer);
    8f0c:	e8 d4       	rcall	.+2512   	; 0x98de <sprintf>
    8f0e:	ce 01       	movw	r24, r28
    8f10:	98 df       	rcall	.-208    	; 0x8e42 <Serial_println>
		free_space=(uint32_t)(fre_clust * pfs->csize * 0.5);
    8f12:	e0 91 bb 08 	lds	r30, 0x08BB	; 0x8008bb <pfs>
    8f16:	f0 91 bc 08 	lds	r31, 0x08BC	; 0x8008bc <pfs+0x1>
    8f1a:	a1 85       	ldd	r26, Z+9	; 0x09
    8f1c:	b2 85       	ldd	r27, Z+10	; 0x0a
    8f1e:	20 91 67 05 	lds	r18, 0x0567	; 0x800567 <fre_clust>
    8f22:	30 91 68 05 	lds	r19, 0x0568	; 0x800568 <fre_clust+0x1>
    8f26:	40 91 69 05 	lds	r20, 0x0569	; 0x800569 <fre_clust+0x2>
    8f2a:	50 91 6a 05 	lds	r21, 0x056A	; 0x80056a <fre_clust+0x3>
    8f2e:	63 d4       	rcall	.+2246   	; 0x97f6 <__muluhisi3>
    8f30:	24 d3       	rcall	.+1608   	; 0x957a <__floatunsisf>
    8f32:	20 e0       	ldi	r18, 0x00	; 0
    8f34:	30 e0       	ldi	r19, 0x00	; 0
    8f36:	40 e0       	ldi	r20, 0x00	; 0
    8f38:	5f e3       	ldi	r21, 0x3F	; 63
    8f3a:	85 d3       	rcall	.+1802   	; 0x9646 <__mulsf3>
    8f3c:	f2 d2       	rcall	.+1508   	; 0x9522 <__fixunssfsi>
    8f3e:	60 93 b5 07 	sts	0x07B5, r22	; 0x8007b5 <free_space>
    8f42:	70 93 b6 07 	sts	0x07B6, r23	; 0x8007b6 <free_space+0x1>
    8f46:	80 93 b7 07 	sts	0x07B7, r24	; 0x8007b7 <free_space+0x2>
    8f4a:	90 93 b8 07 	sts	0x07B8, r25	; 0x8007b8 <free_space+0x3>
		sprintf(buffer,"Free :%lu KB\r\n",free_space);
    8f4e:	9f 93       	push	r25
    8f50:	8f 93       	push	r24
    8f52:	7f 93       	push	r23
    8f54:	6f 93       	push	r22
    8f56:	80 ec       	ldi	r24, 0xC0	; 192
    8f58:	92 e0       	ldi	r25, 0x02	; 2
    8f5a:	9f 93       	push	r25
    8f5c:	8f 93       	push	r24
    8f5e:	df 93       	push	r29
    8f60:	cf 93       	push	r28
		Serial_println(buffer);
    8f62:	bd d4       	rcall	.+2426   	; 0x98de <sprintf>
    8f64:	ce 01       	movw	r24, r28
    8f66:	6d df       	rcall	.-294    	; 0x8e42 <Serial_println>
    8f68:	9f ef       	ldi	r25, 0xFF	; 255
    8f6a:	23 ed       	ldi	r18, 0xD3	; 211
    8f6c:	30 e3       	ldi	r19, 0x30	; 48
    8f6e:	91 50       	subi	r25, 0x01	; 1
    8f70:	20 40       	sbci	r18, 0x00	; 0
    8f72:	30 40       	sbci	r19, 0x00	; 0
    8f74:	e1 f7       	brne	.-8      	; 0x8f6e <main+0x10c>
    8f76:	00 c0       	rjmp	.+0      	; 0x8f78 <main+0x116>
    8f78:	00 00       	nop
		_delay_ms(1000);
		if (f_open(&fil, "DATA.TXT", FA_WRITE | FA_OPEN_ALWAYS) == FR_OK) 
    8f7a:	42 e1       	ldi	r20, 0x12	; 18
    8f7c:	6f ec       	ldi	r22, 0xCF	; 207
    8f7e:	72 e0       	ldi	r23, 0x02	; 2
    8f80:	86 e2       	ldi	r24, 0x26	; 38
    8f82:	99 e0       	ldi	r25, 0x09	; 9
    8f84:	58 d9       	rcall	.-3408   	; 0x8236 <f_open>
    8f86:	2d b7       	in	r18, 0x3d	; 61
    8f88:	3e b7       	in	r19, 0x3e	; 62
    8f8a:	20 5f       	subi	r18, 0xF0	; 240
    8f8c:	3f 4f       	sbci	r19, 0xFF	; 255
    8f8e:	0f b6       	in	r0, 0x3f	; 63
    8f90:	f8 94       	cli
    8f92:	3e bf       	out	0x3e, r19	; 62
    8f94:	0f be       	out	0x3f, r0	; 63
    8f96:	2d bf       	out	0x3d, r18	; 61
    8f98:	81 11       	cpse	r24, r1
		{
			Serial_println("File created");
    8f9a:	04 c0       	rjmp	.+8      	; 0x8fa4 <main+0x142>
    8f9c:	88 ed       	ldi	r24, 0xD8	; 216
    8f9e:	92 e0       	ldi	r25, 0x02	; 2
    8fa0:	50 df       	rcall	.-352    	; 0x8e42 <Serial_println>
    8fa2:	03 c0       	rjmp	.+6      	; 0x8faa <main+0x148>
		}
		else
		{
			Serial_println("Error creating file");
    8fa4:	85 ee       	ldi	r24, 0xE5	; 229
    8fa6:	92 e0       	ldi	r25, 0x02	; 2
    8fa8:	4c df       	rcall	.-360    	; 0x8e42 <Serial_println>
    8faa:	ff cf       	rjmp	.-2      	; 0x8faa <main+0x148>

00008fac <power_off>:

static
void power_off (void)
{
	/* Disable SPI function */
	SPCR &= ~(1<<SPE);
    8fac:	8c b5       	in	r24, 0x2c	; 44
    8fae:	8f 7b       	andi	r24, 0xBF	; 191
    8fb0:	8c bd       	out	0x2c, r24	; 44


	/* De-configure MOSI/MISO/SCLK/CS pins (set hi-z) */
	PORTD &= ~(1<<PD4);
    8fb2:	5c 98       	cbi	0x0b, 4	; 11
    8fb4:	08 95       	ret

00008fb6 <xchg_spi>:
static
BYTE xchg_spi (		/* Returns received data */
	BYTE dat		/* Data to be sent */
)
{
	SPDR = dat;
    8fb6:	8e bd       	out	0x2e, r24	; 46
	while(!(SPSR & (1<<SPIF) ));//wait until transfer completes
    8fb8:	0d b4       	in	r0, 0x2d	; 45
    8fba:	07 fe       	sbrs	r0, 7
    8fbc:	fd cf       	rjmp	.-6      	; 0x8fb8 <xchg_spi+0x2>
	return SPDR;
    8fbe:	8e b5       	in	r24, 0x2e	; 46
}
    8fc0:	08 95       	ret

00008fc2 <wait_ready>:
)
{
	BYTE d;


	wt /= 10;
    8fc2:	9c 01       	movw	r18, r24
    8fc4:	ad ec       	ldi	r26, 0xCD	; 205
    8fc6:	bc ec       	ldi	r27, 0xCC	; 204
    8fc8:	07 d4       	rcall	.+2062   	; 0x97d8 <__umulhisi3>
    8fca:	96 95       	lsr	r25
    8fcc:	87 95       	ror	r24
    8fce:	96 95       	lsr	r25
    8fd0:	87 95       	ror	r24
    8fd2:	96 95       	lsr	r25
    8fd4:	87 95       	ror	r24
	cli(); Timer2 = wt; sei();
    8fd6:	f8 94       	cli
    8fd8:	90 93 65 05 	sts	0x0565, r25	; 0x800565 <Timer2+0x1>
    8fdc:	80 93 64 05 	sts	0x0564, r24	; 0x800564 <Timer2>
    8fe0:	78 94       	sei
	do {
		d = xchg_spi(0xFF);
    8fe2:	8f ef       	ldi	r24, 0xFF	; 255
    8fe4:	e8 df       	rcall	.-48     	; 0x8fb6 <xchg_spi>
		cli(); wt = Timer2; sei();
    8fe6:	f8 94       	cli
    8fe8:	20 91 64 05 	lds	r18, 0x0564	; 0x800564 <Timer2>
    8fec:	30 91 65 05 	lds	r19, 0x0565	; 0x800565 <Timer2+0x1>
    8ff0:	78 94       	sei
	} while (d != 0xFF && wt);
    8ff2:	8f 3f       	cpi	r24, 0xFF	; 255
    8ff4:	11 f0       	breq	.+4      	; 0x8ffa <wait_ready+0x38>
    8ff6:	23 2b       	or	r18, r19
    8ff8:	a1 f7       	brne	.-24     	; 0x8fe2 <wait_ready+0x20>

	return (d == 0xFF) ? 1 : 0;
    8ffa:	21 e0       	ldi	r18, 0x01	; 1
    8ffc:	30 e0       	ldi	r19, 0x00	; 0
    8ffe:	8f 3f       	cpi	r24, 0xFF	; 255
    9000:	11 f0       	breq	.+4      	; 0x9006 <wait_ready+0x44>
    9002:	20 e0       	ldi	r18, 0x00	; 0
    9004:	30 e0       	ldi	r19, 0x00	; 0
}
    9006:	c9 01       	movw	r24, r18
    9008:	08 95       	ret

0000900a <deselect>:
/*-----------------------------------------------------------------------*/

static
void deselect (void)
{
	CS_HIGH();		/* Set CS# high */
    900a:	5c 9a       	sbi	0x0b, 4	; 11
	xchg_spi(0xFF);	/* Dummy clock (force DO hi-z for multiple slave SPI) */
    900c:	8f ef       	ldi	r24, 0xFF	; 255
    900e:	d3 cf       	rjmp	.-90     	; 0x8fb6 <xchg_spi>
    9010:	08 95       	ret

00009012 <select>:
/* Select the card and wait for ready                                    */
/*-----------------------------------------------------------------------*/

static
int select (void)	/* 1:Successful, 0:Timeout */
{
    9012:	cf 93       	push	r28
    9014:	df 93       	push	r29
	CS_LOW();		/* Set CS# low */
    9016:	5c 98       	cbi	0x0b, 4	; 11
	xchg_spi(0xFF);	/* Dummy clock (force DO enabled) */
    9018:	8f ef       	ldi	r24, 0xFF	; 255
    901a:	cd df       	rcall	.-102    	; 0x8fb6 <xchg_spi>

	if (wait_ready(500)) return 1;	/* Leading busy check: Wait for card ready */
    901c:	84 ef       	ldi	r24, 0xF4	; 244
    901e:	91 e0       	ldi	r25, 0x01	; 1
    9020:	d0 df       	rcall	.-96     	; 0x8fc2 <wait_ready>
    9022:	ec 01       	movw	r28, r24
    9024:	89 2b       	or	r24, r25

	deselect();		/* Timeout */
    9026:	11 f4       	brne	.+4      	; 0x902c <select+0x1a>
    9028:	f0 df       	rcall	.-32     	; 0x900a <deselect>
	return 0;
    902a:	02 c0       	rjmp	.+4      	; 0x9030 <select+0x1e>
int select (void)	/* 1:Successful, 0:Timeout */
{
	CS_LOW();		/* Set CS# low */
	xchg_spi(0xFF);	/* Dummy clock (force DO enabled) */

	if (wait_ready(500)) return 1;	/* Leading busy check: Wait for card ready */
    902c:	c1 e0       	ldi	r28, 0x01	; 1
    902e:	d0 e0       	ldi	r29, 0x00	; 0

	deselect();		/* Timeout */
	return 0;
}
    9030:	ce 01       	movw	r24, r28
    9032:	df 91       	pop	r29
    9034:	cf 91       	pop	r28
    9036:	08 95       	ret

00009038 <rcvr_datablock>:
static
int rcvr_datablock (
	BYTE *buff,			/* Data buffer to store received data */
	UINT btr			/* Byte count (must be multiple of 4) */
)
{
    9038:	0f 93       	push	r16
    903a:	1f 93       	push	r17
    903c:	cf 93       	push	r28
    903e:	df 93       	push	r29
    9040:	08 2f       	mov	r16, r24
    9042:	19 2f       	mov	r17, r25
    9044:	eb 01       	movw	r28, r22
	BYTE token;


	Timer1 = 20;
    9046:	84 e1       	ldi	r24, 0x14	; 20
    9048:	80 93 66 05 	sts	0x0566, r24	; 0x800566 <Timer1>
	do {							/* Wait for data packet in timeout of 200ms */
		token = xchg_spi(0xFF);
    904c:	8f ef       	ldi	r24, 0xFF	; 255
    904e:	b3 df       	rcall	.-154    	; 0x8fb6 <xchg_spi>
	} while ((token == 0xFF) && Timer1);
    9050:	8f 3f       	cpi	r24, 0xFF	; 255
    9052:	39 f4       	brne	.+14     	; 0x9062 <rcvr_datablock+0x2a>
    9054:	80 91 66 05 	lds	r24, 0x0566	; 0x800566 <Timer1>
    9058:	81 11       	cpse	r24, r1
    905a:	f8 cf       	rjmp	.-16     	; 0x904c <rcvr_datablock+0x14>
	if (token != 0xFE) return 0;	/* If not valid data token, retutn with error */
    905c:	80 e0       	ldi	r24, 0x00	; 0
    905e:	90 e0       	ldi	r25, 0x00	; 0
    9060:	20 c0       	rjmp	.+64     	; 0x90a2 <rcvr_datablock+0x6a>
    9062:	8e 3f       	cpi	r24, 0xFE	; 254
    9064:	e1 f4       	brne	.+56     	; 0x909e <rcvr_datablock+0x66>
    9066:	e0 2f       	mov	r30, r16
    9068:	f1 2f       	mov	r31, r17
	BYTE *p,	/* Data read buffer */
	UINT cnt	/* Size of data block */
)
{
	do {
		SPDR = 0xFF;
    906a:	8f ef       	ldi	r24, 0xFF	; 255
    906c:	8e bd       	out	0x2e, r24	; 46
		while(!(SPSR & (1<<SPIF) ));//wait until transfer completes
    906e:	0d b4       	in	r0, 0x2d	; 45
    9070:	07 fe       	sbrs	r0, 7
    9072:	fd cf       	rjmp	.-6      	; 0x906e <rcvr_datablock+0x36>
		*p++ = SPDR;
    9074:	9e b5       	in	r25, 0x2e	; 46
    9076:	df 01       	movw	r26, r30
    9078:	90 83       	st	Z, r25
		SPDR = 0xFF;
    907a:	8e bd       	out	0x2e, r24	; 46
		while(!(SPSR & (1<<SPIF) ));//wait until transfer completes
    907c:	0d b4       	in	r0, 0x2d	; 45
    907e:	07 fe       	sbrs	r0, 7
    9080:	fd cf       	rjmp	.-6      	; 0x907c <rcvr_datablock+0x44>
		*p++ = SPDR;
    9082:	9e b5       	in	r25, 0x2e	; 46
    9084:	11 96       	adiw	r26, 0x01	; 1
    9086:	9c 93       	st	X, r25
	} while (cnt -= 2);
    9088:	22 97       	sbiw	r28, 0x02	; 2
    908a:	32 96       	adiw	r30, 0x02	; 2
    908c:	20 97       	sbiw	r28, 0x00	; 0
    908e:	71 f7       	brne	.-36     	; 0x906c <rcvr_datablock+0x34>
		token = xchg_spi(0xFF);
	} while ((token == 0xFF) && Timer1);
	if (token != 0xFE) return 0;	/* If not valid data token, retutn with error */

	rcvr_spi_multi(buff, btr);		/* Receive the data block into buffer */
	xchg_spi(0xFF);					/* Discard CRC */
    9090:	8f ef       	ldi	r24, 0xFF	; 255
    9092:	91 df       	rcall	.-222    	; 0x8fb6 <xchg_spi>
	xchg_spi(0xFF);
    9094:	8f ef       	ldi	r24, 0xFF	; 255
    9096:	8f df       	rcall	.-226    	; 0x8fb6 <xchg_spi>
    9098:	81 e0       	ldi	r24, 0x01	; 1

	return 1;						/* Return with success */
    909a:	90 e0       	ldi	r25, 0x00	; 0
    909c:	02 c0       	rjmp	.+4      	; 0x90a2 <rcvr_datablock+0x6a>
    909e:	80 e0       	ldi	r24, 0x00	; 0

	Timer1 = 20;
	do {							/* Wait for data packet in timeout of 200ms */
		token = xchg_spi(0xFF);
	} while ((token == 0xFF) && Timer1);
	if (token != 0xFE) return 0;	/* If not valid data token, retutn with error */
    90a0:	90 e0       	ldi	r25, 0x00	; 0
    90a2:	df 91       	pop	r29
	rcvr_spi_multi(buff, btr);		/* Receive the data block into buffer */
	xchg_spi(0xFF);					/* Discard CRC */
	xchg_spi(0xFF);

	return 1;						/* Return with success */
}
    90a4:	cf 91       	pop	r28
    90a6:	1f 91       	pop	r17
    90a8:	0f 91       	pop	r16
    90aa:	08 95       	ret

000090ac <xmit_datablock>:
    90ac:	1f 93       	push	r17
static
int xmit_datablock (
	const BYTE *buff,	/* 512 byte data block to be transmitted */
	BYTE token			/* Data/Stop token */
)
{
    90ae:	cf 93       	push	r28
    90b0:	df 93       	push	r29
    90b2:	ec 01       	movw	r28, r24
    90b4:	16 2f       	mov	r17, r22
	BYTE resp;


	if (!wait_ready(500)) return 0;		/* Leading busy check: Wait for card ready to accept data block */
    90b6:	84 ef       	ldi	r24, 0xF4	; 244
    90b8:	91 e0       	ldi	r25, 0x01	; 1
    90ba:	83 df       	rcall	.-250    	; 0x8fc2 <wait_ready>
    90bc:	00 97       	sbiw	r24, 0x00	; 0
    90be:	41 f1       	breq	.+80     	; 0x9110 <xmit_datablock+0x64>

	xchg_spi(token);					/* Xmit data token */
    90c0:	81 2f       	mov	r24, r17
    90c2:	79 df       	rcall	.-270    	; 0x8fb6 <xchg_spi>
	if (token == 0xFD) return 1;		/* Do not send data if token is StopTran */
    90c4:	1d 3f       	cpi	r17, 0xFD	; 253
    90c6:	11 f1       	breq	.+68     	; 0x910c <xmit_datablock+0x60>
    90c8:	fe 01       	movw	r30, r28
    90ca:	9e 01       	movw	r18, r28
    90cc:	3e 5f       	subi	r19, 0xFE	; 254
    90ce:	df 01       	movw	r26, r30
	const BYTE *p,	/* Data block to be sent */
	UINT cnt		/* Size of data block */
)
{
	do {
		SPDR = *p++;
    90d0:	90 81       	ld	r25, Z
    90d2:	9e bd       	out	0x2e, r25	; 46
		while(!(SPSR & (1<<SPIF) ));//wait until transfer completes
    90d4:	0d b4       	in	r0, 0x2d	; 45
    90d6:	07 fe       	sbrs	r0, 7
    90d8:	fd cf       	rjmp	.-6      	; 0x90d4 <xmit_datablock+0x28>
		SPDR = *p++;
    90da:	11 96       	adiw	r26, 0x01	; 1
    90dc:	9c 91       	ld	r25, X
    90de:	9e bd       	out	0x2e, r25	; 46
		while(!(SPSR & (1<<SPIF) ));//wait until transfer completes
    90e0:	0d b4       	in	r0, 0x2d	; 45
    90e2:	07 fe       	sbrs	r0, 7
    90e4:	fd cf       	rjmp	.-6      	; 0x90e0 <xmit_datablock+0x34>
    90e6:	32 96       	adiw	r30, 0x02	; 2
	} while (cnt -= 2);
    90e8:	e2 17       	cp	r30, r18
    90ea:	f3 07       	cpc	r31, r19

	xchg_spi(token);					/* Xmit data token */
	if (token == 0xFD) return 1;		/* Do not send data if token is StopTran */

	xmit_spi_multi(buff, 512);			/* Data */
	xchg_spi(0xFF); xchg_spi(0xFF);		/* Dummy CRC */
    90ec:	81 f7       	brne	.-32     	; 0x90ce <xmit_datablock+0x22>
    90ee:	8f ef       	ldi	r24, 0xFF	; 255
    90f0:	62 df       	rcall	.-316    	; 0x8fb6 <xchg_spi>
    90f2:	8f ef       	ldi	r24, 0xFF	; 255

	resp = xchg_spi(0xFF);				/* Receive data resp */
    90f4:	60 df       	rcall	.-320    	; 0x8fb6 <xchg_spi>
    90f6:	8f ef       	ldi	r24, 0xFF	; 255
    90f8:	5e df       	rcall	.-324    	; 0x8fb6 <xchg_spi>

	return (resp & 0x1F) == 0x05 ? 1 : 0;	/* Data was accepted or not */
    90fa:	8f 71       	andi	r24, 0x1F	; 31
    90fc:	31 e0       	ldi	r19, 0x01	; 1
    90fe:	20 e0       	ldi	r18, 0x00	; 0
    9100:	85 30       	cpi	r24, 0x05	; 5
    9102:	09 f0       	breq	.+2      	; 0x9106 <xmit_datablock+0x5a>
    9104:	30 e0       	ldi	r19, 0x00	; 0
    9106:	83 2f       	mov	r24, r19
    9108:	92 2f       	mov	r25, r18
    910a:	02 c0       	rjmp	.+4      	; 0x9110 <xmit_datablock+0x64>


	if (!wait_ready(500)) return 0;		/* Leading busy check: Wait for card ready to accept data block */

	xchg_spi(token);					/* Xmit data token */
	if (token == 0xFD) return 1;		/* Do not send data if token is StopTran */
    910c:	81 e0       	ldi	r24, 0x01	; 1
    910e:	90 e0       	ldi	r25, 0x00	; 0
	resp = xchg_spi(0xFF);				/* Receive data resp */

	return (resp & 0x1F) == 0x05 ? 1 : 0;	/* Data was accepted or not */

	/* Busy check is done at next transmission */
}
    9110:	df 91       	pop	r29
    9112:	cf 91       	pop	r28
    9114:	1f 91       	pop	r17
    9116:	08 95       	ret

00009118 <send_cmd>:
static
BYTE send_cmd (		/* Returns R1 resp (bit7==1:Send failed) */
	BYTE cmd,		/* Command index */
	DWORD arg		/* Argument */
)
{
    9118:	ff 92       	push	r15
    911a:	0f 93       	push	r16
    911c:	1f 93       	push	r17
    911e:	cf 93       	push	r28
    9120:	df 93       	push	r29
    9122:	c8 2f       	mov	r28, r24
    9124:	d4 2f       	mov	r29, r20
    9126:	15 2f       	mov	r17, r21
    9128:	06 2f       	mov	r16, r22
    912a:	f7 2e       	mov	r15, r23
	BYTE n, res;


	if (cmd & 0x80) {	/* ACMD<n> is the command sequense of CMD55-CMD<n> */
    912c:	88 23       	and	r24, r24
    912e:	4c f4       	brge	.+18     	; 0x9142 <send_cmd+0x2a>
		cmd &= 0x7F;
		res = send_cmd(CMD55, 0);
    9130:	40 e0       	ldi	r20, 0x00	; 0
    9132:	50 e0       	ldi	r21, 0x00	; 0
    9134:	ba 01       	movw	r22, r20
    9136:	87 e3       	ldi	r24, 0x37	; 55
    9138:	ef df       	rcall	.-34     	; 0x9118 <send_cmd>
		if (res > 1) return res;
    913a:	82 30       	cpi	r24, 0x02	; 2
    913c:	08 f0       	brcs	.+2      	; 0x9140 <send_cmd+0x28>
    913e:	3c c0       	rjmp	.+120    	; 0x91b8 <send_cmd+0xa0>
{
	BYTE n, res;


	if (cmd & 0x80) {	/* ACMD<n> is the command sequense of CMD55-CMD<n> */
		cmd &= 0x7F;
    9140:	cf 77       	andi	r28, 0x7F	; 127
		res = send_cmd(CMD55, 0);
		if (res > 1) return res;
	}

	/* Select the card and wait for ready except to stop multiple block read */
	if (cmd != CMD12) {
    9142:	cc 30       	cpi	r28, 0x0C	; 12
		deselect();
    9144:	f1 f0       	breq	.+60     	; 0x9182 <send_cmd+0x6a>
		if (!select()) return 0xFF;
    9146:	61 df       	rcall	.-318    	; 0x900a <deselect>
    9148:	64 df       	rcall	.-312    	; 0x9012 <select>
    914a:	89 2b       	or	r24, r25
	}

	/* Send command packet */
	xchg_spi(0x40 | cmd);				/* Start + Command index */
    914c:	c1 f0       	breq	.+48     	; 0x917e <send_cmd+0x66>
    914e:	8c 2f       	mov	r24, r28
    9150:	80 64       	ori	r24, 0x40	; 64
	xchg_spi((BYTE)(arg >> 24));		/* Argument[31..24] */
    9152:	31 df       	rcall	.-414    	; 0x8fb6 <xchg_spi>
    9154:	8f 2d       	mov	r24, r15
	xchg_spi((BYTE)(arg >> 16));		/* Argument[23..16] */
    9156:	2f df       	rcall	.-418    	; 0x8fb6 <xchg_spi>
    9158:	80 2f       	mov	r24, r16
	xchg_spi((BYTE)(arg >> 8));			/* Argument[15..8] */
    915a:	2d df       	rcall	.-422    	; 0x8fb6 <xchg_spi>
    915c:	81 2f       	mov	r24, r17
	xchg_spi((BYTE)arg);				/* Argument[7..0] */
    915e:	2b df       	rcall	.-426    	; 0x8fb6 <xchg_spi>
    9160:	8d 2f       	mov	r24, r29
	n = 0x01;							/* Dummy CRC + Stop */
	if (cmd == CMD0) n = 0x95;			/* Valid CRC for CMD0(0) + Stop */
    9162:	29 df       	rcall	.-430    	; 0x8fb6 <xchg_spi>
    9164:	cc 23       	and	r28, r28
    9166:	29 f1       	breq	.+74     	; 0x91b2 <send_cmd+0x9a>
	if (cmd == CMD8) n = 0x87;			/* Valid CRC for CMD8(0x1AA) Stop */
	xchg_spi(n);

	/* Receive command response */
	if (cmd == CMD12) xchg_spi(0xFF);		/* Skip a stuff byte when stop reading */
    9168:	21 c0       	rjmp	.+66     	; 0x91ac <send_cmd+0x94>
    916a:	8f ef       	ldi	r24, 0xFF	; 255
    916c:	24 df       	rcall	.-440    	; 0x8fb6 <xchg_spi>
static
BYTE send_cmd (		/* Returns R1 resp (bit7==1:Send failed) */
	BYTE cmd,		/* Command index */
	DWORD arg		/* Argument */
)
{
    916e:	ca e0       	ldi	r28, 0x0A	; 10

	/* Receive command response */
	if (cmd == CMD12) xchg_spi(0xFF);		/* Skip a stuff byte when stop reading */
	n = 10;								/* Wait for a valid response in timeout of 10 attempts */
	do
		res = xchg_spi(0xFF);
    9170:	8f ef       	ldi	r24, 0xFF	; 255
    9172:	21 df       	rcall	.-446    	; 0x8fb6 <xchg_spi>
	while ((res & 0x80) && --n);
    9174:	88 23       	and	r24, r24
    9176:	04 f5       	brge	.+64     	; 0x91b8 <send_cmd+0xa0>
    9178:	c1 50       	subi	r28, 0x01	; 1
	}

	/* Select the card and wait for ready except to stop multiple block read */
	if (cmd != CMD12) {
		deselect();
		if (!select()) return 0xFF;
    917a:	d1 f7       	brne	.-12     	; 0x9170 <send_cmd+0x58>
	}

	/* Send command packet */
	xchg_spi(0x40 | cmd);				/* Start + Command index */
    917c:	1d c0       	rjmp	.+58     	; 0x91b8 <send_cmd+0xa0>
    917e:	8f ef       	ldi	r24, 0xFF	; 255
	xchg_spi((BYTE)(arg >> 24));		/* Argument[31..24] */
    9180:	1b c0       	rjmp	.+54     	; 0x91b8 <send_cmd+0xa0>
    9182:	8c e4       	ldi	r24, 0x4C	; 76
    9184:	18 df       	rcall	.-464    	; 0x8fb6 <xchg_spi>
	xchg_spi((BYTE)(arg >> 16));		/* Argument[23..16] */
    9186:	8f 2d       	mov	r24, r15
    9188:	16 df       	rcall	.-468    	; 0x8fb6 <xchg_spi>
	xchg_spi((BYTE)(arg >> 8));			/* Argument[15..8] */
    918a:	80 2f       	mov	r24, r16
    918c:	14 df       	rcall	.-472    	; 0x8fb6 <xchg_spi>
	xchg_spi((BYTE)arg);				/* Argument[7..0] */
    918e:	81 2f       	mov	r24, r17
    9190:	12 df       	rcall	.-476    	; 0x8fb6 <xchg_spi>
    9192:	8d 2f       	mov	r24, r29
	n = 0x01;							/* Dummy CRC + Stop */
	if (cmd == CMD0) n = 0x95;			/* Valid CRC for CMD0(0) + Stop */
	if (cmd == CMD8) n = 0x87;			/* Valid CRC for CMD8(0x1AA) Stop */
	xchg_spi(n);
    9194:	10 df       	rcall	.-480    	; 0x8fb6 <xchg_spi>
    9196:	81 e0       	ldi	r24, 0x01	; 1

	/* Receive command response */
	if (cmd == CMD12) xchg_spi(0xFF);		/* Skip a stuff byte when stop reading */
    9198:	0e df       	rcall	.-484    	; 0x8fb6 <xchg_spi>
    919a:	cc 30       	cpi	r28, 0x0C	; 12
    919c:	31 f3       	breq	.-52     	; 0x916a <send_cmd+0x52>
	xchg_spi((BYTE)(arg >> 8));			/* Argument[15..8] */
	xchg_spi((BYTE)arg);				/* Argument[7..0] */
	n = 0x01;							/* Dummy CRC + Stop */
	if (cmd == CMD0) n = 0x95;			/* Valid CRC for CMD0(0) + Stop */
	if (cmd == CMD8) n = 0x87;			/* Valid CRC for CMD8(0x1AA) Stop */
	xchg_spi(n);
    919e:	e7 cf       	rjmp	.-50     	; 0x916e <send_cmd+0x56>
    91a0:	87 e8       	ldi	r24, 0x87	; 135
    91a2:	09 df       	rcall	.-494    	; 0x8fb6 <xchg_spi>
    91a4:	e4 cf       	rjmp	.-56     	; 0x916e <send_cmd+0x56>
    91a6:	81 e0       	ldi	r24, 0x01	; 1
    91a8:	06 df       	rcall	.-500    	; 0x8fb6 <xchg_spi>
    91aa:	e1 cf       	rjmp	.-62     	; 0x916e <send_cmd+0x56>
    91ac:	c8 30       	cpi	r28, 0x08	; 8
	xchg_spi((BYTE)(arg >> 16));		/* Argument[23..16] */
	xchg_spi((BYTE)(arg >> 8));			/* Argument[15..8] */
	xchg_spi((BYTE)arg);				/* Argument[7..0] */
	n = 0x01;							/* Dummy CRC + Stop */
	if (cmd == CMD0) n = 0x95;			/* Valid CRC for CMD0(0) + Stop */
	if (cmd == CMD8) n = 0x87;			/* Valid CRC for CMD8(0x1AA) Stop */
    91ae:	c1 f3       	breq	.-16     	; 0x91a0 <send_cmd+0x88>
    91b0:	fa cf       	rjmp	.-12     	; 0x91a6 <send_cmd+0x8e>
    91b2:	85 e9       	ldi	r24, 0x95	; 149
	xchg_spi(n);
    91b4:	00 df       	rcall	.-512    	; 0x8fb6 <xchg_spi>
    91b6:	db cf       	rjmp	.-74     	; 0x916e <send_cmd+0x56>
    91b8:	df 91       	pop	r29
    91ba:	cf 91       	pop	r28
	do
		res = xchg_spi(0xFF);
	while ((res & 0x80) && --n);

	return res;			/* Return with the response value */
}
    91bc:	1f 91       	pop	r17
    91be:	0f 91       	pop	r16
    91c0:	ff 90       	pop	r15
    91c2:	08 95       	ret

000091c4 <__vector_21>:
    91c4:	1f 92       	push	r1
    91c6:	0f 92       	push	r0
static volatile UINT Timer2;

static BYTE CardType;			/* Card type flags (b0:MMC, b1:SDv1, b2:SDv2, b3:Block addressing) */

ISR(TIMER0_COMPA_vect)
{
    91c8:	0f b6       	in	r0, 0x3f	; 63
    91ca:	0f 92       	push	r0
    91cc:	11 24       	eor	r1, r1
    91ce:	8f 93       	push	r24
    91d0:	9f 93       	push	r25
	if(Timer1>0)
    91d2:	80 91 66 05 	lds	r24, 0x0566	; 0x800566 <Timer1>
    91d6:	88 23       	and	r24, r24
    91d8:	29 f0       	breq	.+10     	; 0x91e4 <__vector_21+0x20>
	{
		Timer1--;
    91da:	80 91 66 05 	lds	r24, 0x0566	; 0x800566 <Timer1>
    91de:	81 50       	subi	r24, 0x01	; 1
    91e0:	80 93 66 05 	sts	0x0566, r24	; 0x800566 <Timer1>
	}
	if(Timer2>0)
    91e4:	80 91 64 05 	lds	r24, 0x0564	; 0x800564 <Timer2>
    91e8:	90 91 65 05 	lds	r25, 0x0565	; 0x800565 <Timer2+0x1>
    91ec:	89 2b       	or	r24, r25
    91ee:	49 f0       	breq	.+18     	; 0x9202 <__vector_21+0x3e>
	{
		Timer2--;
    91f0:	80 91 64 05 	lds	r24, 0x0564	; 0x800564 <Timer2>
    91f4:	90 91 65 05 	lds	r25, 0x0565	; 0x800565 <Timer2+0x1>
    91f8:	01 97       	sbiw	r24, 0x01	; 1
    91fa:	90 93 65 05 	sts	0x0565, r25	; 0x800565 <Timer2+0x1>
    91fe:	80 93 64 05 	sts	0x0564, r24	; 0x800564 <Timer2>
	}
}
    9202:	9f 91       	pop	r25
    9204:	8f 91       	pop	r24
    9206:	0f 90       	pop	r0
    9208:	0f be       	out	0x3f, r0	; 63
    920a:	0f 90       	pop	r0
    920c:	1f 90       	pop	r1
    920e:	18 95       	reti

00009210 <start_timer>:

void start_timer(void)
{
	/* Start 100Hz system timer with TC0 */
	OCR0A = ((F_CPU / 2048) / 100) - 1;
    9210:	8d e4       	ldi	r24, 0x4D	; 77
    9212:	87 bd       	out	0x27, r24	; 39
	TCCR0A = (1<<WGM01);//CTC mode
    9214:	82 e0       	ldi	r24, 0x02	; 2
    9216:	84 bd       	out	0x24, r24	; 36
	TCCR0B = 0b101; //clock/1024
    9218:	95 e0       	ldi	r25, 0x05	; 5
    921a:	95 bd       	out	0x25, r25	; 37
	TIMSK0 = (1<<OCIE0A);//Timer/Counter0 Output Compare Match A Interrupt Enable
    921c:	80 93 6e 00 	sts	0x006E, r24	; 0x80006e <__TEXT_REGION_LENGTH__+0x70006e>
	sei();
    9220:	78 94       	sei
    9222:	08 95       	ret

00009224 <mmc_disk_initialize>:
/*-----------------------------------------------------------------------*/
/* Initialize Disk Drive                                                 */
/*-----------------------------------------------------------------------*/

DSTATUS mmc_disk_initialize (void)
{
    9224:	cf 92       	push	r12
    9226:	df 92       	push	r13
    9228:	ef 92       	push	r14
    922a:	ff 92       	push	r15
    922c:	0f 93       	push	r16
    922e:	1f 93       	push	r17
    9230:	cf 93       	push	r28
    9232:	df 93       	push	r29
    9234:	00 d0       	rcall	.+0      	; 0x9236 <mmc_disk_initialize+0x12>
    9236:	1f 92       	push	r1
    9238:	cd b7       	in	r28, 0x3d	; 61
    923a:	de b7       	in	r29, 0x3e	; 62
	BYTE n, cmd, ty, ocr[4];
	
	start_timer();
    923c:	e9 df       	rcall	.-46     	; 0x9210 <start_timer>

	power_off();						/* Turn off the socket power to reset the card */
    923e:	b6 de       	rcall	.-660    	; 0x8fac <power_off>
    9240:	8a e0       	ldi	r24, 0x0A	; 10
	for (Timer1 = 10; Timer1; ) ;		/* Wait for 100ms */
    9242:	80 93 66 05 	sts	0x0566, r24	; 0x800566 <Timer1>
    9246:	80 91 66 05 	lds	r24, 0x0566	; 0x800566 <Timer1>
    924a:	81 11       	cpse	r24, r1
    924c:	fc cf       	rjmp	.-8      	; 0x9246 <mmc_disk_initialize+0x22>
    924e:	80 91 00 02 	lds	r24, 0x0200	; 0x800200 <__data_start>
	if (Stat & STA_NODISK) return Stat;	/* No card in the socket? */
    9252:	81 ff       	sbrs	r24, 1
    9254:	03 c0       	rjmp	.+6      	; 0x925c <mmc_disk_initialize+0x38>
    9256:	80 91 00 02 	lds	r24, 0x0200	; 0x800200 <__data_start>
    925a:	a0 c0       	rjmp	.+320    	; 0x939c <mmc_disk_initialize+0x178>
    925c:	2f ef       	ldi	r18, 0xFF	; 255
    925e:	89 ef       	ldi	r24, 0xF9	; 249
    9260:	90 e0       	ldi	r25, 0x00	; 0
    9262:	21 50       	subi	r18, 0x01	; 1
    9264:	80 40       	sbci	r24, 0x00	; 0
    9266:	90 40       	sbci	r25, 0x00	; 0
    9268:	e1 f7       	brne	.-8      	; 0x9262 <mmc_disk_initialize+0x3e>
    926a:	00 c0       	rjmp	.+0      	; 0x926c <mmc_disk_initialize+0x48>
    926c:	00 00       	nop
    926e:	86 e0       	ldi	r24, 0x06	; 6
	
	_delay_ms(20);

	/* Configure MOSI/MISO/SCLK/CS pins */
	
	DDRB = (1<<1)|(1<<2);	//SET SCK(PB1) AS OUTPUT, MOSI(PB2) AS OUTPUT
    9270:	84 b9       	out	0x04, r24	; 4
    9272:	54 9a       	sbi	0x0a, 4	; 10
	DDRD |= (1<<4);			//SET CS PIN(PD4) AS OUTPUT
    9274:	5c 9a       	sbi	0x0b, 4	; 11
	PORTD |= (1<<PD4);		//CS HIGH
    9276:	80 e5       	ldi	r24, 0x50	; 80

	/* Enable SPI module in SPI mode 0 */
	
	SPCR = (1<<SPE)|(1<<MSTR); //SPI ENABLED,MASTER MODE,Frequency (Fosc/4)=4MHZ
    9278:	8c bd       	out	0x2c, r24	; 44
    927a:	1a e0       	ldi	r17, 0x0A	; 10
	for (Timer1 = 10; Timer1; ) ;		/* Wait for 100ms */
	if (Stat & STA_NODISK) return Stat;	/* No card in the socket? */

	power_on();							/* Turn on the socket power */
	FCLK_SLOW();
	for (n = 10; n; n--) xchg_spi(0xFF);	/* 80 dummy clocks */
    927c:	8f ef       	ldi	r24, 0xFF	; 255
    927e:	9b de       	rcall	.-714    	; 0x8fb6 <xchg_spi>
    9280:	11 50       	subi	r17, 0x01	; 1
    9282:	e1 f7       	brne	.-8      	; 0x927c <mmc_disk_initialize+0x58>
    9284:	40 e0       	ldi	r20, 0x00	; 0

	ty = 0;
	if (send_cmd(CMD0, 0) == 1) {			/* Put the card SPI mode */
    9286:	50 e0       	ldi	r21, 0x00	; 0
    9288:	ba 01       	movw	r22, r20
    928a:	80 e0       	ldi	r24, 0x00	; 0
    928c:	45 df       	rcall	.-374    	; 0x9118 <send_cmd>
    928e:	81 30       	cpi	r24, 0x01	; 1
    9290:	09 f0       	breq	.+2      	; 0x9294 <mmc_disk_initialize+0x70>
    9292:	80 c0       	rjmp	.+256    	; 0x9394 <mmc_disk_initialize+0x170>
    9294:	84 e6       	ldi	r24, 0x64	; 100
		Timer1 = 100;						/* Initialization timeout of 1000 msec */
    9296:	80 93 66 05 	sts	0x0566, r24	; 0x800566 <Timer1>
    929a:	4a ea       	ldi	r20, 0xAA	; 170
		if (send_cmd(CMD8, 0x1AA) == 1) {	/* Is the card SDv2? */
    929c:	51 e0       	ldi	r21, 0x01	; 1
    929e:	60 e0       	ldi	r22, 0x00	; 0
    92a0:	70 e0       	ldi	r23, 0x00	; 0
    92a2:	88 e0       	ldi	r24, 0x08	; 8
    92a4:	39 df       	rcall	.-398    	; 0x9118 <send_cmd>
    92a6:	81 30       	cpi	r24, 0x01	; 1
    92a8:	09 f0       	breq	.+2      	; 0x92ac <mmc_disk_initialize+0x88>
    92aa:	3d c0       	rjmp	.+122    	; 0x9326 <mmc_disk_initialize+0x102>
    92ac:	fe 01       	movw	r30, r28
    92ae:	31 96       	adiw	r30, 0x01	; 1
    92b0:	6f 01       	movw	r12, r30
    92b2:	7e 01       	movw	r14, r28
    92b4:	f5 e0       	ldi	r31, 0x05	; 5
    92b6:	ef 0e       	add	r14, r31
    92b8:	f1 1c       	adc	r15, r1
    92ba:	86 01       	movw	r16, r12
			for (n = 0; n < 4; n++) ocr[n] = xchg_spi(0xFF);	/* Get trailing return value of R7 resp */
    92bc:	8f ef       	ldi	r24, 0xFF	; 255
    92be:	7b de       	rcall	.-778    	; 0x8fb6 <xchg_spi>
    92c0:	f8 01       	movw	r30, r16
    92c2:	81 93       	st	Z+, r24
    92c4:	8f 01       	movw	r16, r30
    92c6:	ee 16       	cp	r14, r30
    92c8:	ff 06       	cpc	r15, r31
    92ca:	c1 f7       	brne	.-16     	; 0x92bc <mmc_disk_initialize+0x98>
    92cc:	8b 81       	ldd	r24, Y+3	; 0x03
			if (ocr[2] == 0x01 && ocr[3] == 0xAA) {				/* The card can work at vdd range of 2.7-3.6V */
    92ce:	81 30       	cpi	r24, 0x01	; 1
    92d0:	09 f0       	breq	.+2      	; 0x92d4 <mmc_disk_initialize+0xb0>
    92d2:	60 c0       	rjmp	.+192    	; 0x9394 <mmc_disk_initialize+0x170>
    92d4:	8c 81       	ldd	r24, Y+4	; 0x04
    92d6:	8a 3a       	cpi	r24, 0xAA	; 170
    92d8:	09 f0       	breq	.+2      	; 0x92dc <mmc_disk_initialize+0xb8>
    92da:	5c c0       	rjmp	.+184    	; 0x9394 <mmc_disk_initialize+0x170>
    92dc:	80 91 66 05 	lds	r24, 0x0566	; 0x800566 <Timer1>
				while (Timer1 && send_cmd(ACMD41, 1UL << 30));	/* Wait for leaving idle state (ACMD41 with HCS bit) */
    92e0:	88 23       	and	r24, r24
    92e2:	41 f0       	breq	.+16     	; 0x92f4 <mmc_disk_initialize+0xd0>
    92e4:	40 e0       	ldi	r20, 0x00	; 0
    92e6:	50 e0       	ldi	r21, 0x00	; 0
    92e8:	60 e0       	ldi	r22, 0x00	; 0
    92ea:	70 e4       	ldi	r23, 0x40	; 64
    92ec:	89 ea       	ldi	r24, 0xA9	; 169
    92ee:	14 df       	rcall	.-472    	; 0x9118 <send_cmd>
    92f0:	81 11       	cpse	r24, r1
    92f2:	f4 cf       	rjmp	.-24     	; 0x92dc <mmc_disk_initialize+0xb8>
    92f4:	80 91 66 05 	lds	r24, 0x0566	; 0x800566 <Timer1>
				if (Timer1 && send_cmd(CMD58, 0) == 0) {		/* Check CCS bit in the OCR */
    92f8:	88 23       	and	r24, r24
    92fa:	09 f4       	brne	.+2      	; 0x92fe <mmc_disk_initialize+0xda>
    92fc:	4b c0       	rjmp	.+150    	; 0x9394 <mmc_disk_initialize+0x170>
    92fe:	40 e0       	ldi	r20, 0x00	; 0
    9300:	50 e0       	ldi	r21, 0x00	; 0
    9302:	ba 01       	movw	r22, r20
    9304:	8a e3       	ldi	r24, 0x3A	; 58
    9306:	08 df       	rcall	.-496    	; 0x9118 <send_cmd>
    9308:	81 11       	cpse	r24, r1
    930a:	44 c0       	rjmp	.+136    	; 0x9394 <mmc_disk_initialize+0x170>
					for (n = 0; n < 4; n++) ocr[n] = xchg_spi(0xFF);
    930c:	8f ef       	ldi	r24, 0xFF	; 255
    930e:	53 de       	rcall	.-858    	; 0x8fb6 <xchg_spi>
    9310:	f6 01       	movw	r30, r12
    9312:	81 93       	st	Z+, r24
    9314:	6f 01       	movw	r12, r30
    9316:	ee 16       	cp	r14, r30
    9318:	ff 06       	cpc	r15, r31
    931a:	c1 f7       	brne	.-16     	; 0x930c <mmc_disk_initialize+0xe8>
    931c:	89 81       	ldd	r24, Y+1	; 0x01
					ty = (ocr[0] & 0x40) ? CT_SD2 | CT_BLOCK : CT_SD2;	/* Check if the card is SDv2 */
    931e:	86 fd       	sbrc	r24, 6
    9320:	34 c0       	rjmp	.+104    	; 0x938a <mmc_disk_initialize+0x166>
    9322:	84 e0       	ldi	r24, 0x04	; 4
    9324:	33 c0       	rjmp	.+102    	; 0x938c <mmc_disk_initialize+0x168>
				}
			}
		} else {							/* SDv1 or MMCv3 */
			if (send_cmd(ACMD41, 0) <= 1) 	{
    9326:	40 e0       	ldi	r20, 0x00	; 0
    9328:	50 e0       	ldi	r21, 0x00	; 0
    932a:	ba 01       	movw	r22, r20
    932c:	89 ea       	ldi	r24, 0xA9	; 169
    932e:	f4 de       	rcall	.-536    	; 0x9118 <send_cmd>
    9330:	82 30       	cpi	r24, 0x02	; 2
    9332:	18 f0       	brcs	.+6      	; 0x933a <mmc_disk_initialize+0x116>
    9334:	01 e0       	ldi	r16, 0x01	; 1
				ty = CT_SD1; cmd = ACMD41;	/* SDv1 */
			} else {
				ty = CT_MMC; cmd = CMD1;	/* MMCv3 */
    9336:	11 e0       	ldi	r17, 0x01	; 1
    9338:	02 c0       	rjmp	.+4      	; 0x933e <mmc_disk_initialize+0x11a>
    933a:	02 e0       	ldi	r16, 0x02	; 2
					ty = (ocr[0] & 0x40) ? CT_SD2 | CT_BLOCK : CT_SD2;	/* Check if the card is SDv2 */
				}
			}
		} else {							/* SDv1 or MMCv3 */
			if (send_cmd(ACMD41, 0) <= 1) 	{
				ty = CT_SD1; cmd = ACMD41;	/* SDv1 */
    933c:	19 ea       	ldi	r17, 0xA9	; 169
			} else {
				ty = CT_MMC; cmd = CMD1;	/* MMCv3 */
			}
			while (Timer1 && send_cmd(cmd, 0));			/* Wait for leaving idle state */
    933e:	80 91 66 05 	lds	r24, 0x0566	; 0x800566 <Timer1>
    9342:	88 23       	and	r24, r24
    9344:	39 f0       	breq	.+14     	; 0x9354 <mmc_disk_initialize+0x130>
    9346:	40 e0       	ldi	r20, 0x00	; 0
    9348:	50 e0       	ldi	r21, 0x00	; 0
    934a:	ba 01       	movw	r22, r20
    934c:	81 2f       	mov	r24, r17
    934e:	e4 de       	rcall	.-568    	; 0x9118 <send_cmd>
    9350:	81 11       	cpse	r24, r1
    9352:	f5 cf       	rjmp	.-22     	; 0x933e <mmc_disk_initialize+0x11a>
			if (!Timer1 || send_cmd(CMD16, 512) != 0)	/* Set R/W block length to 512 */
    9354:	80 91 66 05 	lds	r24, 0x0566	; 0x800566 <Timer1>
    9358:	88 23       	and	r24, r24
    935a:	e1 f0       	breq	.+56     	; 0x9394 <mmc_disk_initialize+0x170>
    935c:	40 e0       	ldi	r20, 0x00	; 0
    935e:	52 e0       	ldi	r21, 0x02	; 2
    9360:	60 e0       	ldi	r22, 0x00	; 0
    9362:	70 e0       	ldi	r23, 0x00	; 0
    9364:	80 e1       	ldi	r24, 0x10	; 16
    9366:	d8 de       	rcall	.-592    	; 0x9118 <send_cmd>
    9368:	81 11       	cpse	r24, r1
				ty = 0;
		}
	}
	CardType = ty;
    936a:	14 c0       	rjmp	.+40     	; 0x9394 <mmc_disk_initialize+0x170>
    936c:	00 93 63 05 	sts	0x0563, r16	; 0x800563 <CardType>
	deselect();
    9370:	4c de       	rcall	.-872    	; 0x900a <deselect>

	if (ty) {			/* Initialization succeded */
    9372:	00 23       	and	r16, r16
    9374:	31 f0       	breq	.+12     	; 0x9382 <mmc_disk_initialize+0x15e>
		Stat &= ~STA_NOINIT;		/* Clear STA_NOINIT */
    9376:	80 91 00 02 	lds	r24, 0x0200	; 0x800200 <__data_start>
    937a:	8e 7f       	andi	r24, 0xFE	; 254
    937c:	80 93 00 02 	sts	0x0200, r24	; 0x800200 <__data_start>
		FCLK_FAST();
	} else {			/* Initialization failed */
		power_off();
    9380:	01 c0       	rjmp	.+2      	; 0x9384 <mmc_disk_initialize+0x160>
	}

	return Stat;
    9382:	14 de       	rcall	.-984    	; 0x8fac <power_off>
    9384:	80 91 00 02 	lds	r24, 0x0200	; 0x800200 <__data_start>
			for (n = 0; n < 4; n++) ocr[n] = xchg_spi(0xFF);	/* Get trailing return value of R7 resp */
			if (ocr[2] == 0x01 && ocr[3] == 0xAA) {				/* The card can work at vdd range of 2.7-3.6V */
				while (Timer1 && send_cmd(ACMD41, 1UL << 30));	/* Wait for leaving idle state (ACMD41 with HCS bit) */
				if (Timer1 && send_cmd(CMD58, 0) == 0) {		/* Check CCS bit in the OCR */
					for (n = 0; n < 4; n++) ocr[n] = xchg_spi(0xFF);
					ty = (ocr[0] & 0x40) ? CT_SD2 | CT_BLOCK : CT_SD2;	/* Check if the card is SDv2 */
    9388:	09 c0       	rjmp	.+18     	; 0x939c <mmc_disk_initialize+0x178>
			while (Timer1 && send_cmd(cmd, 0));			/* Wait for leaving idle state */
			if (!Timer1 || send_cmd(CMD16, 512) != 0)	/* Set R/W block length to 512 */
				ty = 0;
		}
	}
	CardType = ty;
    938a:	8c e0       	ldi	r24, 0x0C	; 12
    938c:	80 93 63 05 	sts	0x0563, r24	; 0x800563 <CardType>
	deselect();
    9390:	3c de       	rcall	.-904    	; 0x900a <deselect>
    9392:	f1 cf       	rjmp	.-30     	; 0x9376 <mmc_disk_initialize+0x152>
			while (Timer1 && send_cmd(cmd, 0));			/* Wait for leaving idle state */
			if (!Timer1 || send_cmd(CMD16, 512) != 0)	/* Set R/W block length to 512 */
				ty = 0;
		}
	}
	CardType = ty;
    9394:	10 92 63 05 	sts	0x0563, r1	; 0x800563 <CardType>
	deselect();
    9398:	38 de       	rcall	.-912    	; 0x900a <deselect>
    939a:	f3 cf       	rjmp	.-26     	; 0x9382 <mmc_disk_initialize+0x15e>
    939c:	0f 90       	pop	r0
	} else {			/* Initialization failed */
		power_off();
	}

	return Stat;
}
    939e:	0f 90       	pop	r0
    93a0:	0f 90       	pop	r0
    93a2:	0f 90       	pop	r0
    93a4:	df 91       	pop	r29
    93a6:	cf 91       	pop	r28
    93a8:	1f 91       	pop	r17
    93aa:	0f 91       	pop	r16
    93ac:	ff 90       	pop	r15
    93ae:	ef 90       	pop	r14
    93b0:	df 90       	pop	r13
    93b2:	cf 90       	pop	r12
    93b4:	08 95       	ret

000093b6 <mmc_disk_status>:
    93b6:	80 91 00 02 	lds	r24, 0x0200	; 0x800200 <__data_start>
/*-----------------------------------------------------------------------*/

DSTATUS mmc_disk_status (void)
{
	return Stat;
}
    93ba:	08 95       	ret

000093bc <mmc_disk_read>:
DRESULT mmc_disk_read (
	BYTE *buff,			/* Pointer to the data buffer to store read data */
	DWORD sector,		/* Start sector number (LBA) */
	UINT count			/* Sector count (1..128) */
)
{
    93bc:	ff 92       	push	r15
    93be:	0f 93       	push	r16
    93c0:	1f 93       	push	r17
    93c2:	cf 93       	push	r28
    93c4:	df 93       	push	r29
    93c6:	8c 01       	movw	r16, r24
    93c8:	e9 01       	movw	r28, r18
	BYTE cmd;


	if (!count) return RES_PARERR;
    93ca:	20 97       	sbiw	r28, 0x00	; 0
    93cc:	c1 f1       	breq	.+112    	; 0x943e <mmc_disk_read+0x82>
	if (Stat & STA_NOINIT) return RES_NOTRDY;
    93ce:	80 91 00 02 	lds	r24, 0x0200	; 0x800200 <__data_start>
    93d2:	80 fd       	sbrc	r24, 0
    93d4:	36 c0       	rjmp	.+108    	; 0x9442 <mmc_disk_read+0x86>

	if (!(CardType & CT_BLOCK)) sector *= 512;	/* Convert to byte address if needed */
    93d6:	80 91 63 05 	lds	r24, 0x0563	; 0x800563 <CardType>
    93da:	83 fd       	sbrc	r24, 3
    93dc:	09 c0       	rjmp	.+18     	; 0x93f0 <mmc_disk_read+0x34>
    93de:	03 2e       	mov	r0, r19
    93e0:	39 e0       	ldi	r19, 0x09	; 9
    93e2:	44 0f       	add	r20, r20
    93e4:	55 1f       	adc	r21, r21
    93e6:	66 1f       	adc	r22, r22
    93e8:	77 1f       	adc	r23, r23
    93ea:	3a 95       	dec	r19
    93ec:	d1 f7       	brne	.-12     	; 0x93e2 <mmc_disk_read+0x26>
    93ee:	30 2d       	mov	r19, r0

	cmd = count > 1 ? CMD18 : CMD17;			/*  READ_MULTIPLE_BLOCK : READ_SINGLE_BLOCK */
    93f0:	c2 30       	cpi	r28, 0x02	; 2
    93f2:	d1 05       	cpc	r29, r1
    93f4:	28 f4       	brcc	.+10     	; 0x9400 <mmc_disk_read+0x44>
    93f6:	0f 2e       	mov	r0, r31
    93f8:	f1 e1       	ldi	r31, 0x11	; 17
    93fa:	ff 2e       	mov	r15, r31
    93fc:	f0 2d       	mov	r31, r0
    93fe:	04 c0       	rjmp	.+8      	; 0x9408 <mmc_disk_read+0x4c>
    9400:	0f 2e       	mov	r0, r31
    9402:	f2 e1       	ldi	r31, 0x12	; 18
    9404:	ff 2e       	mov	r15, r31
    9406:	f0 2d       	mov	r31, r0
	if (send_cmd(cmd, sector) == 0) {
    9408:	8f 2d       	mov	r24, r15
    940a:	86 de       	rcall	.-756    	; 0x9118 <send_cmd>
    940c:	81 11       	cpse	r24, r1
    940e:	11 c0       	rjmp	.+34     	; 0x9432 <mmc_disk_read+0x76>
		do {
			if (!rcvr_datablock(buff, 512)) break;
    9410:	60 e0       	ldi	r22, 0x00	; 0
    9412:	72 e0       	ldi	r23, 0x02	; 2
    9414:	c8 01       	movw	r24, r16
    9416:	10 de       	rcall	.-992    	; 0x9038 <rcvr_datablock>
    9418:	89 2b       	or	r24, r25
    941a:	19 f0       	breq	.+6      	; 0x9422 <mmc_disk_read+0x66>
			buff += 512;
    941c:	1e 5f       	subi	r17, 0xFE	; 254
		} while (--count);
    941e:	21 97       	sbiw	r28, 0x01	; 1
    9420:	b9 f7       	brne	.-18     	; 0x9410 <mmc_disk_read+0x54>
		if (cmd == CMD18) send_cmd(CMD12, 0);	/* STOP_TRANSMISSION */
    9422:	82 e1       	ldi	r24, 0x12	; 18
    9424:	f8 12       	cpse	r15, r24
    9426:	05 c0       	rjmp	.+10     	; 0x9432 <mmc_disk_read+0x76>
    9428:	40 e0       	ldi	r20, 0x00	; 0
    942a:	50 e0       	ldi	r21, 0x00	; 0
    942c:	ba 01       	movw	r22, r20
    942e:	8c e0       	ldi	r24, 0x0C	; 12
	}
	deselect();
    9430:	73 de       	rcall	.-794    	; 0x9118 <send_cmd>
    9432:	eb dd       	rcall	.-1066   	; 0x900a <deselect>

	return count ? RES_ERROR : RES_OK;
    9434:	81 e0       	ldi	r24, 0x01	; 1
    9436:	cd 2b       	or	r28, r29
    9438:	29 f4       	brne	.+10     	; 0x9444 <mmc_disk_read+0x88>
    943a:	80 e0       	ldi	r24, 0x00	; 0
    943c:	03 c0       	rjmp	.+6      	; 0x9444 <mmc_disk_read+0x88>
)
{
	BYTE cmd;


	if (!count) return RES_PARERR;
    943e:	84 e0       	ldi	r24, 0x04	; 4
    9440:	01 c0       	rjmp	.+2      	; 0x9444 <mmc_disk_read+0x88>
	if (Stat & STA_NOINIT) return RES_NOTRDY;
    9442:	83 e0       	ldi	r24, 0x03	; 3
		if (cmd == CMD18) send_cmd(CMD12, 0);	/* STOP_TRANSMISSION */
	}
	deselect();

	return count ? RES_ERROR : RES_OK;
}
    9444:	df 91       	pop	r29
    9446:	cf 91       	pop	r28
    9448:	1f 91       	pop	r17
    944a:	0f 91       	pop	r16
    944c:	ff 90       	pop	r15
    944e:	08 95       	ret

00009450 <mmc_disk_write>:
DRESULT mmc_disk_write (
	const BYTE *buff,	/* Pointer to the data to be written */
	DWORD sector,		/* Start sector number (LBA) */
	UINT count			/* Sector count (1..128) */
)
{
    9450:	cf 92       	push	r12
    9452:	df 92       	push	r13
    9454:	ef 92       	push	r14
    9456:	ff 92       	push	r15
    9458:	0f 93       	push	r16
    945a:	1f 93       	push	r17
    945c:	cf 93       	push	r28
    945e:	df 93       	push	r29
    9460:	8c 01       	movw	r16, r24
    9462:	6a 01       	movw	r12, r20
    9464:	7b 01       	movw	r14, r22
    9466:	e9 01       	movw	r28, r18
	if (!count) return RES_PARERR;
    9468:	20 97       	sbiw	r28, 0x00	; 0
    946a:	09 f4       	brne	.+2      	; 0x946e <mmc_disk_write+0x1e>
    946c:	4c c0       	rjmp	.+152    	; 0x9506 <mmc_disk_write+0xb6>
	if (Stat & STA_NOINIT) return RES_NOTRDY;
    946e:	80 91 00 02 	lds	r24, 0x0200	; 0x800200 <__data_start>
    9472:	80 fd       	sbrc	r24, 0
    9474:	4a c0       	rjmp	.+148    	; 0x950a <mmc_disk_write+0xba>
	if (Stat & STA_PROTECT) return RES_WRPRT;
    9476:	80 91 00 02 	lds	r24, 0x0200	; 0x800200 <__data_start>
    947a:	82 fd       	sbrc	r24, 2
    947c:	48 c0       	rjmp	.+144    	; 0x950e <mmc_disk_write+0xbe>

	if (!(CardType & CT_BLOCK)) sector *= 512;	/* Convert to byte address if needed */
    947e:	80 91 63 05 	lds	r24, 0x0563	; 0x800563 <CardType>
    9482:	83 fd       	sbrc	r24, 3
    9484:	09 c0       	rjmp	.+18     	; 0x9498 <mmc_disk_write+0x48>
    9486:	0b 2e       	mov	r0, r27
    9488:	b9 e0       	ldi	r27, 0x09	; 9
    948a:	cc 0c       	add	r12, r12
    948c:	dd 1c       	adc	r13, r13
    948e:	ee 1c       	adc	r14, r14
    9490:	ff 1c       	adc	r15, r15
    9492:	ba 95       	dec	r27
    9494:	d1 f7       	brne	.-12     	; 0x948a <mmc_disk_write+0x3a>
    9496:	b0 2d       	mov	r27, r0

	if (count == 1) {	/* Single block write */
    9498:	c1 30       	cpi	r28, 0x01	; 1
    949a:	d1 05       	cpc	r29, r1
    949c:	89 f4       	brne	.+34     	; 0x94c0 <mmc_disk_write+0x70>
		if ((send_cmd(CMD24, sector) == 0)	/* WRITE_BLOCK */
    949e:	b7 01       	movw	r22, r14
    94a0:	a6 01       	movw	r20, r12
    94a2:	88 e1       	ldi	r24, 0x18	; 24
    94a4:	39 de       	rcall	.-910    	; 0x9118 <send_cmd>
    94a6:	81 11       	cpse	r24, r1
    94a8:	28 c0       	rjmp	.+80     	; 0x94fa <mmc_disk_write+0xaa>
			&& xmit_datablock(buff, 0xFE)) {
    94aa:	6e ef       	ldi	r22, 0xFE	; 254
    94ac:	c8 01       	movw	r24, r16
    94ae:	fe dd       	rcall	.-1028   	; 0x90ac <xmit_datablock>
    94b0:	31 e0       	ldi	r19, 0x01	; 1
    94b2:	20 e0       	ldi	r18, 0x00	; 0
    94b4:	89 2b       	or	r24, r25
    94b6:	09 f0       	breq	.+2      	; 0x94ba <mmc_disk_write+0x6a>
    94b8:	30 e0       	ldi	r19, 0x00	; 0
    94ba:	c3 2f       	mov	r28, r19
    94bc:	d2 2f       	mov	r29, r18
    94be:	1d c0       	rjmp	.+58     	; 0x94fa <mmc_disk_write+0xaa>
			count = 0;
		}
	}
	else {				/* Multiple block write */
		if (CardType & CT_SDC) send_cmd(ACMD23, count);
    94c0:	86 70       	andi	r24, 0x06	; 6
    94c2:	29 f0       	breq	.+10     	; 0x94ce <mmc_disk_write+0x7e>
    94c4:	ae 01       	movw	r20, r28
    94c6:	60 e0       	ldi	r22, 0x00	; 0
    94c8:	70 e0       	ldi	r23, 0x00	; 0
    94ca:	87 e9       	ldi	r24, 0x97	; 151
    94cc:	25 de       	rcall	.-950    	; 0x9118 <send_cmd>
		if (send_cmd(CMD25, sector) == 0) {	/* WRITE_MULTIPLE_BLOCK */
    94ce:	b7 01       	movw	r22, r14
    94d0:	a6 01       	movw	r20, r12
    94d2:	89 e1       	ldi	r24, 0x19	; 25
    94d4:	21 de       	rcall	.-958    	; 0x9118 <send_cmd>
    94d6:	81 11       	cpse	r24, r1
			do {
				if (!xmit_datablock(buff, 0xFC)) break;
    94d8:	10 c0       	rjmp	.+32     	; 0x94fa <mmc_disk_write+0xaa>
    94da:	6c ef       	ldi	r22, 0xFC	; 252
    94dc:	c8 01       	movw	r24, r16
    94de:	e6 dd       	rcall	.-1076   	; 0x90ac <xmit_datablock>
    94e0:	89 2b       	or	r24, r25
    94e2:	19 f0       	breq	.+6      	; 0x94ea <mmc_disk_write+0x9a>
				buff += 512;
    94e4:	1e 5f       	subi	r17, 0xFE	; 254
			} while (--count);
    94e6:	21 97       	sbiw	r28, 0x01	; 1
			if (!xmit_datablock(0, 0xFD)) count = 1;	/* STOP_TRAN token */
    94e8:	c1 f7       	brne	.-16     	; 0x94da <mmc_disk_write+0x8a>
    94ea:	6d ef       	ldi	r22, 0xFD	; 253
    94ec:	80 e0       	ldi	r24, 0x00	; 0
    94ee:	90 e0       	ldi	r25, 0x00	; 0
    94f0:	dd dd       	rcall	.-1094   	; 0x90ac <xmit_datablock>
    94f2:	89 2b       	or	r24, r25
    94f4:	11 f4       	brne	.+4      	; 0x94fa <mmc_disk_write+0xaa>
    94f6:	c1 e0       	ldi	r28, 0x01	; 1
		}
	}
	deselect();
    94f8:	d0 e0       	ldi	r29, 0x00	; 0
    94fa:	87 dd       	rcall	.-1266   	; 0x900a <deselect>

	return count ? RES_ERROR : RES_OK;
    94fc:	81 e0       	ldi	r24, 0x01	; 1
    94fe:	cd 2b       	or	r28, r29
    9500:	39 f4       	brne	.+14     	; 0x9510 <mmc_disk_write+0xc0>
    9502:	80 e0       	ldi	r24, 0x00	; 0
    9504:	05 c0       	rjmp	.+10     	; 0x9510 <mmc_disk_write+0xc0>
	const BYTE *buff,	/* Pointer to the data to be written */
	DWORD sector,		/* Start sector number (LBA) */
	UINT count			/* Sector count (1..128) */
)
{
	if (!count) return RES_PARERR;
    9506:	84 e0       	ldi	r24, 0x04	; 4
    9508:	03 c0       	rjmp	.+6      	; 0x9510 <mmc_disk_write+0xc0>
	if (Stat & STA_NOINIT) return RES_NOTRDY;
    950a:	83 e0       	ldi	r24, 0x03	; 3
    950c:	01 c0       	rjmp	.+2      	; 0x9510 <mmc_disk_write+0xc0>
	if (Stat & STA_PROTECT) return RES_WRPRT;
    950e:	82 e0       	ldi	r24, 0x02	; 2
		}
	}
	deselect();

	return count ? RES_ERROR : RES_OK;
}
    9510:	df 91       	pop	r29
    9512:	cf 91       	pop	r28
    9514:	1f 91       	pop	r17
    9516:	0f 91       	pop	r16
    9518:	ff 90       	pop	r15
    951a:	ef 90       	pop	r14
    951c:	df 90       	pop	r13
    951e:	cf 90       	pop	r12
    9520:	08 95       	ret

00009522 <__fixunssfsi>:
    9522:	70 d0       	rcall	.+224    	; 0x9604 <__fp_splitA>
    9524:	88 f0       	brcs	.+34     	; 0x9548 <__fixunssfsi+0x26>
    9526:	9f 57       	subi	r25, 0x7F	; 127
    9528:	90 f0       	brcs	.+36     	; 0x954e <__fixunssfsi+0x2c>
    952a:	b9 2f       	mov	r27, r25
    952c:	99 27       	eor	r25, r25
    952e:	b7 51       	subi	r27, 0x17	; 23
    9530:	a0 f0       	brcs	.+40     	; 0x955a <__fixunssfsi+0x38>
    9532:	d1 f0       	breq	.+52     	; 0x9568 <__fixunssfsi+0x46>
    9534:	66 0f       	add	r22, r22
    9536:	77 1f       	adc	r23, r23
    9538:	88 1f       	adc	r24, r24
    953a:	99 1f       	adc	r25, r25
    953c:	1a f0       	brmi	.+6      	; 0x9544 <__fixunssfsi+0x22>
    953e:	ba 95       	dec	r27
    9540:	c9 f7       	brne	.-14     	; 0x9534 <__fixunssfsi+0x12>
    9542:	12 c0       	rjmp	.+36     	; 0x9568 <__fixunssfsi+0x46>
    9544:	b1 30       	cpi	r27, 0x01	; 1
    9546:	81 f0       	breq	.+32     	; 0x9568 <__fixunssfsi+0x46>
    9548:	77 d0       	rcall	.+238    	; 0x9638 <__fp_zero>
    954a:	b1 e0       	ldi	r27, 0x01	; 1
    954c:	08 95       	ret
    954e:	74 c0       	rjmp	.+232    	; 0x9638 <__fp_zero>
    9550:	67 2f       	mov	r22, r23
    9552:	78 2f       	mov	r23, r24
    9554:	88 27       	eor	r24, r24
    9556:	b8 5f       	subi	r27, 0xF8	; 248
    9558:	39 f0       	breq	.+14     	; 0x9568 <__fixunssfsi+0x46>
    955a:	b9 3f       	cpi	r27, 0xF9	; 249
    955c:	cc f3       	brlt	.-14     	; 0x9550 <__fixunssfsi+0x2e>
    955e:	86 95       	lsr	r24
    9560:	77 95       	ror	r23
    9562:	67 95       	ror	r22
    9564:	b3 95       	inc	r27
    9566:	d9 f7       	brne	.-10     	; 0x955e <__fixunssfsi+0x3c>
    9568:	3e f4       	brtc	.+14     	; 0x9578 <__fixunssfsi+0x56>
    956a:	90 95       	com	r25
    956c:	80 95       	com	r24
    956e:	70 95       	com	r23
    9570:	61 95       	neg	r22
    9572:	7f 4f       	sbci	r23, 0xFF	; 255
    9574:	8f 4f       	sbci	r24, 0xFF	; 255
    9576:	9f 4f       	sbci	r25, 0xFF	; 255
    9578:	08 95       	ret

0000957a <__floatunsisf>:
    957a:	e8 94       	clt
    957c:	09 c0       	rjmp	.+18     	; 0x9590 <__floatsisf+0x12>

0000957e <__floatsisf>:
    957e:	97 fb       	bst	r25, 7
    9580:	3e f4       	brtc	.+14     	; 0x9590 <__floatsisf+0x12>
    9582:	90 95       	com	r25
    9584:	80 95       	com	r24
    9586:	70 95       	com	r23
    9588:	61 95       	neg	r22
    958a:	7f 4f       	sbci	r23, 0xFF	; 255
    958c:	8f 4f       	sbci	r24, 0xFF	; 255
    958e:	9f 4f       	sbci	r25, 0xFF	; 255
    9590:	99 23       	and	r25, r25
    9592:	a9 f0       	breq	.+42     	; 0x95be <__floatsisf+0x40>
    9594:	f9 2f       	mov	r31, r25
    9596:	96 e9       	ldi	r25, 0x96	; 150
    9598:	bb 27       	eor	r27, r27
    959a:	93 95       	inc	r25
    959c:	f6 95       	lsr	r31
    959e:	87 95       	ror	r24
    95a0:	77 95       	ror	r23
    95a2:	67 95       	ror	r22
    95a4:	b7 95       	ror	r27
    95a6:	f1 11       	cpse	r31, r1
    95a8:	f8 cf       	rjmp	.-16     	; 0x959a <__floatsisf+0x1c>
    95aa:	fa f4       	brpl	.+62     	; 0x95ea <__floatsisf+0x6c>
    95ac:	bb 0f       	add	r27, r27
    95ae:	11 f4       	brne	.+4      	; 0x95b4 <__floatsisf+0x36>
    95b0:	60 ff       	sbrs	r22, 0
    95b2:	1b c0       	rjmp	.+54     	; 0x95ea <__floatsisf+0x6c>
    95b4:	6f 5f       	subi	r22, 0xFF	; 255
    95b6:	7f 4f       	sbci	r23, 0xFF	; 255
    95b8:	8f 4f       	sbci	r24, 0xFF	; 255
    95ba:	9f 4f       	sbci	r25, 0xFF	; 255
    95bc:	16 c0       	rjmp	.+44     	; 0x95ea <__floatsisf+0x6c>
    95be:	88 23       	and	r24, r24
    95c0:	11 f0       	breq	.+4      	; 0x95c6 <__floatsisf+0x48>
    95c2:	96 e9       	ldi	r25, 0x96	; 150
    95c4:	11 c0       	rjmp	.+34     	; 0x95e8 <__floatsisf+0x6a>
    95c6:	77 23       	and	r23, r23
    95c8:	21 f0       	breq	.+8      	; 0x95d2 <__floatsisf+0x54>
    95ca:	9e e8       	ldi	r25, 0x8E	; 142
    95cc:	87 2f       	mov	r24, r23
    95ce:	76 2f       	mov	r23, r22
    95d0:	05 c0       	rjmp	.+10     	; 0x95dc <__floatsisf+0x5e>
    95d2:	66 23       	and	r22, r22
    95d4:	71 f0       	breq	.+28     	; 0x95f2 <__floatsisf+0x74>
    95d6:	96 e8       	ldi	r25, 0x86	; 134
    95d8:	86 2f       	mov	r24, r22
    95da:	70 e0       	ldi	r23, 0x00	; 0
    95dc:	60 e0       	ldi	r22, 0x00	; 0
    95de:	2a f0       	brmi	.+10     	; 0x95ea <__floatsisf+0x6c>
    95e0:	9a 95       	dec	r25
    95e2:	66 0f       	add	r22, r22
    95e4:	77 1f       	adc	r23, r23
    95e6:	88 1f       	adc	r24, r24
    95e8:	da f7       	brpl	.-10     	; 0x95e0 <__floatsisf+0x62>
    95ea:	88 0f       	add	r24, r24
    95ec:	96 95       	lsr	r25
    95ee:	87 95       	ror	r24
    95f0:	97 f9       	bld	r25, 7
    95f2:	08 95       	ret

000095f4 <__fp_split3>:
    95f4:	57 fd       	sbrc	r21, 7
    95f6:	90 58       	subi	r25, 0x80	; 128
    95f8:	44 0f       	add	r20, r20
    95fa:	55 1f       	adc	r21, r21
    95fc:	59 f0       	breq	.+22     	; 0x9614 <__fp_splitA+0x10>
    95fe:	5f 3f       	cpi	r21, 0xFF	; 255
    9600:	71 f0       	breq	.+28     	; 0x961e <__fp_splitA+0x1a>
    9602:	47 95       	ror	r20

00009604 <__fp_splitA>:
    9604:	88 0f       	add	r24, r24
    9606:	97 fb       	bst	r25, 7
    9608:	99 1f       	adc	r25, r25
    960a:	61 f0       	breq	.+24     	; 0x9624 <__fp_splitA+0x20>
    960c:	9f 3f       	cpi	r25, 0xFF	; 255
    960e:	79 f0       	breq	.+30     	; 0x962e <__fp_splitA+0x2a>
    9610:	87 95       	ror	r24
    9612:	08 95       	ret
    9614:	12 16       	cp	r1, r18
    9616:	13 06       	cpc	r1, r19
    9618:	14 06       	cpc	r1, r20
    961a:	55 1f       	adc	r21, r21
    961c:	f2 cf       	rjmp	.-28     	; 0x9602 <__fp_split3+0xe>
    961e:	46 95       	lsr	r20
    9620:	f1 df       	rcall	.-30     	; 0x9604 <__fp_splitA>
    9622:	08 c0       	rjmp	.+16     	; 0x9634 <__fp_splitA+0x30>
    9624:	16 16       	cp	r1, r22
    9626:	17 06       	cpc	r1, r23
    9628:	18 06       	cpc	r1, r24
    962a:	99 1f       	adc	r25, r25
    962c:	f1 cf       	rjmp	.-30     	; 0x9610 <__fp_splitA+0xc>
    962e:	86 95       	lsr	r24
    9630:	71 05       	cpc	r23, r1
    9632:	61 05       	cpc	r22, r1
    9634:	08 94       	sec
    9636:	08 95       	ret

00009638 <__fp_zero>:
    9638:	e8 94       	clt

0000963a <__fp_szero>:
    963a:	bb 27       	eor	r27, r27
    963c:	66 27       	eor	r22, r22
    963e:	77 27       	eor	r23, r23
    9640:	cb 01       	movw	r24, r22
    9642:	97 f9       	bld	r25, 7
    9644:	08 95       	ret

00009646 <__mulsf3>:
    9646:	0b d0       	rcall	.+22     	; 0x965e <__mulsf3x>
    9648:	78 c0       	rjmp	.+240    	; 0x973a <__fp_round>
    964a:	69 d0       	rcall	.+210    	; 0x971e <__fp_pscA>
    964c:	28 f0       	brcs	.+10     	; 0x9658 <__mulsf3+0x12>
    964e:	6e d0       	rcall	.+220    	; 0x972c <__fp_pscB>
    9650:	18 f0       	brcs	.+6      	; 0x9658 <__mulsf3+0x12>
    9652:	95 23       	and	r25, r21
    9654:	09 f0       	breq	.+2      	; 0x9658 <__mulsf3+0x12>
    9656:	5a c0       	rjmp	.+180    	; 0x970c <__fp_inf>
    9658:	5f c0       	rjmp	.+190    	; 0x9718 <__fp_nan>
    965a:	11 24       	eor	r1, r1
    965c:	ee cf       	rjmp	.-36     	; 0x963a <__fp_szero>

0000965e <__mulsf3x>:
    965e:	ca df       	rcall	.-108    	; 0x95f4 <__fp_split3>
    9660:	a0 f3       	brcs	.-24     	; 0x964a <__mulsf3+0x4>

00009662 <__mulsf3_pse>:
    9662:	95 9f       	mul	r25, r21
    9664:	d1 f3       	breq	.-12     	; 0x965a <__mulsf3+0x14>
    9666:	95 0f       	add	r25, r21
    9668:	50 e0       	ldi	r21, 0x00	; 0
    966a:	55 1f       	adc	r21, r21
    966c:	62 9f       	mul	r22, r18
    966e:	f0 01       	movw	r30, r0
    9670:	72 9f       	mul	r23, r18
    9672:	bb 27       	eor	r27, r27
    9674:	f0 0d       	add	r31, r0
    9676:	b1 1d       	adc	r27, r1
    9678:	63 9f       	mul	r22, r19
    967a:	aa 27       	eor	r26, r26
    967c:	f0 0d       	add	r31, r0
    967e:	b1 1d       	adc	r27, r1
    9680:	aa 1f       	adc	r26, r26
    9682:	64 9f       	mul	r22, r20
    9684:	66 27       	eor	r22, r22
    9686:	b0 0d       	add	r27, r0
    9688:	a1 1d       	adc	r26, r1
    968a:	66 1f       	adc	r22, r22
    968c:	82 9f       	mul	r24, r18
    968e:	22 27       	eor	r18, r18
    9690:	b0 0d       	add	r27, r0
    9692:	a1 1d       	adc	r26, r1
    9694:	62 1f       	adc	r22, r18
    9696:	73 9f       	mul	r23, r19
    9698:	b0 0d       	add	r27, r0
    969a:	a1 1d       	adc	r26, r1
    969c:	62 1f       	adc	r22, r18
    969e:	83 9f       	mul	r24, r19
    96a0:	a0 0d       	add	r26, r0
    96a2:	61 1d       	adc	r22, r1
    96a4:	22 1f       	adc	r18, r18
    96a6:	74 9f       	mul	r23, r20
    96a8:	33 27       	eor	r19, r19
    96aa:	a0 0d       	add	r26, r0
    96ac:	61 1d       	adc	r22, r1
    96ae:	23 1f       	adc	r18, r19
    96b0:	84 9f       	mul	r24, r20
    96b2:	60 0d       	add	r22, r0
    96b4:	21 1d       	adc	r18, r1
    96b6:	82 2f       	mov	r24, r18
    96b8:	76 2f       	mov	r23, r22
    96ba:	6a 2f       	mov	r22, r26
    96bc:	11 24       	eor	r1, r1
    96be:	9f 57       	subi	r25, 0x7F	; 127
    96c0:	50 40       	sbci	r21, 0x00	; 0
    96c2:	8a f0       	brmi	.+34     	; 0x96e6 <__mulsf3_pse+0x84>
    96c4:	e1 f0       	breq	.+56     	; 0x96fe <__mulsf3_pse+0x9c>
    96c6:	88 23       	and	r24, r24
    96c8:	4a f0       	brmi	.+18     	; 0x96dc <__mulsf3_pse+0x7a>
    96ca:	ee 0f       	add	r30, r30
    96cc:	ff 1f       	adc	r31, r31
    96ce:	bb 1f       	adc	r27, r27
    96d0:	66 1f       	adc	r22, r22
    96d2:	77 1f       	adc	r23, r23
    96d4:	88 1f       	adc	r24, r24
    96d6:	91 50       	subi	r25, 0x01	; 1
    96d8:	50 40       	sbci	r21, 0x00	; 0
    96da:	a9 f7       	brne	.-22     	; 0x96c6 <__mulsf3_pse+0x64>
    96dc:	9e 3f       	cpi	r25, 0xFE	; 254
    96de:	51 05       	cpc	r21, r1
    96e0:	70 f0       	brcs	.+28     	; 0x96fe <__mulsf3_pse+0x9c>
    96e2:	14 c0       	rjmp	.+40     	; 0x970c <__fp_inf>
    96e4:	aa cf       	rjmp	.-172    	; 0x963a <__fp_szero>
    96e6:	5f 3f       	cpi	r21, 0xFF	; 255
    96e8:	ec f3       	brlt	.-6      	; 0x96e4 <__mulsf3_pse+0x82>
    96ea:	98 3e       	cpi	r25, 0xE8	; 232
    96ec:	dc f3       	brlt	.-10     	; 0x96e4 <__mulsf3_pse+0x82>
    96ee:	86 95       	lsr	r24
    96f0:	77 95       	ror	r23
    96f2:	67 95       	ror	r22
    96f4:	b7 95       	ror	r27
    96f6:	f7 95       	ror	r31
    96f8:	e7 95       	ror	r30
    96fa:	9f 5f       	subi	r25, 0xFF	; 255
    96fc:	c1 f7       	brne	.-16     	; 0x96ee <__mulsf3_pse+0x8c>
    96fe:	fe 2b       	or	r31, r30
    9700:	88 0f       	add	r24, r24
    9702:	91 1d       	adc	r25, r1
    9704:	96 95       	lsr	r25
    9706:	87 95       	ror	r24
    9708:	97 f9       	bld	r25, 7
    970a:	08 95       	ret

0000970c <__fp_inf>:
    970c:	97 f9       	bld	r25, 7
    970e:	9f 67       	ori	r25, 0x7F	; 127
    9710:	80 e8       	ldi	r24, 0x80	; 128
    9712:	70 e0       	ldi	r23, 0x00	; 0
    9714:	60 e0       	ldi	r22, 0x00	; 0
    9716:	08 95       	ret

00009718 <__fp_nan>:
    9718:	9f ef       	ldi	r25, 0xFF	; 255
    971a:	80 ec       	ldi	r24, 0xC0	; 192
    971c:	08 95       	ret

0000971e <__fp_pscA>:
    971e:	00 24       	eor	r0, r0
    9720:	0a 94       	dec	r0
    9722:	16 16       	cp	r1, r22
    9724:	17 06       	cpc	r1, r23
    9726:	18 06       	cpc	r1, r24
    9728:	09 06       	cpc	r0, r25
    972a:	08 95       	ret

0000972c <__fp_pscB>:
    972c:	00 24       	eor	r0, r0
    972e:	0a 94       	dec	r0
    9730:	12 16       	cp	r1, r18
    9732:	13 06       	cpc	r1, r19
    9734:	14 06       	cpc	r1, r20
    9736:	05 06       	cpc	r0, r21
    9738:	08 95       	ret

0000973a <__fp_round>:
    973a:	09 2e       	mov	r0, r25
    973c:	03 94       	inc	r0
    973e:	00 0c       	add	r0, r0
    9740:	11 f4       	brne	.+4      	; 0x9746 <__fp_round+0xc>
    9742:	88 23       	and	r24, r24
    9744:	52 f0       	brmi	.+20     	; 0x975a <__fp_round+0x20>
    9746:	bb 0f       	add	r27, r27
    9748:	40 f4       	brcc	.+16     	; 0x975a <__fp_round+0x20>
    974a:	bf 2b       	or	r27, r31
    974c:	11 f4       	brne	.+4      	; 0x9752 <__fp_round+0x18>
    974e:	60 ff       	sbrs	r22, 0
    9750:	04 c0       	rjmp	.+8      	; 0x975a <__fp_round+0x20>
    9752:	6f 5f       	subi	r22, 0xFF	; 255
    9754:	7f 4f       	sbci	r23, 0xFF	; 255
    9756:	8f 4f       	sbci	r24, 0xFF	; 255
    9758:	9f 4f       	sbci	r25, 0xFF	; 255
    975a:	08 95       	ret

0000975c <__udivmodhi4>:
    975c:	aa 1b       	sub	r26, r26
    975e:	bb 1b       	sub	r27, r27
    9760:	51 e1       	ldi	r21, 0x11	; 17
    9762:	07 c0       	rjmp	.+14     	; 0x9772 <__udivmodhi4_ep>

00009764 <__udivmodhi4_loop>:
    9764:	aa 1f       	adc	r26, r26
    9766:	bb 1f       	adc	r27, r27
    9768:	a6 17       	cp	r26, r22
    976a:	b7 07       	cpc	r27, r23
    976c:	10 f0       	brcs	.+4      	; 0x9772 <__udivmodhi4_ep>
    976e:	a6 1b       	sub	r26, r22
    9770:	b7 0b       	sbc	r27, r23

00009772 <__udivmodhi4_ep>:
    9772:	88 1f       	adc	r24, r24
    9774:	99 1f       	adc	r25, r25
    9776:	5a 95       	dec	r21
    9778:	a9 f7       	brne	.-22     	; 0x9764 <__udivmodhi4_loop>
    977a:	80 95       	com	r24
    977c:	90 95       	com	r25
    977e:	bc 01       	movw	r22, r24
    9780:	cd 01       	movw	r24, r26
    9782:	08 95       	ret

00009784 <__udivmodsi4>:
    9784:	a1 e2       	ldi	r26, 0x21	; 33
    9786:	1a 2e       	mov	r1, r26
    9788:	aa 1b       	sub	r26, r26
    978a:	bb 1b       	sub	r27, r27
    978c:	fd 01       	movw	r30, r26
    978e:	0d c0       	rjmp	.+26     	; 0x97aa <__udivmodsi4_ep>

00009790 <__udivmodsi4_loop>:
    9790:	aa 1f       	adc	r26, r26
    9792:	bb 1f       	adc	r27, r27
    9794:	ee 1f       	adc	r30, r30
    9796:	ff 1f       	adc	r31, r31
    9798:	a2 17       	cp	r26, r18
    979a:	b3 07       	cpc	r27, r19
    979c:	e4 07       	cpc	r30, r20
    979e:	f5 07       	cpc	r31, r21
    97a0:	20 f0       	brcs	.+8      	; 0x97aa <__udivmodsi4_ep>
    97a2:	a2 1b       	sub	r26, r18
    97a4:	b3 0b       	sbc	r27, r19
    97a6:	e4 0b       	sbc	r30, r20
    97a8:	f5 0b       	sbc	r31, r21

000097aa <__udivmodsi4_ep>:
    97aa:	66 1f       	adc	r22, r22
    97ac:	77 1f       	adc	r23, r23
    97ae:	88 1f       	adc	r24, r24
    97b0:	99 1f       	adc	r25, r25
    97b2:	1a 94       	dec	r1
    97b4:	69 f7       	brne	.-38     	; 0x9790 <__udivmodsi4_loop>
    97b6:	60 95       	com	r22
    97b8:	70 95       	com	r23
    97ba:	80 95       	com	r24
    97bc:	90 95       	com	r25
    97be:	9b 01       	movw	r18, r22
    97c0:	ac 01       	movw	r20, r24
    97c2:	bd 01       	movw	r22, r26
    97c4:	cf 01       	movw	r24, r30
    97c6:	08 95       	ret

000097c8 <__tablejump2__>:
    97c8:	ee 0f       	add	r30, r30
    97ca:	ff 1f       	adc	r31, r31
    97cc:	88 1f       	adc	r24, r24
    97ce:	8b bf       	out	0x3b, r24	; 59
    97d0:	07 90       	elpm	r0, Z+
    97d2:	f6 91       	elpm	r31, Z
    97d4:	e0 2d       	mov	r30, r0
    97d6:	19 94       	eijmp

000097d8 <__umulhisi3>:
    97d8:	a2 9f       	mul	r26, r18
    97da:	b0 01       	movw	r22, r0
    97dc:	b3 9f       	mul	r27, r19
    97de:	c0 01       	movw	r24, r0
    97e0:	a3 9f       	mul	r26, r19
    97e2:	70 0d       	add	r23, r0
    97e4:	81 1d       	adc	r24, r1
    97e6:	11 24       	eor	r1, r1
    97e8:	91 1d       	adc	r25, r1
    97ea:	b2 9f       	mul	r27, r18
    97ec:	70 0d       	add	r23, r0
    97ee:	81 1d       	adc	r24, r1
    97f0:	11 24       	eor	r1, r1
    97f2:	91 1d       	adc	r25, r1
    97f4:	08 95       	ret

000097f6 <__muluhisi3>:
    97f6:	f0 df       	rcall	.-32     	; 0x97d8 <__umulhisi3>
    97f8:	a5 9f       	mul	r26, r21
    97fa:	90 0d       	add	r25, r0
    97fc:	b4 9f       	mul	r27, r20
    97fe:	90 0d       	add	r25, r0
    9800:	a4 9f       	mul	r26, r20
    9802:	80 0d       	add	r24, r0
    9804:	91 1d       	adc	r25, r1
    9806:	11 24       	eor	r1, r1
    9808:	08 95       	ret

0000980a <__ashldi3>:
    980a:	0f 93       	push	r16
    980c:	08 30       	cpi	r16, 0x08	; 8
    980e:	90 f0       	brcs	.+36     	; 0x9834 <__ashldi3+0x2a>
    9810:	98 2f       	mov	r25, r24
    9812:	87 2f       	mov	r24, r23
    9814:	76 2f       	mov	r23, r22
    9816:	65 2f       	mov	r22, r21
    9818:	54 2f       	mov	r21, r20
    981a:	43 2f       	mov	r20, r19
    981c:	32 2f       	mov	r19, r18
    981e:	22 27       	eor	r18, r18
    9820:	08 50       	subi	r16, 0x08	; 8
    9822:	f4 cf       	rjmp	.-24     	; 0x980c <__ashldi3+0x2>
    9824:	22 0f       	add	r18, r18
    9826:	33 1f       	adc	r19, r19
    9828:	44 1f       	adc	r20, r20
    982a:	55 1f       	adc	r21, r21
    982c:	66 1f       	adc	r22, r22
    982e:	77 1f       	adc	r23, r23
    9830:	88 1f       	adc	r24, r24
    9832:	99 1f       	adc	r25, r25
    9834:	0a 95       	dec	r16
    9836:	b2 f7       	brpl	.-20     	; 0x9824 <__ashldi3+0x1a>
    9838:	0f 91       	pop	r16
    983a:	08 95       	ret

0000983c <__ashrdi3>:
    983c:	97 fb       	bst	r25, 7
    983e:	10 f8       	bld	r1, 0

00009840 <__lshrdi3>:
    9840:	16 94       	lsr	r1
    9842:	00 08       	sbc	r0, r0
    9844:	0f 93       	push	r16
    9846:	08 30       	cpi	r16, 0x08	; 8
    9848:	98 f0       	brcs	.+38     	; 0x9870 <__lshrdi3+0x30>
    984a:	08 50       	subi	r16, 0x08	; 8
    984c:	23 2f       	mov	r18, r19
    984e:	34 2f       	mov	r19, r20
    9850:	45 2f       	mov	r20, r21
    9852:	56 2f       	mov	r21, r22
    9854:	67 2f       	mov	r22, r23
    9856:	78 2f       	mov	r23, r24
    9858:	89 2f       	mov	r24, r25
    985a:	90 2d       	mov	r25, r0
    985c:	f4 cf       	rjmp	.-24     	; 0x9846 <__lshrdi3+0x6>
    985e:	05 94       	asr	r0
    9860:	97 95       	ror	r25
    9862:	87 95       	ror	r24
    9864:	77 95       	ror	r23
    9866:	67 95       	ror	r22
    9868:	57 95       	ror	r21
    986a:	47 95       	ror	r20
    986c:	37 95       	ror	r19
    986e:	27 95       	ror	r18
    9870:	0a 95       	dec	r16
    9872:	aa f7       	brpl	.-22     	; 0x985e <__lshrdi3+0x1e>
    9874:	0f 91       	pop	r16
    9876:	08 95       	ret

00009878 <__adddi3>:
    9878:	2a 0d       	add	r18, r10
    987a:	3b 1d       	adc	r19, r11
    987c:	4c 1d       	adc	r20, r12
    987e:	5d 1d       	adc	r21, r13
    9880:	6e 1d       	adc	r22, r14
    9882:	7f 1d       	adc	r23, r15
    9884:	80 1f       	adc	r24, r16
    9886:	91 1f       	adc	r25, r17
    9888:	08 95       	ret

0000988a <__adddi3_s8>:
    988a:	00 24       	eor	r0, r0
    988c:	a7 fd       	sbrc	r26, 7
    988e:	00 94       	com	r0
    9890:	2a 0f       	add	r18, r26
    9892:	30 1d       	adc	r19, r0
    9894:	40 1d       	adc	r20, r0
    9896:	50 1d       	adc	r21, r0
    9898:	60 1d       	adc	r22, r0
    989a:	70 1d       	adc	r23, r0
    989c:	80 1d       	adc	r24, r0
    989e:	90 1d       	adc	r25, r0
    98a0:	08 95       	ret

000098a2 <__subdi3>:
    98a2:	2a 19       	sub	r18, r10
    98a4:	3b 09       	sbc	r19, r11
    98a6:	4c 09       	sbc	r20, r12
    98a8:	5d 09       	sbc	r21, r13
    98aa:	6e 09       	sbc	r22, r14
    98ac:	7f 09       	sbc	r23, r15
    98ae:	80 0b       	sbc	r24, r16
    98b0:	91 0b       	sbc	r25, r17
    98b2:	08 95       	ret

000098b4 <__cmpdi2>:
    98b4:	2a 15       	cp	r18, r10
    98b6:	3b 05       	cpc	r19, r11
    98b8:	4c 05       	cpc	r20, r12
    98ba:	5d 05       	cpc	r21, r13
    98bc:	6e 05       	cpc	r22, r14
    98be:	7f 05       	cpc	r23, r15
    98c0:	80 07       	cpc	r24, r16
    98c2:	91 07       	cpc	r25, r17
    98c4:	08 95       	ret

000098c6 <__cmpdi2_s8>:
    98c6:	00 24       	eor	r0, r0
    98c8:	a7 fd       	sbrc	r26, 7
    98ca:	00 94       	com	r0
    98cc:	2a 17       	cp	r18, r26
    98ce:	30 05       	cpc	r19, r0
    98d0:	40 05       	cpc	r20, r0
    98d2:	50 05       	cpc	r21, r0
    98d4:	60 05       	cpc	r22, r0
    98d6:	70 05       	cpc	r23, r0
    98d8:	80 05       	cpc	r24, r0
    98da:	90 05       	cpc	r25, r0
    98dc:	08 95       	ret

000098de <sprintf>:
    98de:	0f 93       	push	r16
    98e0:	1f 93       	push	r17
    98e2:	cf 93       	push	r28
    98e4:	df 93       	push	r29
    98e6:	cd b7       	in	r28, 0x3d	; 61
    98e8:	de b7       	in	r29, 0x3e	; 62
    98ea:	2e 97       	sbiw	r28, 0x0e	; 14
    98ec:	0f b6       	in	r0, 0x3f	; 63
    98ee:	f8 94       	cli
    98f0:	de bf       	out	0x3e, r29	; 62
    98f2:	0f be       	out	0x3f, r0	; 63
    98f4:	cd bf       	out	0x3d, r28	; 61
    98f6:	0e 89       	ldd	r16, Y+22	; 0x16
    98f8:	1f 89       	ldd	r17, Y+23	; 0x17
    98fa:	86 e0       	ldi	r24, 0x06	; 6
    98fc:	8c 83       	std	Y+4, r24	; 0x04
    98fe:	1a 83       	std	Y+2, r17	; 0x02
    9900:	09 83       	std	Y+1, r16	; 0x01
    9902:	8f ef       	ldi	r24, 0xFF	; 255
    9904:	9f e7       	ldi	r25, 0x7F	; 127
    9906:	9e 83       	std	Y+6, r25	; 0x06
    9908:	8d 83       	std	Y+5, r24	; 0x05
    990a:	ae 01       	movw	r20, r28
    990c:	46 5e       	subi	r20, 0xE6	; 230
    990e:	5f 4f       	sbci	r21, 0xFF	; 255
    9910:	68 8d       	ldd	r22, Y+24	; 0x18
    9912:	79 8d       	ldd	r23, Y+25	; 0x19
    9914:	ce 01       	movw	r24, r28
    9916:	01 96       	adiw	r24, 0x01	; 1
    9918:	10 d0       	rcall	.+32     	; 0x993a <vfprintf>
    991a:	ef 81       	ldd	r30, Y+7	; 0x07
    991c:	f8 85       	ldd	r31, Y+8	; 0x08
    991e:	e0 0f       	add	r30, r16
    9920:	f1 1f       	adc	r31, r17
    9922:	10 82       	st	Z, r1
    9924:	2e 96       	adiw	r28, 0x0e	; 14
    9926:	0f b6       	in	r0, 0x3f	; 63
    9928:	f8 94       	cli
    992a:	de bf       	out	0x3e, r29	; 62
    992c:	0f be       	out	0x3f, r0	; 63
    992e:	cd bf       	out	0x3d, r28	; 61
    9930:	df 91       	pop	r29
    9932:	cf 91       	pop	r28
    9934:	1f 91       	pop	r17
    9936:	0f 91       	pop	r16
    9938:	08 95       	ret

0000993a <vfprintf>:
    993a:	2f 92       	push	r2
    993c:	3f 92       	push	r3
    993e:	4f 92       	push	r4
    9940:	5f 92       	push	r5
    9942:	6f 92       	push	r6
    9944:	7f 92       	push	r7
    9946:	8f 92       	push	r8
    9948:	9f 92       	push	r9
    994a:	af 92       	push	r10
    994c:	bf 92       	push	r11
    994e:	cf 92       	push	r12
    9950:	df 92       	push	r13
    9952:	ef 92       	push	r14
    9954:	ff 92       	push	r15
    9956:	0f 93       	push	r16
    9958:	1f 93       	push	r17
    995a:	cf 93       	push	r28
    995c:	df 93       	push	r29
    995e:	cd b7       	in	r28, 0x3d	; 61
    9960:	de b7       	in	r29, 0x3e	; 62
    9962:	2b 97       	sbiw	r28, 0x0b	; 11
    9964:	0f b6       	in	r0, 0x3f	; 63
    9966:	f8 94       	cli
    9968:	de bf       	out	0x3e, r29	; 62
    996a:	0f be       	out	0x3f, r0	; 63
    996c:	cd bf       	out	0x3d, r28	; 61
    996e:	6c 01       	movw	r12, r24
    9970:	7b 01       	movw	r14, r22
    9972:	8a 01       	movw	r16, r20
    9974:	fc 01       	movw	r30, r24
    9976:	17 82       	std	Z+7, r1	; 0x07
    9978:	16 82       	std	Z+6, r1	; 0x06
    997a:	83 81       	ldd	r24, Z+3	; 0x03
    997c:	81 ff       	sbrs	r24, 1
    997e:	bf c1       	rjmp	.+894    	; 0x9cfe <vfprintf+0x3c4>
    9980:	ce 01       	movw	r24, r28
    9982:	01 96       	adiw	r24, 0x01	; 1
    9984:	3c 01       	movw	r6, r24
    9986:	f6 01       	movw	r30, r12
    9988:	93 81       	ldd	r25, Z+3	; 0x03
    998a:	f7 01       	movw	r30, r14
    998c:	93 fd       	sbrc	r25, 3
    998e:	85 91       	lpm	r24, Z+
    9990:	93 ff       	sbrs	r25, 3
    9992:	81 91       	ld	r24, Z+
    9994:	7f 01       	movw	r14, r30
    9996:	88 23       	and	r24, r24
    9998:	09 f4       	brne	.+2      	; 0x999c <vfprintf+0x62>
    999a:	ad c1       	rjmp	.+858    	; 0x9cf6 <vfprintf+0x3bc>
    999c:	85 32       	cpi	r24, 0x25	; 37
    999e:	39 f4       	brne	.+14     	; 0x99ae <vfprintf+0x74>
    99a0:	93 fd       	sbrc	r25, 3
    99a2:	85 91       	lpm	r24, Z+
    99a4:	93 ff       	sbrs	r25, 3
    99a6:	81 91       	ld	r24, Z+
    99a8:	7f 01       	movw	r14, r30
    99aa:	85 32       	cpi	r24, 0x25	; 37
    99ac:	21 f4       	brne	.+8      	; 0x99b6 <vfprintf+0x7c>
    99ae:	b6 01       	movw	r22, r12
    99b0:	90 e0       	ldi	r25, 0x00	; 0
    99b2:	d6 d1       	rcall	.+940    	; 0x9d60 <fputc>
    99b4:	e8 cf       	rjmp	.-48     	; 0x9986 <vfprintf+0x4c>
    99b6:	91 2c       	mov	r9, r1
    99b8:	21 2c       	mov	r2, r1
    99ba:	31 2c       	mov	r3, r1
    99bc:	ff e1       	ldi	r31, 0x1F	; 31
    99be:	f3 15       	cp	r31, r3
    99c0:	d8 f0       	brcs	.+54     	; 0x99f8 <vfprintf+0xbe>
    99c2:	8b 32       	cpi	r24, 0x2B	; 43
    99c4:	79 f0       	breq	.+30     	; 0x99e4 <vfprintf+0xaa>
    99c6:	38 f4       	brcc	.+14     	; 0x99d6 <vfprintf+0x9c>
    99c8:	80 32       	cpi	r24, 0x20	; 32
    99ca:	79 f0       	breq	.+30     	; 0x99ea <vfprintf+0xb0>
    99cc:	83 32       	cpi	r24, 0x23	; 35
    99ce:	a1 f4       	brne	.+40     	; 0x99f8 <vfprintf+0xbe>
    99d0:	23 2d       	mov	r18, r3
    99d2:	20 61       	ori	r18, 0x10	; 16
    99d4:	1d c0       	rjmp	.+58     	; 0x9a10 <vfprintf+0xd6>
    99d6:	8d 32       	cpi	r24, 0x2D	; 45
    99d8:	61 f0       	breq	.+24     	; 0x99f2 <vfprintf+0xb8>
    99da:	80 33       	cpi	r24, 0x30	; 48
    99dc:	69 f4       	brne	.+26     	; 0x99f8 <vfprintf+0xbe>
    99de:	23 2d       	mov	r18, r3
    99e0:	21 60       	ori	r18, 0x01	; 1
    99e2:	16 c0       	rjmp	.+44     	; 0x9a10 <vfprintf+0xd6>
    99e4:	83 2d       	mov	r24, r3
    99e6:	82 60       	ori	r24, 0x02	; 2
    99e8:	38 2e       	mov	r3, r24
    99ea:	e3 2d       	mov	r30, r3
    99ec:	e4 60       	ori	r30, 0x04	; 4
    99ee:	3e 2e       	mov	r3, r30
    99f0:	2a c0       	rjmp	.+84     	; 0x9a46 <vfprintf+0x10c>
    99f2:	f3 2d       	mov	r31, r3
    99f4:	f8 60       	ori	r31, 0x08	; 8
    99f6:	1d c0       	rjmp	.+58     	; 0x9a32 <vfprintf+0xf8>
    99f8:	37 fc       	sbrc	r3, 7
    99fa:	2d c0       	rjmp	.+90     	; 0x9a56 <vfprintf+0x11c>
    99fc:	20 ed       	ldi	r18, 0xD0	; 208
    99fe:	28 0f       	add	r18, r24
    9a00:	2a 30       	cpi	r18, 0x0A	; 10
    9a02:	40 f0       	brcs	.+16     	; 0x9a14 <vfprintf+0xda>
    9a04:	8e 32       	cpi	r24, 0x2E	; 46
    9a06:	b9 f4       	brne	.+46     	; 0x9a36 <vfprintf+0xfc>
    9a08:	36 fc       	sbrc	r3, 6
    9a0a:	75 c1       	rjmp	.+746    	; 0x9cf6 <vfprintf+0x3bc>
    9a0c:	23 2d       	mov	r18, r3
    9a0e:	20 64       	ori	r18, 0x40	; 64
    9a10:	32 2e       	mov	r3, r18
    9a12:	19 c0       	rjmp	.+50     	; 0x9a46 <vfprintf+0x10c>
    9a14:	36 fe       	sbrs	r3, 6
    9a16:	06 c0       	rjmp	.+12     	; 0x9a24 <vfprintf+0xea>
    9a18:	8a e0       	ldi	r24, 0x0A	; 10
    9a1a:	98 9e       	mul	r9, r24
    9a1c:	20 0d       	add	r18, r0
    9a1e:	11 24       	eor	r1, r1
    9a20:	92 2e       	mov	r9, r18
    9a22:	11 c0       	rjmp	.+34     	; 0x9a46 <vfprintf+0x10c>
    9a24:	ea e0       	ldi	r30, 0x0A	; 10
    9a26:	2e 9e       	mul	r2, r30
    9a28:	20 0d       	add	r18, r0
    9a2a:	11 24       	eor	r1, r1
    9a2c:	22 2e       	mov	r2, r18
    9a2e:	f3 2d       	mov	r31, r3
    9a30:	f0 62       	ori	r31, 0x20	; 32
    9a32:	3f 2e       	mov	r3, r31
    9a34:	08 c0       	rjmp	.+16     	; 0x9a46 <vfprintf+0x10c>
    9a36:	8c 36       	cpi	r24, 0x6C	; 108
    9a38:	21 f4       	brne	.+8      	; 0x9a42 <vfprintf+0x108>
    9a3a:	83 2d       	mov	r24, r3
    9a3c:	80 68       	ori	r24, 0x80	; 128
    9a3e:	38 2e       	mov	r3, r24
    9a40:	02 c0       	rjmp	.+4      	; 0x9a46 <vfprintf+0x10c>
    9a42:	88 36       	cpi	r24, 0x68	; 104
    9a44:	41 f4       	brne	.+16     	; 0x9a56 <vfprintf+0x11c>
    9a46:	f7 01       	movw	r30, r14
    9a48:	93 fd       	sbrc	r25, 3
    9a4a:	85 91       	lpm	r24, Z+
    9a4c:	93 ff       	sbrs	r25, 3
    9a4e:	81 91       	ld	r24, Z+
    9a50:	7f 01       	movw	r14, r30
    9a52:	81 11       	cpse	r24, r1
    9a54:	b3 cf       	rjmp	.-154    	; 0x99bc <vfprintf+0x82>
    9a56:	98 2f       	mov	r25, r24
    9a58:	9f 7d       	andi	r25, 0xDF	; 223
    9a5a:	95 54       	subi	r25, 0x45	; 69
    9a5c:	93 30       	cpi	r25, 0x03	; 3
    9a5e:	28 f4       	brcc	.+10     	; 0x9a6a <vfprintf+0x130>
    9a60:	0c 5f       	subi	r16, 0xFC	; 252
    9a62:	1f 4f       	sbci	r17, 0xFF	; 255
    9a64:	9f e3       	ldi	r25, 0x3F	; 63
    9a66:	99 83       	std	Y+1, r25	; 0x01
    9a68:	0d c0       	rjmp	.+26     	; 0x9a84 <vfprintf+0x14a>
    9a6a:	83 36       	cpi	r24, 0x63	; 99
    9a6c:	31 f0       	breq	.+12     	; 0x9a7a <vfprintf+0x140>
    9a6e:	83 37       	cpi	r24, 0x73	; 115
    9a70:	71 f0       	breq	.+28     	; 0x9a8e <vfprintf+0x154>
    9a72:	83 35       	cpi	r24, 0x53	; 83
    9a74:	09 f0       	breq	.+2      	; 0x9a78 <vfprintf+0x13e>
    9a76:	55 c0       	rjmp	.+170    	; 0x9b22 <vfprintf+0x1e8>
    9a78:	20 c0       	rjmp	.+64     	; 0x9aba <vfprintf+0x180>
    9a7a:	f8 01       	movw	r30, r16
    9a7c:	80 81       	ld	r24, Z
    9a7e:	89 83       	std	Y+1, r24	; 0x01
    9a80:	0e 5f       	subi	r16, 0xFE	; 254
    9a82:	1f 4f       	sbci	r17, 0xFF	; 255
    9a84:	88 24       	eor	r8, r8
    9a86:	83 94       	inc	r8
    9a88:	91 2c       	mov	r9, r1
    9a8a:	53 01       	movw	r10, r6
    9a8c:	12 c0       	rjmp	.+36     	; 0x9ab2 <vfprintf+0x178>
    9a8e:	28 01       	movw	r4, r16
    9a90:	f2 e0       	ldi	r31, 0x02	; 2
    9a92:	4f 0e       	add	r4, r31
    9a94:	51 1c       	adc	r5, r1
    9a96:	f8 01       	movw	r30, r16
    9a98:	a0 80       	ld	r10, Z
    9a9a:	b1 80       	ldd	r11, Z+1	; 0x01
    9a9c:	36 fe       	sbrs	r3, 6
    9a9e:	03 c0       	rjmp	.+6      	; 0x9aa6 <vfprintf+0x16c>
    9aa0:	69 2d       	mov	r22, r9
    9aa2:	70 e0       	ldi	r23, 0x00	; 0
    9aa4:	02 c0       	rjmp	.+4      	; 0x9aaa <vfprintf+0x170>
    9aa6:	6f ef       	ldi	r22, 0xFF	; 255
    9aa8:	7f ef       	ldi	r23, 0xFF	; 255
    9aaa:	c5 01       	movw	r24, r10
    9aac:	4e d1       	rcall	.+668    	; 0x9d4a <strnlen>
    9aae:	4c 01       	movw	r8, r24
    9ab0:	82 01       	movw	r16, r4
    9ab2:	f3 2d       	mov	r31, r3
    9ab4:	ff 77       	andi	r31, 0x7F	; 127
    9ab6:	3f 2e       	mov	r3, r31
    9ab8:	15 c0       	rjmp	.+42     	; 0x9ae4 <vfprintf+0x1aa>
    9aba:	28 01       	movw	r4, r16
    9abc:	22 e0       	ldi	r18, 0x02	; 2
    9abe:	42 0e       	add	r4, r18
    9ac0:	51 1c       	adc	r5, r1
    9ac2:	f8 01       	movw	r30, r16
    9ac4:	a0 80       	ld	r10, Z
    9ac6:	b1 80       	ldd	r11, Z+1	; 0x01
    9ac8:	36 fe       	sbrs	r3, 6
    9aca:	03 c0       	rjmp	.+6      	; 0x9ad2 <vfprintf+0x198>
    9acc:	69 2d       	mov	r22, r9
    9ace:	70 e0       	ldi	r23, 0x00	; 0
    9ad0:	02 c0       	rjmp	.+4      	; 0x9ad6 <vfprintf+0x19c>
    9ad2:	6f ef       	ldi	r22, 0xFF	; 255
    9ad4:	7f ef       	ldi	r23, 0xFF	; 255
    9ad6:	c5 01       	movw	r24, r10
    9ad8:	2d d1       	rcall	.+602    	; 0x9d34 <strnlen_P>
    9ada:	4c 01       	movw	r8, r24
    9adc:	f3 2d       	mov	r31, r3
    9ade:	f0 68       	ori	r31, 0x80	; 128
    9ae0:	3f 2e       	mov	r3, r31
    9ae2:	82 01       	movw	r16, r4
    9ae4:	33 fc       	sbrc	r3, 3
    9ae6:	19 c0       	rjmp	.+50     	; 0x9b1a <vfprintf+0x1e0>
    9ae8:	82 2d       	mov	r24, r2
    9aea:	90 e0       	ldi	r25, 0x00	; 0
    9aec:	88 16       	cp	r8, r24
    9aee:	99 06       	cpc	r9, r25
    9af0:	a0 f4       	brcc	.+40     	; 0x9b1a <vfprintf+0x1e0>
    9af2:	b6 01       	movw	r22, r12
    9af4:	80 e2       	ldi	r24, 0x20	; 32
    9af6:	90 e0       	ldi	r25, 0x00	; 0
    9af8:	33 d1       	rcall	.+614    	; 0x9d60 <fputc>
    9afa:	2a 94       	dec	r2
    9afc:	f5 cf       	rjmp	.-22     	; 0x9ae8 <vfprintf+0x1ae>
    9afe:	f5 01       	movw	r30, r10
    9b00:	37 fc       	sbrc	r3, 7
    9b02:	85 91       	lpm	r24, Z+
    9b04:	37 fe       	sbrs	r3, 7
    9b06:	81 91       	ld	r24, Z+
    9b08:	5f 01       	movw	r10, r30
    9b0a:	b6 01       	movw	r22, r12
    9b0c:	90 e0       	ldi	r25, 0x00	; 0
    9b0e:	28 d1       	rcall	.+592    	; 0x9d60 <fputc>
    9b10:	21 10       	cpse	r2, r1
    9b12:	2a 94       	dec	r2
    9b14:	21 e0       	ldi	r18, 0x01	; 1
    9b16:	82 1a       	sub	r8, r18
    9b18:	91 08       	sbc	r9, r1
    9b1a:	81 14       	cp	r8, r1
    9b1c:	91 04       	cpc	r9, r1
    9b1e:	79 f7       	brne	.-34     	; 0x9afe <vfprintf+0x1c4>
    9b20:	e1 c0       	rjmp	.+450    	; 0x9ce4 <vfprintf+0x3aa>
    9b22:	84 36       	cpi	r24, 0x64	; 100
    9b24:	11 f0       	breq	.+4      	; 0x9b2a <vfprintf+0x1f0>
    9b26:	89 36       	cpi	r24, 0x69	; 105
    9b28:	39 f5       	brne	.+78     	; 0x9b78 <vfprintf+0x23e>
    9b2a:	f8 01       	movw	r30, r16
    9b2c:	37 fe       	sbrs	r3, 7
    9b2e:	07 c0       	rjmp	.+14     	; 0x9b3e <vfprintf+0x204>
    9b30:	60 81       	ld	r22, Z
    9b32:	71 81       	ldd	r23, Z+1	; 0x01
    9b34:	82 81       	ldd	r24, Z+2	; 0x02
    9b36:	93 81       	ldd	r25, Z+3	; 0x03
    9b38:	0c 5f       	subi	r16, 0xFC	; 252
    9b3a:	1f 4f       	sbci	r17, 0xFF	; 255
    9b3c:	08 c0       	rjmp	.+16     	; 0x9b4e <vfprintf+0x214>
    9b3e:	60 81       	ld	r22, Z
    9b40:	71 81       	ldd	r23, Z+1	; 0x01
    9b42:	07 2e       	mov	r0, r23
    9b44:	00 0c       	add	r0, r0
    9b46:	88 0b       	sbc	r24, r24
    9b48:	99 0b       	sbc	r25, r25
    9b4a:	0e 5f       	subi	r16, 0xFE	; 254
    9b4c:	1f 4f       	sbci	r17, 0xFF	; 255
    9b4e:	f3 2d       	mov	r31, r3
    9b50:	ff 76       	andi	r31, 0x6F	; 111
    9b52:	3f 2e       	mov	r3, r31
    9b54:	97 ff       	sbrs	r25, 7
    9b56:	09 c0       	rjmp	.+18     	; 0x9b6a <vfprintf+0x230>
    9b58:	90 95       	com	r25
    9b5a:	80 95       	com	r24
    9b5c:	70 95       	com	r23
    9b5e:	61 95       	neg	r22
    9b60:	7f 4f       	sbci	r23, 0xFF	; 255
    9b62:	8f 4f       	sbci	r24, 0xFF	; 255
    9b64:	9f 4f       	sbci	r25, 0xFF	; 255
    9b66:	f0 68       	ori	r31, 0x80	; 128
    9b68:	3f 2e       	mov	r3, r31
    9b6a:	2a e0       	ldi	r18, 0x0A	; 10
    9b6c:	30 e0       	ldi	r19, 0x00	; 0
    9b6e:	a3 01       	movw	r20, r6
    9b70:	33 d1       	rcall	.+614    	; 0x9dd8 <__ultoa_invert>
    9b72:	88 2e       	mov	r8, r24
    9b74:	86 18       	sub	r8, r6
    9b76:	44 c0       	rjmp	.+136    	; 0x9c00 <vfprintf+0x2c6>
    9b78:	85 37       	cpi	r24, 0x75	; 117
    9b7a:	31 f4       	brne	.+12     	; 0x9b88 <vfprintf+0x24e>
    9b7c:	23 2d       	mov	r18, r3
    9b7e:	2f 7e       	andi	r18, 0xEF	; 239
    9b80:	b2 2e       	mov	r11, r18
    9b82:	2a e0       	ldi	r18, 0x0A	; 10
    9b84:	30 e0       	ldi	r19, 0x00	; 0
    9b86:	25 c0       	rjmp	.+74     	; 0x9bd2 <vfprintf+0x298>
    9b88:	93 2d       	mov	r25, r3
    9b8a:	99 7f       	andi	r25, 0xF9	; 249
    9b8c:	b9 2e       	mov	r11, r25
    9b8e:	8f 36       	cpi	r24, 0x6F	; 111
    9b90:	c1 f0       	breq	.+48     	; 0x9bc2 <vfprintf+0x288>
    9b92:	18 f4       	brcc	.+6      	; 0x9b9a <vfprintf+0x260>
    9b94:	88 35       	cpi	r24, 0x58	; 88
    9b96:	79 f0       	breq	.+30     	; 0x9bb6 <vfprintf+0x27c>
    9b98:	ae c0       	rjmp	.+348    	; 0x9cf6 <vfprintf+0x3bc>
    9b9a:	80 37       	cpi	r24, 0x70	; 112
    9b9c:	19 f0       	breq	.+6      	; 0x9ba4 <vfprintf+0x26a>
    9b9e:	88 37       	cpi	r24, 0x78	; 120
    9ba0:	21 f0       	breq	.+8      	; 0x9baa <vfprintf+0x270>
    9ba2:	a9 c0       	rjmp	.+338    	; 0x9cf6 <vfprintf+0x3bc>
    9ba4:	e9 2f       	mov	r30, r25
    9ba6:	e0 61       	ori	r30, 0x10	; 16
    9ba8:	be 2e       	mov	r11, r30
    9baa:	b4 fe       	sbrs	r11, 4
    9bac:	0d c0       	rjmp	.+26     	; 0x9bc8 <vfprintf+0x28e>
    9bae:	fb 2d       	mov	r31, r11
    9bb0:	f4 60       	ori	r31, 0x04	; 4
    9bb2:	bf 2e       	mov	r11, r31
    9bb4:	09 c0       	rjmp	.+18     	; 0x9bc8 <vfprintf+0x28e>
    9bb6:	34 fe       	sbrs	r3, 4
    9bb8:	0a c0       	rjmp	.+20     	; 0x9bce <vfprintf+0x294>
    9bba:	29 2f       	mov	r18, r25
    9bbc:	26 60       	ori	r18, 0x06	; 6
    9bbe:	b2 2e       	mov	r11, r18
    9bc0:	06 c0       	rjmp	.+12     	; 0x9bce <vfprintf+0x294>
    9bc2:	28 e0       	ldi	r18, 0x08	; 8
    9bc4:	30 e0       	ldi	r19, 0x00	; 0
    9bc6:	05 c0       	rjmp	.+10     	; 0x9bd2 <vfprintf+0x298>
    9bc8:	20 e1       	ldi	r18, 0x10	; 16
    9bca:	30 e0       	ldi	r19, 0x00	; 0
    9bcc:	02 c0       	rjmp	.+4      	; 0x9bd2 <vfprintf+0x298>
    9bce:	20 e1       	ldi	r18, 0x10	; 16
    9bd0:	32 e0       	ldi	r19, 0x02	; 2
    9bd2:	f8 01       	movw	r30, r16
    9bd4:	b7 fe       	sbrs	r11, 7
    9bd6:	07 c0       	rjmp	.+14     	; 0x9be6 <vfprintf+0x2ac>
    9bd8:	60 81       	ld	r22, Z
    9bda:	71 81       	ldd	r23, Z+1	; 0x01
    9bdc:	82 81       	ldd	r24, Z+2	; 0x02
    9bde:	93 81       	ldd	r25, Z+3	; 0x03
    9be0:	0c 5f       	subi	r16, 0xFC	; 252
    9be2:	1f 4f       	sbci	r17, 0xFF	; 255
    9be4:	06 c0       	rjmp	.+12     	; 0x9bf2 <vfprintf+0x2b8>
    9be6:	60 81       	ld	r22, Z
    9be8:	71 81       	ldd	r23, Z+1	; 0x01
    9bea:	80 e0       	ldi	r24, 0x00	; 0
    9bec:	90 e0       	ldi	r25, 0x00	; 0
    9bee:	0e 5f       	subi	r16, 0xFE	; 254
    9bf0:	1f 4f       	sbci	r17, 0xFF	; 255
    9bf2:	a3 01       	movw	r20, r6
    9bf4:	f1 d0       	rcall	.+482    	; 0x9dd8 <__ultoa_invert>
    9bf6:	88 2e       	mov	r8, r24
    9bf8:	86 18       	sub	r8, r6
    9bfa:	fb 2d       	mov	r31, r11
    9bfc:	ff 77       	andi	r31, 0x7F	; 127
    9bfe:	3f 2e       	mov	r3, r31
    9c00:	36 fe       	sbrs	r3, 6
    9c02:	0d c0       	rjmp	.+26     	; 0x9c1e <vfprintf+0x2e4>
    9c04:	23 2d       	mov	r18, r3
    9c06:	2e 7f       	andi	r18, 0xFE	; 254
    9c08:	a2 2e       	mov	r10, r18
    9c0a:	89 14       	cp	r8, r9
    9c0c:	58 f4       	brcc	.+22     	; 0x9c24 <vfprintf+0x2ea>
    9c0e:	34 fe       	sbrs	r3, 4
    9c10:	0b c0       	rjmp	.+22     	; 0x9c28 <vfprintf+0x2ee>
    9c12:	32 fc       	sbrc	r3, 2
    9c14:	09 c0       	rjmp	.+18     	; 0x9c28 <vfprintf+0x2ee>
    9c16:	83 2d       	mov	r24, r3
    9c18:	8e 7e       	andi	r24, 0xEE	; 238
    9c1a:	a8 2e       	mov	r10, r24
    9c1c:	05 c0       	rjmp	.+10     	; 0x9c28 <vfprintf+0x2ee>
    9c1e:	b8 2c       	mov	r11, r8
    9c20:	a3 2c       	mov	r10, r3
    9c22:	03 c0       	rjmp	.+6      	; 0x9c2a <vfprintf+0x2f0>
    9c24:	b8 2c       	mov	r11, r8
    9c26:	01 c0       	rjmp	.+2      	; 0x9c2a <vfprintf+0x2f0>
    9c28:	b9 2c       	mov	r11, r9
    9c2a:	a4 fe       	sbrs	r10, 4
    9c2c:	0f c0       	rjmp	.+30     	; 0x9c4c <vfprintf+0x312>
    9c2e:	fe 01       	movw	r30, r28
    9c30:	e8 0d       	add	r30, r8
    9c32:	f1 1d       	adc	r31, r1
    9c34:	80 81       	ld	r24, Z
    9c36:	80 33       	cpi	r24, 0x30	; 48
    9c38:	21 f4       	brne	.+8      	; 0x9c42 <vfprintf+0x308>
    9c3a:	9a 2d       	mov	r25, r10
    9c3c:	99 7e       	andi	r25, 0xE9	; 233
    9c3e:	a9 2e       	mov	r10, r25
    9c40:	09 c0       	rjmp	.+18     	; 0x9c54 <vfprintf+0x31a>
    9c42:	a2 fe       	sbrs	r10, 2
    9c44:	06 c0       	rjmp	.+12     	; 0x9c52 <vfprintf+0x318>
    9c46:	b3 94       	inc	r11
    9c48:	b3 94       	inc	r11
    9c4a:	04 c0       	rjmp	.+8      	; 0x9c54 <vfprintf+0x31a>
    9c4c:	8a 2d       	mov	r24, r10
    9c4e:	86 78       	andi	r24, 0x86	; 134
    9c50:	09 f0       	breq	.+2      	; 0x9c54 <vfprintf+0x31a>
    9c52:	b3 94       	inc	r11
    9c54:	a3 fc       	sbrc	r10, 3
    9c56:	10 c0       	rjmp	.+32     	; 0x9c78 <vfprintf+0x33e>
    9c58:	a0 fe       	sbrs	r10, 0
    9c5a:	06 c0       	rjmp	.+12     	; 0x9c68 <vfprintf+0x32e>
    9c5c:	b2 14       	cp	r11, r2
    9c5e:	80 f4       	brcc	.+32     	; 0x9c80 <vfprintf+0x346>
    9c60:	28 0c       	add	r2, r8
    9c62:	92 2c       	mov	r9, r2
    9c64:	9b 18       	sub	r9, r11
    9c66:	0d c0       	rjmp	.+26     	; 0x9c82 <vfprintf+0x348>
    9c68:	b2 14       	cp	r11, r2
    9c6a:	58 f4       	brcc	.+22     	; 0x9c82 <vfprintf+0x348>
    9c6c:	b6 01       	movw	r22, r12
    9c6e:	80 e2       	ldi	r24, 0x20	; 32
    9c70:	90 e0       	ldi	r25, 0x00	; 0
    9c72:	76 d0       	rcall	.+236    	; 0x9d60 <fputc>
    9c74:	b3 94       	inc	r11
    9c76:	f8 cf       	rjmp	.-16     	; 0x9c68 <vfprintf+0x32e>
    9c78:	b2 14       	cp	r11, r2
    9c7a:	18 f4       	brcc	.+6      	; 0x9c82 <vfprintf+0x348>
    9c7c:	2b 18       	sub	r2, r11
    9c7e:	02 c0       	rjmp	.+4      	; 0x9c84 <vfprintf+0x34a>
    9c80:	98 2c       	mov	r9, r8
    9c82:	21 2c       	mov	r2, r1
    9c84:	a4 fe       	sbrs	r10, 4
    9c86:	0f c0       	rjmp	.+30     	; 0x9ca6 <vfprintf+0x36c>
    9c88:	b6 01       	movw	r22, r12
    9c8a:	80 e3       	ldi	r24, 0x30	; 48
    9c8c:	90 e0       	ldi	r25, 0x00	; 0
    9c8e:	68 d0       	rcall	.+208    	; 0x9d60 <fputc>
    9c90:	a2 fe       	sbrs	r10, 2
    9c92:	16 c0       	rjmp	.+44     	; 0x9cc0 <vfprintf+0x386>
    9c94:	a1 fc       	sbrc	r10, 1
    9c96:	03 c0       	rjmp	.+6      	; 0x9c9e <vfprintf+0x364>
    9c98:	88 e7       	ldi	r24, 0x78	; 120
    9c9a:	90 e0       	ldi	r25, 0x00	; 0
    9c9c:	02 c0       	rjmp	.+4      	; 0x9ca2 <vfprintf+0x368>
    9c9e:	88 e5       	ldi	r24, 0x58	; 88
    9ca0:	90 e0       	ldi	r25, 0x00	; 0
    9ca2:	b6 01       	movw	r22, r12
    9ca4:	0c c0       	rjmp	.+24     	; 0x9cbe <vfprintf+0x384>
    9ca6:	8a 2d       	mov	r24, r10
    9ca8:	86 78       	andi	r24, 0x86	; 134
    9caa:	51 f0       	breq	.+20     	; 0x9cc0 <vfprintf+0x386>
    9cac:	a1 fe       	sbrs	r10, 1
    9cae:	02 c0       	rjmp	.+4      	; 0x9cb4 <vfprintf+0x37a>
    9cb0:	8b e2       	ldi	r24, 0x2B	; 43
    9cb2:	01 c0       	rjmp	.+2      	; 0x9cb6 <vfprintf+0x37c>
    9cb4:	80 e2       	ldi	r24, 0x20	; 32
    9cb6:	a7 fc       	sbrc	r10, 7
    9cb8:	8d e2       	ldi	r24, 0x2D	; 45
    9cba:	b6 01       	movw	r22, r12
    9cbc:	90 e0       	ldi	r25, 0x00	; 0
    9cbe:	50 d0       	rcall	.+160    	; 0x9d60 <fputc>
    9cc0:	89 14       	cp	r8, r9
    9cc2:	30 f4       	brcc	.+12     	; 0x9cd0 <vfprintf+0x396>
    9cc4:	b6 01       	movw	r22, r12
    9cc6:	80 e3       	ldi	r24, 0x30	; 48
    9cc8:	90 e0       	ldi	r25, 0x00	; 0
    9cca:	4a d0       	rcall	.+148    	; 0x9d60 <fputc>
    9ccc:	9a 94       	dec	r9
    9cce:	f8 cf       	rjmp	.-16     	; 0x9cc0 <vfprintf+0x386>
    9cd0:	8a 94       	dec	r8
    9cd2:	f3 01       	movw	r30, r6
    9cd4:	e8 0d       	add	r30, r8
    9cd6:	f1 1d       	adc	r31, r1
    9cd8:	80 81       	ld	r24, Z
    9cda:	b6 01       	movw	r22, r12
    9cdc:	90 e0       	ldi	r25, 0x00	; 0
    9cde:	40 d0       	rcall	.+128    	; 0x9d60 <fputc>
    9ce0:	81 10       	cpse	r8, r1
    9ce2:	f6 cf       	rjmp	.-20     	; 0x9cd0 <vfprintf+0x396>
    9ce4:	22 20       	and	r2, r2
    9ce6:	09 f4       	brne	.+2      	; 0x9cea <vfprintf+0x3b0>
    9ce8:	4e ce       	rjmp	.-868    	; 0x9986 <vfprintf+0x4c>
    9cea:	b6 01       	movw	r22, r12
    9cec:	80 e2       	ldi	r24, 0x20	; 32
    9cee:	90 e0       	ldi	r25, 0x00	; 0
    9cf0:	37 d0       	rcall	.+110    	; 0x9d60 <fputc>
    9cf2:	2a 94       	dec	r2
    9cf4:	f7 cf       	rjmp	.-18     	; 0x9ce4 <vfprintf+0x3aa>
    9cf6:	f6 01       	movw	r30, r12
    9cf8:	86 81       	ldd	r24, Z+6	; 0x06
    9cfa:	97 81       	ldd	r25, Z+7	; 0x07
    9cfc:	02 c0       	rjmp	.+4      	; 0x9d02 <vfprintf+0x3c8>
    9cfe:	8f ef       	ldi	r24, 0xFF	; 255
    9d00:	9f ef       	ldi	r25, 0xFF	; 255
    9d02:	2b 96       	adiw	r28, 0x0b	; 11
    9d04:	0f b6       	in	r0, 0x3f	; 63
    9d06:	f8 94       	cli
    9d08:	de bf       	out	0x3e, r29	; 62
    9d0a:	0f be       	out	0x3f, r0	; 63
    9d0c:	cd bf       	out	0x3d, r28	; 61
    9d0e:	df 91       	pop	r29
    9d10:	cf 91       	pop	r28
    9d12:	1f 91       	pop	r17
    9d14:	0f 91       	pop	r16
    9d16:	ff 90       	pop	r15
    9d18:	ef 90       	pop	r14
    9d1a:	df 90       	pop	r13
    9d1c:	cf 90       	pop	r12
    9d1e:	bf 90       	pop	r11
    9d20:	af 90       	pop	r10
    9d22:	9f 90       	pop	r9
    9d24:	8f 90       	pop	r8
    9d26:	7f 90       	pop	r7
    9d28:	6f 90       	pop	r6
    9d2a:	5f 90       	pop	r5
    9d2c:	4f 90       	pop	r4
    9d2e:	3f 90       	pop	r3
    9d30:	2f 90       	pop	r2
    9d32:	08 95       	ret

00009d34 <strnlen_P>:
    9d34:	fc 01       	movw	r30, r24
    9d36:	05 90       	lpm	r0, Z+
    9d38:	61 50       	subi	r22, 0x01	; 1
    9d3a:	70 40       	sbci	r23, 0x00	; 0
    9d3c:	01 10       	cpse	r0, r1
    9d3e:	d8 f7       	brcc	.-10     	; 0x9d36 <strnlen_P+0x2>
    9d40:	80 95       	com	r24
    9d42:	90 95       	com	r25
    9d44:	8e 0f       	add	r24, r30
    9d46:	9f 1f       	adc	r25, r31
    9d48:	08 95       	ret

00009d4a <strnlen>:
    9d4a:	fc 01       	movw	r30, r24
    9d4c:	61 50       	subi	r22, 0x01	; 1
    9d4e:	70 40       	sbci	r23, 0x00	; 0
    9d50:	01 90       	ld	r0, Z+
    9d52:	01 10       	cpse	r0, r1
    9d54:	d8 f7       	brcc	.-10     	; 0x9d4c <strnlen+0x2>
    9d56:	80 95       	com	r24
    9d58:	90 95       	com	r25
    9d5a:	8e 0f       	add	r24, r30
    9d5c:	9f 1f       	adc	r25, r31
    9d5e:	08 95       	ret

00009d60 <fputc>:
    9d60:	0f 93       	push	r16
    9d62:	1f 93       	push	r17
    9d64:	cf 93       	push	r28
    9d66:	df 93       	push	r29
    9d68:	fb 01       	movw	r30, r22
    9d6a:	23 81       	ldd	r18, Z+3	; 0x03
    9d6c:	21 fd       	sbrc	r18, 1
    9d6e:	03 c0       	rjmp	.+6      	; 0x9d76 <fputc+0x16>
    9d70:	8f ef       	ldi	r24, 0xFF	; 255
    9d72:	9f ef       	ldi	r25, 0xFF	; 255
    9d74:	2c c0       	rjmp	.+88     	; 0x9dce <fputc+0x6e>
    9d76:	22 ff       	sbrs	r18, 2
    9d78:	16 c0       	rjmp	.+44     	; 0x9da6 <fputc+0x46>
    9d7a:	46 81       	ldd	r20, Z+6	; 0x06
    9d7c:	57 81       	ldd	r21, Z+7	; 0x07
    9d7e:	24 81       	ldd	r18, Z+4	; 0x04
    9d80:	35 81       	ldd	r19, Z+5	; 0x05
    9d82:	42 17       	cp	r20, r18
    9d84:	53 07       	cpc	r21, r19
    9d86:	44 f4       	brge	.+16     	; 0x9d98 <fputc+0x38>
    9d88:	a0 81       	ld	r26, Z
    9d8a:	b1 81       	ldd	r27, Z+1	; 0x01
    9d8c:	9d 01       	movw	r18, r26
    9d8e:	2f 5f       	subi	r18, 0xFF	; 255
    9d90:	3f 4f       	sbci	r19, 0xFF	; 255
    9d92:	31 83       	std	Z+1, r19	; 0x01
    9d94:	20 83       	st	Z, r18
    9d96:	8c 93       	st	X, r24
    9d98:	26 81       	ldd	r18, Z+6	; 0x06
    9d9a:	37 81       	ldd	r19, Z+7	; 0x07
    9d9c:	2f 5f       	subi	r18, 0xFF	; 255
    9d9e:	3f 4f       	sbci	r19, 0xFF	; 255
    9da0:	37 83       	std	Z+7, r19	; 0x07
    9da2:	26 83       	std	Z+6, r18	; 0x06
    9da4:	14 c0       	rjmp	.+40     	; 0x9dce <fputc+0x6e>
    9da6:	8b 01       	movw	r16, r22
    9da8:	ec 01       	movw	r28, r24
    9daa:	fb 01       	movw	r30, r22
    9dac:	00 84       	ldd	r0, Z+8	; 0x08
    9dae:	f1 85       	ldd	r31, Z+9	; 0x09
    9db0:	e0 2d       	mov	r30, r0
    9db2:	19 95       	eicall
    9db4:	89 2b       	or	r24, r25
    9db6:	e1 f6       	brne	.-72     	; 0x9d70 <fputc+0x10>
    9db8:	d8 01       	movw	r26, r16
    9dba:	16 96       	adiw	r26, 0x06	; 6
    9dbc:	8d 91       	ld	r24, X+
    9dbe:	9c 91       	ld	r25, X
    9dc0:	17 97       	sbiw	r26, 0x07	; 7
    9dc2:	01 96       	adiw	r24, 0x01	; 1
    9dc4:	17 96       	adiw	r26, 0x07	; 7
    9dc6:	9c 93       	st	X, r25
    9dc8:	8e 93       	st	-X, r24
    9dca:	16 97       	sbiw	r26, 0x06	; 6
    9dcc:	ce 01       	movw	r24, r28
    9dce:	df 91       	pop	r29
    9dd0:	cf 91       	pop	r28
    9dd2:	1f 91       	pop	r17
    9dd4:	0f 91       	pop	r16
    9dd6:	08 95       	ret

00009dd8 <__ultoa_invert>:
    9dd8:	fa 01       	movw	r30, r20
    9dda:	aa 27       	eor	r26, r26
    9ddc:	28 30       	cpi	r18, 0x08	; 8
    9dde:	51 f1       	breq	.+84     	; 0x9e34 <__ultoa_invert+0x5c>
    9de0:	20 31       	cpi	r18, 0x10	; 16
    9de2:	81 f1       	breq	.+96     	; 0x9e44 <__ultoa_invert+0x6c>
    9de4:	e8 94       	clt
    9de6:	6f 93       	push	r22
    9de8:	6e 7f       	andi	r22, 0xFE	; 254
    9dea:	6e 5f       	subi	r22, 0xFE	; 254
    9dec:	7f 4f       	sbci	r23, 0xFF	; 255
    9dee:	8f 4f       	sbci	r24, 0xFF	; 255
    9df0:	9f 4f       	sbci	r25, 0xFF	; 255
    9df2:	af 4f       	sbci	r26, 0xFF	; 255
    9df4:	b1 e0       	ldi	r27, 0x01	; 1
    9df6:	3e d0       	rcall	.+124    	; 0x9e74 <__ultoa_invert+0x9c>
    9df8:	b4 e0       	ldi	r27, 0x04	; 4
    9dfa:	3c d0       	rcall	.+120    	; 0x9e74 <__ultoa_invert+0x9c>
    9dfc:	67 0f       	add	r22, r23
    9dfe:	78 1f       	adc	r23, r24
    9e00:	89 1f       	adc	r24, r25
    9e02:	9a 1f       	adc	r25, r26
    9e04:	a1 1d       	adc	r26, r1
    9e06:	68 0f       	add	r22, r24
    9e08:	79 1f       	adc	r23, r25
    9e0a:	8a 1f       	adc	r24, r26
    9e0c:	91 1d       	adc	r25, r1
    9e0e:	a1 1d       	adc	r26, r1
    9e10:	6a 0f       	add	r22, r26
    9e12:	71 1d       	adc	r23, r1
    9e14:	81 1d       	adc	r24, r1
    9e16:	91 1d       	adc	r25, r1
    9e18:	a1 1d       	adc	r26, r1
    9e1a:	20 d0       	rcall	.+64     	; 0x9e5c <__ultoa_invert+0x84>
    9e1c:	09 f4       	brne	.+2      	; 0x9e20 <__ultoa_invert+0x48>
    9e1e:	68 94       	set
    9e20:	3f 91       	pop	r19
    9e22:	2a e0       	ldi	r18, 0x0A	; 10
    9e24:	26 9f       	mul	r18, r22
    9e26:	11 24       	eor	r1, r1
    9e28:	30 19       	sub	r19, r0
    9e2a:	30 5d       	subi	r19, 0xD0	; 208
    9e2c:	31 93       	st	Z+, r19
    9e2e:	de f6       	brtc	.-74     	; 0x9de6 <__ultoa_invert+0xe>
    9e30:	cf 01       	movw	r24, r30
    9e32:	08 95       	ret
    9e34:	46 2f       	mov	r20, r22
    9e36:	47 70       	andi	r20, 0x07	; 7
    9e38:	40 5d       	subi	r20, 0xD0	; 208
    9e3a:	41 93       	st	Z+, r20
    9e3c:	b3 e0       	ldi	r27, 0x03	; 3
    9e3e:	0f d0       	rcall	.+30     	; 0x9e5e <__ultoa_invert+0x86>
    9e40:	c9 f7       	brne	.-14     	; 0x9e34 <__ultoa_invert+0x5c>
    9e42:	f6 cf       	rjmp	.-20     	; 0x9e30 <__ultoa_invert+0x58>
    9e44:	46 2f       	mov	r20, r22
    9e46:	4f 70       	andi	r20, 0x0F	; 15
    9e48:	40 5d       	subi	r20, 0xD0	; 208
    9e4a:	4a 33       	cpi	r20, 0x3A	; 58
    9e4c:	18 f0       	brcs	.+6      	; 0x9e54 <__ultoa_invert+0x7c>
    9e4e:	49 5d       	subi	r20, 0xD9	; 217
    9e50:	31 fd       	sbrc	r19, 1
    9e52:	40 52       	subi	r20, 0x20	; 32
    9e54:	41 93       	st	Z+, r20
    9e56:	02 d0       	rcall	.+4      	; 0x9e5c <__ultoa_invert+0x84>
    9e58:	a9 f7       	brne	.-22     	; 0x9e44 <__ultoa_invert+0x6c>
    9e5a:	ea cf       	rjmp	.-44     	; 0x9e30 <__ultoa_invert+0x58>
    9e5c:	b4 e0       	ldi	r27, 0x04	; 4
    9e5e:	a6 95       	lsr	r26
    9e60:	97 95       	ror	r25
    9e62:	87 95       	ror	r24
    9e64:	77 95       	ror	r23
    9e66:	67 95       	ror	r22
    9e68:	ba 95       	dec	r27
    9e6a:	c9 f7       	brne	.-14     	; 0x9e5e <__ultoa_invert+0x86>
    9e6c:	00 97       	sbiw	r24, 0x00	; 0
    9e6e:	61 05       	cpc	r22, r1
    9e70:	71 05       	cpc	r23, r1
    9e72:	08 95       	ret
    9e74:	9b 01       	movw	r18, r22
    9e76:	ac 01       	movw	r20, r24
    9e78:	0a 2e       	mov	r0, r26
    9e7a:	06 94       	lsr	r0
    9e7c:	57 95       	ror	r21
    9e7e:	47 95       	ror	r20
    9e80:	37 95       	ror	r19
    9e82:	27 95       	ror	r18
    9e84:	ba 95       	dec	r27
    9e86:	c9 f7       	brne	.-14     	; 0x9e7a <__ultoa_invert+0xa2>
    9e88:	62 0f       	add	r22, r18
    9e8a:	73 1f       	adc	r23, r19
    9e8c:	84 1f       	adc	r24, r20
    9e8e:	95 1f       	adc	r25, r21
    9e90:	a0 1d       	adc	r26, r0
    9e92:	08 95       	ret

00009e94 <_exit>:
    9e94:	f8 94       	cli

00009e96 <__stop_program>:
    9e96:	ff cf       	rjmp	.-2      	; 0x9e96 <__stop_program>
